Certificate:
    Data:
        Version: 3 (0x2)
        Serial Number:
            99:a1:45:84:f6:ed:44:f0
        Signature Algorithm: ecdsa-with-SHA1
        Issuer: CN=kunstmaan.be, OU=tlsca, C=be, O=kunstmaan
        Validity
            Not Before: Feb 14 16:06:52 2018 GMT
            Not After : Feb 12 16:06:52 2028 GMT
        Subject: C=be, O=kunstmaan, OU=admin-kuma, CN=admin-kuma.kunstmaan.be
        Subject Public Key Info:
            Public Key Algorithm: id-ecPublicKey
            EC Public Key:
                pub: 
                    04:c6:87:bc:6c:c8:90:3c:4f:36:20:3a:b7:35:83:
                    5f:10:53:43:99:dd:e7:39:6f:11:54:a3:8b:37:ee:
                    1b:c8:f2:a5:5f:11:5c:8e:12:bb:51:81:ec:0b:65:
                    37:fa:1c:7b:ae:02:62:15:d3:f5:2a:0f:e0:78:44:
                    a7:18:b3:f4:70
                ASN1 OID: prime256v1
        X509v3 extensions:
            1.2.3.4.5.6.7.8.1: 
                ..{"attrs":{}}
            X509v3 Authority Key Identifier: 
                keyid:FB:41:45:09:28:B4:C3:36:94:8F:FC:C5:CF:19:AF:BD:EE:B8:27:90

            X509v3 Basic Constraints: critical
                CA:FALSE
            X509v3 Subject Key Identifier: 
                F9:F9:9F:80:75:2B:6C:2A:C1:78:6E:F3:AE:FA:4C:DB:E7:6D:08:07
            X509v3 Key Usage: critical
                Digital Signature, Key Encipherment
            X509v3 Extended Key Usage: 
                TLS Web Server Authentication, TLS Web Client Authentication
    Signature Algorithm: ecdsa-with-SHA1
        30:45:02:20:6b:f3:6e:61:44:81:90:67:3a:9d:3b:f2:d9:9e:
        93:98:d6:c4:09:be:f4:e3:91:70:0a:23:64:68:b4:0f:37:a9:
        02:21:00:c6:e5:a6:67:1f:25:0a:ac:f8:a0:8c:04:78:e1:13:
        c2:7e:0e:79:0a:02:1a:29:ac:53:7a:34:ea:dc:1e:35:6d
-----BEGIN CERTIFICATE-----
MIICMjCCAdmgAwIBAgIJAJmhRYT27UTwMAkGByqGSM49BAEwSDEVMBMGA1UEAwwM
a3Vuc3RtYWFuLmJlMQ4wDAYDVQQLDAV0bHNjYTELMAkGA1UEBhMCYmUxEjAQBgNV
BAoMCWt1bnN0bWFhbjAeFw0xODAyMTQxNjA2NTJaFw0yODAyMTIxNjA2NTJaMFgx
CzAJBgNVBAYTAmJlMRIwEAYDVQQKDAlrdW5zdG1hYW4xEzARBgNVBAsMCmFkbWlu
LWt1bWExIDAeBgNVBAMMF2FkbWluLWt1bWEua3Vuc3RtYWFuLmJlMFkwEwYHKoZI
zj0CAQYIKoZIzj0DAQcDQgAExoe8bMiQPE82IDq3NYNfEFNDmd3nOW8RVKOLN+4b
yPKlXxFcjhK7UYHsC2U3+hx7rgJiFdP1Kg/geESnGLP0cKOBnDCBmTAaBggqAwQF
BgcIAQQODAx7ImF0dHJzIjp7fX0wHwYDVR0jBBgwFoAU+0FFCSi0wzaUj/zFzxmv
ve64J5AwDAYDVR0TAQH/BAIwADAdBgNVHQ4EFgQU+fmfgHUrbCrBeG7zrvpM2+dt
CAcwDgYDVR0PAQH/BAQDAgWgMB0GA1UdJQQWMBQGCCsGAQUFBwMBBggrBgEFBQcD
AjAJBgcqhkjOPQQBA0gAMEUCIGvzbmFEgZBnOp078tmek5jWxAm+9OORcAojZGi0
DzepAiEAxuWmZx8lCqz4oIwEeOETwn4OeQoCGimsU3o06tweNW0=
-----END CERTIFICATE-----
