Certificate:
    Data:
        Version: 3 (0x2)
        Serial Number:
            d5:d2:5d:c1:4b:05:6b:ec
    Signature Algorithm: ecdsa-with-SHA256
        Issuer: CN=kunstmaan.be, OU=ca, C=be, O=kunstmaan
        Validity
            Not Before: Feb 28 10:00:18 2018 GMT
            Not After : Feb 23 10:00:18 2038 GMT
        Subject: CN=kunstmaan.be, OU=ca, C=be, O=kunstmaan
        Subject Public Key Info:
            Public Key Algorithm: id-ecPublicKey
                Public-Key: (256 bit)
                pub: 
                    04:71:71:b5:92:68:ff:b5:77:76:c8:06:2c:dc:b8:
                    6f:ca:7f:b9:09:81:56:0d:3f:f7:01:09:7b:e0:4d:
                    20:e8:ac:a7:e2:f8:9e:b2:4f:3f:0f:89:df:bd:fb:
                    18:75:23:9c:b2:e3:5f:71:00:8f:af:4c:94:8d:b4:
                    fb:02:31:34:b0
                ASN1 OID: prime256v1
                NIST CURVE: P-256
        X509v3 extensions:
            X509v3 Subject Key Identifier: 
                FF:BF:2D:2F:F8:AB:7D:BE:D5:06:D2:71:53:11:5C:08:E0:74:58:1D
            X509v3 Basic Constraints: critical
                CA:TRUE
            X509v3 Key Usage: critical
                Digital Signature, Key Encipherment, Certificate Sign, CRL Sign
            X509v3 Extended Key Usage: 
                Any Extended Key Usage
    Signature Algorithm: ecdsa-with-SHA256
         30:45:02:20:7f:d1:b8:26:6b:86:b0:55:b9:aa:f5:55:c4:6d:
         97:c3:19:0a:1a:12:7c:75:74:46:a9:63:5b:91:e9:6b:ce:3a:
         02:21:00:f4:43:ac:15:02:b9:27:10:f9:9a:b2:e1:2b:ed:fd:
         64:03:e9:a4:87:90:c7:a7:a4:29:fd:62:27:38:6b:09:01
-----BEGIN CERTIFICATE-----
MIIB1DCCAXqgAwIBAgIJANXSXcFLBWvsMAoGCCqGSM49BAMCMEUxFTATBgNVBAMM
DGt1bnN0bWFhbi5iZTELMAkGA1UECwwCY2ExCzAJBgNVBAYTAmJlMRIwEAYDVQQK
DAlrdW5zdG1hYW4wHhcNMTgwMjI4MTAwMDE4WhcNMzgwMjIzMTAwMDE4WjBFMRUw
EwYDVQQDDAxrdW5zdG1hYW4uYmUxCzAJBgNVBAsMAmNhMQswCQYDVQQGEwJiZTES
MBAGA1UECgwJa3Vuc3RtYWFuMFkwEwYHKoZIzj0CAQYIKoZIzj0DAQcDQgAEcXG1
kmj/tXd2yAYs3Lhvyn+5CYFWDT/3AQl74E0g6Kyn4viesk8/D4nfvfsYdSOcsuNf
cQCPr0yUjbT7AjE0sKNTMFEwHQYDVR0OBBYEFP+/LS/4q32+1QbScVMRXAjgdFgd
MA8GA1UdEwEB/wQFMAMBAf8wDgYDVR0PAQH/BAQDAgGmMA8GA1UdJQQIMAYGBFUd
JQAwCgYIKoZIzj0EAwIDSAAwRQIgf9G4JmuGsFW5qvVVxG2XwxkKGhJ8dXRGqWNb
kelrzjoCIQD0Q6wVArknEPmasuEr7f1kA+mkh5DHp6Qp/WInOGsJAQ==
-----END CERTIFICATE-----
Certificate:
    Data:
        Version: 3 (0x2)
        Serial Number:
            d8:2d:d1:73:96:6e:e6:32
    Signature Algorithm: ecdsa-with-SHA256
        Issuer: CN=kunstmaan.be, OU=ca, C=be, O=kunstmaan
        Validity
            Not Before: Feb 28 10:00:18 2018 GMT
            Not After : Feb 26 10:00:18 2028 GMT
        Subject: C=be, O=kunstmaan, OU=org, CN=org.kunstmaan.be
        Subject Public Key Info:
            Public Key Algorithm: id-ecPublicKey
                Public-Key: (256 bit)
                pub: 
                    04:22:98:2d:a1:c0:64:1c:5b:bf:bc:11:c2:95:96:
                    c9:ae:c0:63:f0:f8:87:47:ad:7a:bf:82:1c:52:a5:
                    e1:29:7e:8e:fc:eb:e9:34:1b:70:a2:2a:fd:90:36:
                    3b:c1:da:25:9b:01:1f:cb:00:9a:7d:74:04:96:1b:
                    83:d3:f8:77:b3
                ASN1 OID: prime256v1
                NIST CURVE: P-256
        X509v3 extensions:
            1.2.3.4.5.6.7.8.1: 
                ..{"attrs":{}}
            X509v3 Authority Key Identifier: 
                keyid:FF:BF:2D:2F:F8:AB:7D:BE:D5:06:D2:71:53:11:5C:08:E0:74:58:1D

            X509v3 Basic Constraints: critical
                CA:TRUE
            X509v3 Subject Key Identifier: 
                83:E2:97:23:04:83:A2:25:9C:B1:F2:12:BF:DA:36:8E:3F:36:7B:FF
            X509v3 Extended Key Usage: 
                Any Extended Key Usage
            X509v3 Key Usage: critical
                Digital Signature, Key Encipherment, Certificate Sign, CRL Sign
    Signature Algorithm: ecdsa-with-SHA256
         30:46:02:21:00:8f:86:d4:bf:65:55:1b:b2:c6:ab:39:65:c5:
         2e:62:29:72:3f:1b:43:da:3b:ad:4e:0b:65:ac:98:d5:14:d6:
         b0:02:21:00:a9:77:ab:42:e9:3f:c7:a8:bf:1f:f2:39:d8:8b:
         a8:db:f5:61:bb:10:5e:da:72:d5:f1:5e:75:8a:90:90:e4:fc
-----BEGIN CERTIFICATE-----
MIICGTCCAb6gAwIBAgIJANgt0XOWbuYyMAoGCCqGSM49BAMCMEUxFTATBgNVBAMM
DGt1bnN0bWFhbi5iZTELMAkGA1UECwwCY2ExCzAJBgNVBAYTAmJlMRIwEAYDVQQK
DAlrdW5zdG1hYW4wHhcNMTgwMjI4MTAwMDE4WhcNMjgwMjI2MTAwMDE4WjBKMQsw
CQYDVQQGEwJiZTESMBAGA1UECgwJa3Vuc3RtYWFuMQwwCgYDVQQLDANvcmcxGTAX
BgNVBAMMEG9yZy5rdW5zdG1hYW4uYmUwWTATBgcqhkjOPQIBBggqhkjOPQMBBwNC
AAQimC2hwGQcW7+8EcKVlsmuwGPw+IdHrXq/ghxSpeEpfo786+k0G3CiKv2QNjvB
2iWbAR/LAJp9dASWG4PT+Hezo4GRMIGOMBoGCCoDBAUGBwgBBA4MDHsiYXR0cnMi
Ont9fTAfBgNVHSMEGDAWgBT/vy0v+Kt9vtUG0nFTEVwI4HRYHTAPBgNVHRMBAf8E
BTADAQH/MB0GA1UdDgQWBBSD4pcjBIOiJZyx8hK/2jaOPzZ7/zAPBgNVHSUECDAG
BgRVHSUAMA4GA1UdDwEB/wQEAwIBpjAKBggqhkjOPQQDAgNJADBGAiEAj4bUv2VV
G7LGqzllxS5iKXI/G0PaO61OC2WsmNUU1rACIQCpd6tC6T/HqL8f8jnYi6jb9WG7
EF7actXxXnWKkJDk/A==
-----END CERTIFICATE-----
Certificate:
    Data:
        Version: 3 (0x2)
        Serial Number:
            ec:79:fe:46:cc:fb:57:cb
    Signature Algorithm: ecdsa-with-SHA256
        Issuer: C=be, O=kunstmaan, OU=org, CN=org.kunstmaan.be
        Validity
            Not Before: Feb 28 10:00:20 2018 GMT
            Not After : Feb 26 10:00:20 2028 GMT
        Subject: C=be, O=kunstmaan, OU=org, CN=orderer.org.kunstmaan.be
        Subject Public Key Info:
            Public Key Algorithm: id-ecPublicKey
                Public-Key: (256 bit)
                pub: 
                    04:c3:ec:9c:bc:0d:04:6c:3d:39:54:ba:52:7f:c1:
                    5d:7b:a8:48:50:a2:6b:92:c0:dc:85:c9:35:55:7c:
                    a5:8f:8d:1d:12:ab:b6:75:ba:25:50:c5:54:2d:08:
                    d8:a4:e7:dc:9b:3e:0f:8b:35:0c:50:fb:65:61:45:
                    6d:0a:83:01:53
                ASN1 OID: prime256v1
                NIST CURVE: P-256
        X509v3 extensions:
            1.2.3.4.5.6.7.8.1: 
                ..{"attrs":{}}
            X509v3 Authority Key Identifier: 
                keyid:83:E2:97:23:04:83:A2:25:9C:B1:F2:12:BF:DA:36:8E:3F:36:7B:FF

            X509v3 Basic Constraints: critical
                CA:FALSE
            X509v3 Subject Key Identifier: 
                03:BC:70:1C:7B:49:66:F8:A7:CF:8E:A9:8F:43:E9:32:B5:90:C7:98
            X509v3 Key Usage: critical
                Digital Signature
    Signature Algorithm: ecdsa-with-SHA256
         30:44:02:20:5b:c0:5c:17:6f:52:37:d5:58:b9:fe:71:18:01:
         55:04:04:d6:d0:c9:34:8e:ff:11:07:d8:23:3e:f2:d8:ef:ab:
         02:20:40:19:af:d2:40:dc:03:f7:c5:72:bd:58:cc:2f:5b:40:
         d2:84:63:6e:e3:44:77:2f:78:9d:50:fd:84:aa:cb:72
-----BEGIN CERTIFICATE-----
MIICDjCCAbWgAwIBAgIJAOx5/kbM+1fLMAoGCCqGSM49BAMCMEoxCzAJBgNVBAYT
AmJlMRIwEAYDVQQKDAlrdW5zdG1hYW4xDDAKBgNVBAsMA29yZzEZMBcGA1UEAwwQ
b3JnLmt1bnN0bWFhbi5iZTAeFw0xODAyMjgxMDAwMjBaFw0yODAyMjYxMDAwMjBa
MFIxCzAJBgNVBAYTAmJlMRIwEAYDVQQKDAlrdW5zdG1hYW4xDDAKBgNVBAsMA29y
ZzEhMB8GA1UEAwwYb3JkZXJlci5vcmcua3Vuc3RtYWFuLmJlMFkwEwYHKoZIzj0C
AQYIKoZIzj0DAQcDQgAEw+ycvA0EbD05VLpSf8Fde6hIUKJrksDchck1VXylj40d
Equ2dbolUMVULQjYpOfcmz4PizUMUPtlYUVtCoMBU6N8MHowGgYIKgMEBQYHCAEE
DgwMeyJhdHRycyI6e319MB8GA1UdIwQYMBaAFIPilyMEg6IlnLHyEr/aNo4/Nnv/
MAwGA1UdEwEB/wQCMAAwHQYDVR0OBBYEFAO8cBx7SWb4p8+OqY9D6TK1kMeYMA4G
A1UdDwEB/wQEAwIHgDAKBggqhkjOPQQDAgNHADBEAiBbwFwXb1I31Vi5/nEYAVUE
BNbQyTSO/xEH2CM+8tjvqwIgQBmv0kDcA/fFcr1YzC9bQNKEY27jRHcveJ1Q/YSq
y3I=
-----END CERTIFICATE-----
