Certificate:
    Data:
        Version: 3 (0x2)
        Serial Number:
            8c:f3:2a:69:f6:86:62:ed
    Signature Algorithm: ecdsa-with-SHA256
        Issuer: CN=kunstmaan.be, OU=ca, C=be, O=kunstmaan
        Validity
            Not Before: Feb 28 10:12:52 2018 GMT
            Not After : Feb 23 10:12:52 2038 GMT
        Subject: CN=kunstmaan.be, OU=ca, C=be, O=kunstmaan
        Subject Public Key Info:
            Public Key Algorithm: id-ecPublicKey
                Public-Key: (256 bit)
                pub: 
                    04:02:a1:be:09:b2:3d:b5:b8:a4:79:79:63:d5:72:
                    83:db:4d:e7:0a:15:ac:b5:43:b5:58:48:2e:a4:b1:
                    bd:b5:b5:97:4b:ca:7a:73:bd:58:3f:d9:7b:12:8e:
                    1f:71:9f:1e:51:f9:5d:a1:fd:42:c3:4b:39:f3:34:
                    80:3f:f0:3e:b7
                ASN1 OID: prime256v1
                NIST CURVE: P-256
        X509v3 extensions:
            X509v3 Subject Key Identifier: 
                5B:94:1B:FA:3D:97:08:38:D0:52:B7:C6:20:15:62:CB:C6:D1:D3:5D
            X509v3 Basic Constraints: critical
                CA:TRUE
            X509v3 Key Usage: critical
                Digital Signature, Key Encipherment, Certificate Sign, CRL Sign
            X509v3 Extended Key Usage: 
                Any Extended Key Usage
    Signature Algorithm: ecdsa-with-SHA256
         30:46:02:21:00:af:95:be:b4:d4:61:50:70:9b:3e:27:7a:b9:
         84:48:af:f0:09:1a:eb:a4:4f:6c:fc:49:bd:d0:67:bb:cd:fb:
         34:02:21:00:e2:10:b6:83:fd:30:d8:65:19:73:54:b6:fb:48:
         90:d6:55:fc:c6:bf:4b:24:ae:62:fd:fc:7e:36:c0:78:b6:b9
-----BEGIN CERTIFICATE-----
MIIB1TCCAXqgAwIBAgIJAIzzKmn2hmLtMAoGCCqGSM49BAMCMEUxFTATBgNVBAMM
DGt1bnN0bWFhbi5iZTELMAkGA1UECwwCY2ExCzAJBgNVBAYTAmJlMRIwEAYDVQQK
DAlrdW5zdG1hYW4wHhcNMTgwMjI4MTAxMjUyWhcNMzgwMjIzMTAxMjUyWjBFMRUw
EwYDVQQDDAxrdW5zdG1hYW4uYmUxCzAJBgNVBAsMAmNhMQswCQYDVQQGEwJiZTES
MBAGA1UECgwJa3Vuc3RtYWFuMFkwEwYHKoZIzj0CAQYIKoZIzj0DAQcDQgAEAqG+
CbI9tbikeXlj1XKD203nChWstUO1WEgupLG9tbWXS8p6c71YP9l7Eo4fcZ8eUfld
of1Cw0s58zSAP/A+t6NTMFEwHQYDVR0OBBYEFFuUG/o9lwg40FK3xiAVYsvG0dNd
MA8GA1UdEwEB/wQFMAMBAf8wDgYDVR0PAQH/BAQDAgGmMA8GA1UdJQQIMAYGBFUd
JQAwCgYIKoZIzj0EAwIDSQAwRgIhAK+VvrTUYVBwmz4nermESK/wCRrrpE9s/Em9
0Ge7zfs0AiEA4hC2g/0w2GUZc1S2+0iQ1lX8xr9LJK5i/fx+NsB4trk=
-----END CERTIFICATE-----
Certificate:
    Data:
        Version: 3 (0x2)
        Serial Number:
            d2:96:f2:74:96:07:9b:2d
    Signature Algorithm: ecdsa-with-SHA256
        Issuer: CN=kunstmaan.be, OU=ca, C=be, O=kunstmaan
        Validity
            Not Before: Feb 28 10:12:52 2018 GMT
            Not After : Feb 26 10:12:52 2028 GMT
        Subject: C=be, O=kunstmaan, OU=org, CN=org.kunstmaan.be
        Subject Public Key Info:
            Public Key Algorithm: id-ecPublicKey
                Public-Key: (256 bit)
                pub: 
                    04:72:55:e1:d1:03:84:d6:60:f1:71:ad:ca:43:a7:
                    50:eb:9b:76:6f:6b:5f:ef:2d:45:d2:f1:0a:fd:98:
                    3d:fc:8d:3d:9e:5d:ae:b2:f0:05:9f:88:ae:b4:29:
                    53:56:ef:ff:b7:f2:c3:93:9a:15:cb:9f:22:30:0d:
                    47:5e:8f:a6:2c
                ASN1 OID: prime256v1
                NIST CURVE: P-256
        X509v3 extensions:
            1.2.3.4.5.6.7.8.1: 
                ..{"attrs":{}}
            X509v3 Authority Key Identifier: 
                keyid:5B:94:1B:FA:3D:97:08:38:D0:52:B7:C6:20:15:62:CB:C6:D1:D3:5D

            X509v3 Basic Constraints: critical
                CA:TRUE
            X509v3 Subject Key Identifier: 
                F2:4F:2D:2C:11:24:10:11:AF:8E:8B:F6:EA:F4:7E:58:1B:A0:B8:E2
            X509v3 Extended Key Usage: 
                Any Extended Key Usage
            X509v3 Key Usage: critical
                Digital Signature, Key Encipherment, Certificate Sign, CRL Sign
    Signature Algorithm: ecdsa-with-SHA256
         30:44:02:20:5b:08:ca:31:a2:c1:ac:9b:41:a9:e9:02:63:0f:
         47:b5:3b:f8:b6:cc:c3:e3:b4:3a:9e:65:a6:8e:c4:c8:83:73:
         02:20:32:c8:2c:a6:ed:1d:78:1e:66:bc:bb:48:64:da:e0:fa:
         8a:a0:21:88:fb:16:85:39:18:32:27:18:48:5f:ae:3c
-----BEGIN CERTIFICATE-----
MIICFzCCAb6gAwIBAgIJANKW8nSWB5stMAoGCCqGSM49BAMCMEUxFTATBgNVBAMM
DGt1bnN0bWFhbi5iZTELMAkGA1UECwwCY2ExCzAJBgNVBAYTAmJlMRIwEAYDVQQK
DAlrdW5zdG1hYW4wHhcNMTgwMjI4MTAxMjUyWhcNMjgwMjI2MTAxMjUyWjBKMQsw
CQYDVQQGEwJiZTESMBAGA1UECgwJa3Vuc3RtYWFuMQwwCgYDVQQLDANvcmcxGTAX
BgNVBAMMEG9yZy5rdW5zdG1hYW4uYmUwWTATBgcqhkjOPQIBBggqhkjOPQMBBwNC
AARyVeHRA4TWYPFxrcpDp1Drm3Zva1/vLUXS8Qr9mD38jT2eXa6y8AWfiK60KVNW
7/+38sOTmhXLnyIwDUdej6Yso4GRMIGOMBoGCCoDBAUGBwgBBA4MDHsiYXR0cnMi
Ont9fTAfBgNVHSMEGDAWgBRblBv6PZcIONBSt8YgFWLLxtHTXTAPBgNVHRMBAf8E
BTADAQH/MB0GA1UdDgQWBBTyTy0sESQQEa+Oi/bq9H5YG6C44jAPBgNVHSUECDAG
BgRVHSUAMA4GA1UdDwEB/wQEAwIBpjAKBggqhkjOPQQDAgNHADBEAiBbCMoxosGs
m0Gp6QJjD0e1O/i2zMPjtDqeZaaOxMiDcwIgMsgspu0deB5mvLtIZNrg+oqgIYj7
FoU5GDInGEhfrjw=
-----END CERTIFICATE-----
Certificate:
    Data:
        Version: 3 (0x2)
        Serial Number:
            b1:84:42:08:3b:52:10:60
    Signature Algorithm: ecdsa-with-SHA256
        Issuer: C=be, O=kunstmaan, OU=org, CN=org.kunstmaan.be
        Validity
            Not Before: Feb 28 10:12:54 2018 GMT
            Not After : Feb 26 10:12:54 2028 GMT
        Subject: C=be, O=kunstmaan, OU=org, CN=orderer.org.kunstmaan.be
        Subject Public Key Info:
            Public Key Algorithm: id-ecPublicKey
                Public-Key: (256 bit)
                pub: 
                    04:b3:20:e8:2c:e6:1c:4d:3d:34:7e:89:a0:ea:ec:
                    79:96:30:3b:f4:52:34:cc:d9:69:2c:2a:28:fd:c8:
                    80:ef:98:54:e6:1e:4c:a7:f4:f4:8e:34:f8:fc:94:
                    21:e3:3d:1c:6b:40:47:f9:19:6f:aa:e0:f6:54:bf:
                    04:f3:b0:b7:27
                ASN1 OID: prime256v1
                NIST CURVE: P-256
        X509v3 extensions:
            1.2.3.4.5.6.7.8.1: 
                ..{"attrs":{}}
            X509v3 Authority Key Identifier: 
                keyid:F2:4F:2D:2C:11:24:10:11:AF:8E:8B:F6:EA:F4:7E:58:1B:A0:B8:E2

            X509v3 Basic Constraints: critical
                CA:FALSE
            X509v3 Subject Key Identifier: 
                94:9D:56:F7:6C:EF:A7:F6:C7:E5:B8:DC:BC:D1:01:B0:3E:FD:5F:A4
            X509v3 Key Usage: critical
                Digital Signature
    Signature Algorithm: ecdsa-with-SHA256
         30:45:02:20:59:3a:39:9d:fb:68:7e:16:95:4d:ce:8a:ac:db:
         96:73:38:e4:7d:cd:28:d1:13:2c:41:30:95:bd:80:cb:a3:f5:
         02:21:00:a5:4f:89:09:2a:7b:cf:75:88:26:97:cd:60:a5:36:
         d5:97:4f:fd:ab:1e:7d:51:87:e2:5d:7b:f6:78:d0:de:e9
-----BEGIN CERTIFICATE-----
MIICDzCCAbWgAwIBAgIJALGEQgg7UhBgMAoGCCqGSM49BAMCMEoxCzAJBgNVBAYT
AmJlMRIwEAYDVQQKDAlrdW5zdG1hYW4xDDAKBgNVBAsMA29yZzEZMBcGA1UEAwwQ
b3JnLmt1bnN0bWFhbi5iZTAeFw0xODAyMjgxMDEyNTRaFw0yODAyMjYxMDEyNTRa
MFIxCzAJBgNVBAYTAmJlMRIwEAYDVQQKDAlrdW5zdG1hYW4xDDAKBgNVBAsMA29y
ZzEhMB8GA1UEAwwYb3JkZXJlci5vcmcua3Vuc3RtYWFuLmJlMFkwEwYHKoZIzj0C
AQYIKoZIzj0DAQcDQgAEsyDoLOYcTT00fomg6ux5ljA79FI0zNlpLCoo/ciA75hU
5h5Mp/T0jjT4/JQh4z0ca0BH+RlvquD2VL8E87C3J6N8MHowGgYIKgMEBQYHCAEE
DgwMeyJhdHRycyI6e319MB8GA1UdIwQYMBaAFPJPLSwRJBARr46L9ur0flgboLji
MAwGA1UdEwEB/wQCMAAwHQYDVR0OBBYEFJSdVvds76f2x+W43LzRAbA+/V+kMA4G
A1UdDwEB/wQEAwIHgDAKBggqhkjOPQQDAgNIADBFAiBZOjmd+2h+FpVNzoqs25Zz
OOR9zSjREyxBMJW9gMuj9QIhAKVPiQkqe891iCaXzWClNtWXT/2rHn1Rh+Jde/Z4
0N7p
-----END CERTIFICATE-----
