Certificate:
    Data:
        Version: 3 (0x2)
        Serial Number:
            cc:a1:93:a1:c3:77:e6:c7
        Signature Algorithm: ecdsa-with-SHA1
        Issuer: CN=kunstmaan.be, OU=ca, C=be, O=kunstmaan
        Validity
            Not Before: Feb 27 17:00:07 2018 GMT
            Not After : Feb 22 17:00:07 2038 GMT
        Subject: CN=kunstmaan.be, OU=ca, C=be, O=kunstmaan
        Subject Public Key Info:
            Public Key Algorithm: id-ecPublicKey
            EC Public Key:
                pub: 
                    04:5e:26:d8:79:c4:28:90:f4:f5:83:7d:5b:c3:c3:
                    18:df:9f:b2:14:fd:4d:01:c4:3c:bd:1c:47:38:44:
                    fa:d8:77:4c:ff:d9:91:14:23:74:0a:d9:f4:6b:ee:
                    b6:7d:cd:d3:2d:6b:0a:18:c2:67:22:f7:d5:80:1b:
                    b6:14:35:9e:6a
                ASN1 OID: prime256v1
        X509v3 extensions:
            X509v3 Subject Key Identifier: 
                36:DB:89:FC:56:3F:D3:96:CF:41:F0:4C:F0:DD:36:1E:C3:ED:2E:6A
            X509v3 Basic Constraints: critical
                CA:TRUE
            X509v3 Key Usage: critical
                Digital Signature, Key Encipherment, Certificate Sign, CRL Sign
            X509v3 Extended Key Usage: 
                2.5.29.37.0
    Signature Algorithm: ecdsa-with-SHA1
        30:44:02:20:5e:9d:c1:0f:5a:c6:2f:ab:08:78:d1:b8:ef:e3:
        bc:d1:ce:9c:b3:11:62:94:d8:15:d5:01:77:f9:a6:d4:5b:ff:
        02:20:5e:13:4c:5f:10:93:93:6a:67:4a:a7:5c:42:d7:1c:88:
        e2:32:a6:ab:86:b9:36:f3:4d:c1:c9:96:9d:52:5a:8a
-----BEGIN CERTIFICATE-----
MIIB0TCCAXmgAwIBAgIJAMyhk6HDd+bHMAkGByqGSM49BAEwRTEVMBMGA1UEAwwM
a3Vuc3RtYWFuLmJlMQswCQYDVQQLDAJjYTELMAkGA1UEBhMCYmUxEjAQBgNVBAoM
CWt1bnN0bWFhbjAeFw0xODAyMjcxNzAwMDdaFw0zODAyMjIxNzAwMDdaMEUxFTAT
BgNVBAMMDGt1bnN0bWFhbi5iZTELMAkGA1UECwwCY2ExCzAJBgNVBAYTAmJlMRIw
EAYDVQQKDAlrdW5zdG1hYW4wWTATBgcqhkjOPQIBBggqhkjOPQMBBwNCAAReJth5
xCiQ9PWDfVvDwxjfn7IU/U0BxDy9HEc4RPrYd0z/2ZEUI3QK2fRr7rZ9zdMtawoY
wmci99WAG7YUNZ5qo1MwUTAdBgNVHQ4EFgQUNtuJ/FY/05bPQfBM8N02HsPtLmow
DwYDVR0TAQH/BAUwAwEB/zAOBgNVHQ8BAf8EBAMCAaYwDwYDVR0lBAgwBgYEVR0l
ADAJBgcqhkjOPQQBA0cAMEQCIF6dwQ9axi+rCHjRuO/jvNHOnLMRYpTYFdUBd/mm
1Fv/AiBeE0xfEJOTamdKp1xC1xyI4jKmq4a5NvNNwcmWnVJaig==
-----END CERTIFICATE-----
Certificate:
    Data:
        Version: 3 (0x2)
        Serial Number:
            fe:e0:db:32:69:6b:5c:75
        Signature Algorithm: ecdsa-with-SHA1
        Issuer: CN=kunstmaan.be, OU=ca, C=be, O=kunstmaan
        Validity
            Not Before: Feb 27 17:00:07 2018 GMT
            Not After : Feb 25 17:00:07 2028 GMT
        Subject: C=be, O=kunstmaan, OU=org, CN=org.kunstmaan.be
        Subject Public Key Info:
            Public Key Algorithm: id-ecPublicKey
            EC Public Key:
                pub: 
                    04:aa:42:1e:bd:60:c6:74:dc:3a:43:13:ed:1e:73:
                    2f:4a:07:64:53:a8:d0:cd:92:2a:5b:63:fc:94:98:
                    4f:25:ba:51:75:8a:e0:0f:5c:7f:99:0a:13:9f:18:
                    8c:35:0e:97:c5:3e:46:88:89:92:e7:db:6b:34:f5:
                    e1:e4:71:c9:2c
                ASN1 OID: prime256v1
        X509v3 extensions:
            1.2.3.4.5.6.7.8.1: 
                ..{"attrs":{}}
            X509v3 Authority Key Identifier: 
                keyid:36:DB:89:FC:56:3F:D3:96:CF:41:F0:4C:F0:DD:36:1E:C3:ED:2E:6A

            X509v3 Basic Constraints: critical
                CA:TRUE
            X509v3 Subject Key Identifier: 
                89:9E:98:C2:9C:9A:BF:F0:F0:4E:93:13:CF:D9:90:22:10:CB:5F:FA
            X509v3 Key Usage: critical
                Digital Signature, Key Encipherment, Certificate Sign, CRL Sign
            X509v3 Extended Key Usage: 
                TLS Web Server Authentication, TLS Web Client Authentication
    Signature Algorithm: ecdsa-with-SHA1
        30:45:02:21:00:aa:39:62:65:b5:95:72:e2:bf:09:d1:43:8d:
        ff:53:56:0c:db:10:05:9e:4a:88:ec:e6:37:7d:83:fd:c7:22:
        31:02:20:24:61:8f:21:06:d4:1e:35:8c:18:f7:a8:af:fe:11:
        12:df:20:87:60:bf:ed:d5:36:ca:5f:89:09:02:79:25:74
-----BEGIN CERTIFICATE-----
MIICJDCCAcugAwIBAgIJAP7g2zJpa1x1MAkGByqGSM49BAEwRTEVMBMGA1UEAwwM
a3Vuc3RtYWFuLmJlMQswCQYDVQQLDAJjYTELMAkGA1UEBhMCYmUxEjAQBgNVBAoM
CWt1bnN0bWFhbjAeFw0xODAyMjcxNzAwMDdaFw0yODAyMjUxNzAwMDdaMEoxCzAJ
BgNVBAYTAmJlMRIwEAYDVQQKDAlrdW5zdG1hYW4xDDAKBgNVBAsMA29yZzEZMBcG
A1UEAwwQb3JnLmt1bnN0bWFhbi5iZTBZMBMGByqGSM49AgEGCCqGSM49AwEHA0IA
BKpCHr1gxnTcOkMT7R5zL0oHZFOo0M2SKltj/JSYTyW6UXWK4A9cf5kKE58YjDUO
l8U+RoiJkufbazT14eRxySyjgZ8wgZwwGgYIKgMEBQYHCAEEDgwMeyJhdHRycyI6
e319MB8GA1UdIwQYMBaAFDbbifxWP9OWz0HwTPDdNh7D7S5qMA8GA1UdEwEB/wQF
MAMBAf8wHQYDVR0OBBYEFImemMKcmr/w8E6TE8/ZkCIQy1/6MA4GA1UdDwEB/wQE
AwIBpjAdBgNVHSUEFjAUBggrBgEFBQcDAQYIKwYBBQUHAwIwCQYHKoZIzj0EAQNI
ADBFAiEAqjliZbWVcuK/CdFDjf9TVgzbEAWeSojs5jd9g/3HIjECICRhjyEG1B41
jBj3qK/+ERLfIIdgv+3VNspfiQkCeSV0
-----END CERTIFICATE-----
Certificate:
    Data:
        Version: 3 (0x2)
        Serial Number:
            8b:4c:b1:62:18:73:5f:f0
        Signature Algorithm: ecdsa-with-SHA1
        Issuer: C=be, O=kunstmaan, OU=org, CN=org.kunstmaan.be
        Validity
            Not Before: Feb 27 17:00:09 2018 GMT
            Not After : Feb 25 17:00:09 2028 GMT
        Subject: C=be, O=kunstmaan, OU=org, CN=orderer.org.kunstmaan.be
        Subject Public Key Info:
            Public Key Algorithm: id-ecPublicKey
            EC Public Key:
                pub: 
                    04:41:e3:df:0d:17:d7:bb:48:2f:8c:d3:94:e2:58:
                    fe:ed:4e:e4:73:7f:ac:e4:83:79:57:0a:1e:c3:42:
                    6e:f3:b6:0c:cf:ba:38:08:5d:39:0a:e8:c3:5a:c9:
                    b4:79:f7:27:81:81:93:1c:fb:15:40:57:37:99:43:
                    49:cb:cc:61:b6
                ASN1 OID: prime256v1
        X509v3 extensions:
            1.2.3.4.5.6.7.8.1: 
                ..{"attrs":{}}
            X509v3 Authority Key Identifier: 
                keyid:89:9E:98:C2:9C:9A:BF:F0:F0:4E:93:13:CF:D9:90:22:10:CB:5F:FA

            X509v3 Basic Constraints: critical
                CA:FALSE
            X509v3 Subject Key Identifier: 
                53:F5:F9:C3:16:75:88:DF:B2:C7:A1:88:86:BC:05:38:D8:F8:19:C6
            X509v3 Key Usage: critical
                Digital Signature, Key Encipherment
            X509v3 Extended Key Usage: 
                TLS Web Server Authentication, TLS Web Client Authentication
    Signature Algorithm: ecdsa-with-SHA1
        30:44:02:20:10:c7:aa:3f:47:69:5f:2f:af:8e:cc:36:a4:85:
        7d:bf:b4:3f:d8:49:0c:0e:e4:51:8f:0d:82:e3:37:19:e4:85:
        02:20:6c:2a:5a:60:57:44:e7:04:71:0d:09:ac:30:61:af:37:
        13:d6:3e:ba:5a:80:78:d5:77:42:b5:8d:3e:da:27:9d
-----BEGIN CERTIFICATE-----
MIICLTCCAdWgAwIBAgIJAItMsWIYc1/wMAkGByqGSM49BAEwSjELMAkGA1UEBhMC
YmUxEjAQBgNVBAoMCWt1bnN0bWFhbjEMMAoGA1UECwwDb3JnMRkwFwYDVQQDDBBv
cmcua3Vuc3RtYWFuLmJlMB4XDTE4MDIyNzE3MDAwOVoXDTI4MDIyNTE3MDAwOVow
UjELMAkGA1UEBhMCYmUxEjAQBgNVBAoMCWt1bnN0bWFhbjEMMAoGA1UECwwDb3Jn
MSEwHwYDVQQDDBhvcmRlcmVyLm9yZy5rdW5zdG1hYW4uYmUwWTATBgcqhkjOPQIB
BggqhkjOPQMBBwNCAARB498NF9e7SC+M05TiWP7tTuRzf6zkg3lXCh7DQm7ztgzP
ujgIXTkK6MNaybR59yeBgZMc+xVAVzeZQ0nLzGG2o4GcMIGZMBoGCCoDBAUGBwgB
BA4MDHsiYXR0cnMiOnt9fTAfBgNVHSMEGDAWgBSJnpjCnJq/8PBOkxPP2ZAiEMtf
+jAMBgNVHRMBAf8EAjAAMB0GA1UdDgQWBBRT9fnDFnWI37LHoYiGvAU42PgZxjAO
BgNVHQ8BAf8EBAMCBaAwHQYDVR0lBBYwFAYIKwYBBQUHAwEGCCsGAQUFBwMCMAkG
ByqGSM49BAEDRwAwRAIgEMeqP0dpXy+vjsw2pIV9v7Q/2EkMDuRRjw2C4zcZ5IUC
IGwqWmBXROcEcQ0JrDBhrzcT1j66WoB41XdCtY0+2ied
-----END CERTIFICATE-----
