Certificate:
    Data:
        Version: 3 (0x2)
        Serial Number:
            8c:f3:2a:69:f6:86:62:ed
    Signature Algorithm: ecdsa-with-SHA256
        Issuer: CN=kunstmaan.be, OU=ca, C=be, O=kunstmaan
        Validity
            Not Before: Feb 28 10:12:52 2018 GMT
            Not After : Feb 23 10:12:52 2038 GMT
        Subject: CN=kunstmaan.be, OU=ca, C=be, O=kunstmaan
        Subject Public Key Info:
            Public Key Algorithm: id-ecPublicKey
                Public-Key: (256 bit)
                pub: 
                    04:02:a1:be:09:b2:3d:b5:b8:a4:79:79:63:d5:72:
                    83:db:4d:e7:0a:15:ac:b5:43:b5:58:48:2e:a4:b1:
                    bd:b5:b5:97:4b:ca:7a:73:bd:58:3f:d9:7b:12:8e:
                    1f:71:9f:1e:51:f9:5d:a1:fd:42:c3:4b:39:f3:34:
                    80:3f:f0:3e:b7
                ASN1 OID: prime256v1
                NIST CURVE: P-256
        X509v3 extensions:
            X509v3 Subject Key Identifier: 
                5B:94:1B:FA:3D:97:08:38:D0:52:B7:C6:20:15:62:CB:C6:D1:D3:5D
            X509v3 Basic Constraints: critical
                CA:TRUE
            X509v3 Key Usage: critical
                Digital Signature, Key Encipherment, Certificate Sign, CRL Sign
            X509v3 Extended Key Usage: 
                Any Extended Key Usage
    Signature Algorithm: ecdsa-with-SHA256
         30:46:02:21:00:af:95:be:b4:d4:61:50:70:9b:3e:27:7a:b9:
         84:48:af:f0:09:1a:eb:a4:4f:6c:fc:49:bd:d0:67:bb:cd:fb:
         34:02:21:00:e2:10:b6:83:fd:30:d8:65:19:73:54:b6:fb:48:
         90:d6:55:fc:c6:bf:4b:24:ae:62:fd:fc:7e:36:c0:78:b6:b9
-----BEGIN CERTIFICATE-----
MIIB1TCCAXqgAwIBAgIJAIzzKmn2hmLtMAoGCCqGSM49BAMCMEUxFTATBgNVBAMM
DGt1bnN0bWFhbi5iZTELMAkGA1UECwwCY2ExCzAJBgNVBAYTAmJlMRIwEAYDVQQK
DAlrdW5zdG1hYW4wHhcNMTgwMjI4MTAxMjUyWhcNMzgwMjIzMTAxMjUyWjBFMRUw
EwYDVQQDDAxrdW5zdG1hYW4uYmUxCzAJBgNVBAsMAmNhMQswCQYDVQQGEwJiZTES
MBAGA1UECgwJa3Vuc3RtYWFuMFkwEwYHKoZIzj0CAQYIKoZIzj0DAQcDQgAEAqG+
CbI9tbikeXlj1XKD203nChWstUO1WEgupLG9tbWXS8p6c71YP9l7Eo4fcZ8eUfld
of1Cw0s58zSAP/A+t6NTMFEwHQYDVR0OBBYEFFuUG/o9lwg40FK3xiAVYsvG0dNd
MA8GA1UdEwEB/wQFMAMBAf8wDgYDVR0PAQH/BAQDAgGmMA8GA1UdJQQIMAYGBFUd
JQAwCgYIKoZIzj0EAwIDSQAwRgIhAK+VvrTUYVBwmz4nermESK/wCRrrpE9s/Em9
0Ge7zfs0AiEA4hC2g/0w2GUZc1S2+0iQ1lX8xr9LJK5i/fx+NsB4trk=
-----END CERTIFICATE-----
Certificate:
    Data:
        Version: 3 (0x2)
        Serial Number:
            e3:94:5f:0a:d2:26:be:7c
    Signature Algorithm: ecdsa-with-SHA256
        Issuer: CN=kunstmaan.be, OU=ca, C=be, O=kunstmaan
        Validity
            Not Before: Feb 28 10:12:52 2018 GMT
            Not After : Feb 26 10:12:52 2028 GMT
        Subject: C=be, O=kunstmaan, OU=org, CN=org.kunstmaan.be
        Subject Public Key Info:
            Public Key Algorithm: id-ecPublicKey
                Public-Key: (256 bit)
                pub: 
                    04:43:a6:2d:cd:5f:fc:f0:66:e1:7e:60:f7:32:8b:
                    81:dc:dc:86:82:6b:f2:a9:d9:a9:a2:48:fb:8f:5e:
                    68:aa:41:b9:f5:28:c4:b0:1c:6a:5e:55:84:e1:89:
                    d1:43:9c:46:5c:22:e5:49:95:d3:22:1f:07:0b:1a:
                    13:f6:5b:7e:e4
                ASN1 OID: prime256v1
                NIST CURVE: P-256
        X509v3 extensions:
            1.2.3.4.5.6.7.8.1: 
                ..{"attrs":{}}
            X509v3 Authority Key Identifier: 
                keyid:5B:94:1B:FA:3D:97:08:38:D0:52:B7:C6:20:15:62:CB:C6:D1:D3:5D

            X509v3 Basic Constraints: critical
                CA:TRUE
            X509v3 Subject Key Identifier: 
                21:26:6E:CC:58:10:2E:BE:D2:15:53:E3:22:BE:F0:04:B7:E5:84:7E
            X509v3 Key Usage: critical
                Digital Signature, Key Encipherment, Certificate Sign, CRL Sign
            X509v3 Extended Key Usage: 
                TLS Web Server Authentication, TLS Web Client Authentication
    Signature Algorithm: ecdsa-with-SHA256
         30:46:02:21:00:f6:4c:49:06:22:a7:de:10:1e:71:fc:d7:c7:
         65:06:31:e4:55:5f:e2:f5:ba:f8:f5:d9:2a:8d:c2:d7:8e:bb:
         1e:02:21:00:b4:05:9f:fe:cb:04:88:f7:93:8e:be:82:0c:c8:
         4f:45:12:5f:bd:bb:be:2e:f4:9f:22:90:97:e2:84:25:5d:f1
-----BEGIN CERTIFICATE-----
MIICJzCCAcygAwIBAgIJAOOUXwrSJr58MAoGCCqGSM49BAMCMEUxFTATBgNVBAMM
DGt1bnN0bWFhbi5iZTELMAkGA1UECwwCY2ExCzAJBgNVBAYTAmJlMRIwEAYDVQQK
DAlrdW5zdG1hYW4wHhcNMTgwMjI4MTAxMjUyWhcNMjgwMjI2MTAxMjUyWjBKMQsw
CQYDVQQGEwJiZTESMBAGA1UECgwJa3Vuc3RtYWFuMQwwCgYDVQQLDANvcmcxGTAX
BgNVBAMMEG9yZy5rdW5zdG1hYW4uYmUwWTATBgcqhkjOPQIBBggqhkjOPQMBBwNC
AARDpi3NX/zwZuF+YPcyi4Hc3IaCa/Kp2amiSPuPXmiqQbn1KMSwHGpeVYThidFD
nEZcIuVJldMiHwcLGhP2W37ko4GfMIGcMBoGCCoDBAUGBwgBBA4MDHsiYXR0cnMi
Ont9fTAfBgNVHSMEGDAWgBRblBv6PZcIONBSt8YgFWLLxtHTXTAPBgNVHRMBAf8E
BTADAQH/MB0GA1UdDgQWBBQhJm7MWBAuvtIVU+MivvAEt+WEfjAOBgNVHQ8BAf8E
BAMCAaYwHQYDVR0lBBYwFAYIKwYBBQUHAwEGCCsGAQUFBwMCMAoGCCqGSM49BAMC
A0kAMEYCIQD2TEkGIqfeEB5x/NfHZQYx5FVf4vW6+PXZKo3C1467HgIhALQFn/7L
BIj3k46+ggzIT0USX727vi70nyKQl+KEJV3x
-----END CERTIFICATE-----
Certificate:
    Data:
        Version: 3 (0x2)
        Serial Number:
            cd:23:2a:10:b0:50:bf:aa
    Signature Algorithm: ecdsa-with-SHA256
        Issuer: C=be, O=kunstmaan, OU=org, CN=org.kunstmaan.be
        Validity
            Not Before: Feb 28 10:12:54 2018 GMT
            Not After : Feb 26 10:12:54 2028 GMT
        Subject: C=be, O=kunstmaan, OU=org, CN=orderer.org.kunstmaan.be
        Subject Public Key Info:
            Public Key Algorithm: id-ecPublicKey
                Public-Key: (256 bit)
                pub: 
                    04:39:d1:1c:0c:78:68:cf:ee:2d:8a:01:66:b1:09:
                    67:fe:df:c4:e3:64:a9:f0:55:3b:80:d5:43:06:f1:
                    cf:20:6d:6d:2a:93:aa:cd:be:70:f1:47:cb:e3:b8:
                    a7:62:79:0a:00:8e:52:58:16:77:11:0b:88:5c:42:
                    0f:03:9e:b7:85
                ASN1 OID: prime256v1
                NIST CURVE: P-256
        X509v3 extensions:
            1.2.3.4.5.6.7.8.1: 
                ..{"attrs":{}}
            X509v3 Authority Key Identifier: 
                keyid:21:26:6E:CC:58:10:2E:BE:D2:15:53:E3:22:BE:F0:04:B7:E5:84:7E

            X509v3 Basic Constraints: critical
                CA:FALSE
            X509v3 Subject Key Identifier: 
                5C:17:5F:EB:F9:03:FA:C6:46:77:F5:10:9E:B5:17:81:A8:50:47:58
            X509v3 Key Usage: critical
                Digital Signature, Key Encipherment
            X509v3 Extended Key Usage: 
                TLS Web Server Authentication, TLS Web Client Authentication
    Signature Algorithm: ecdsa-with-SHA256
         30:44:02:20:1c:42:ad:57:13:a7:1e:87:cc:8a:2d:39:76:96:
         08:59:77:de:fa:be:45:fd:31:fe:0e:58:6e:0e:cb:fc:3f:10:
         02:20:61:e6:d6:74:32:8e:4d:53:ce:d0:da:65:eb:c8:c1:b0:
         2a:63:2c:a8:11:37:5e:ea:14:84:1f:49:b9:93:12:b5
-----BEGIN CERTIFICATE-----
MIICLzCCAdagAwIBAgIJAM0jKhCwUL+qMAoGCCqGSM49BAMCMEoxCzAJBgNVBAYT
AmJlMRIwEAYDVQQKDAlrdW5zdG1hYW4xDDAKBgNVBAsMA29yZzEZMBcGA1UEAwwQ
b3JnLmt1bnN0bWFhbi5iZTAeFw0xODAyMjgxMDEyNTRaFw0yODAyMjYxMDEyNTRa
MFIxCzAJBgNVBAYTAmJlMRIwEAYDVQQKDAlrdW5zdG1hYW4xDDAKBgNVBAsMA29y
ZzEhMB8GA1UEAwwYb3JkZXJlci5vcmcua3Vuc3RtYWFuLmJlMFkwEwYHKoZIzj0C
AQYIKoZIzj0DAQcDQgAEOdEcDHhoz+4tigFmsQln/t/E42Sp8FU7gNVDBvHPIG1t
KpOqzb5w8UfL47inYnkKAI5SWBZ3EQuIXEIPA563haOBnDCBmTAaBggqAwQFBgcI
AQQODAx7ImF0dHJzIjp7fX0wHwYDVR0jBBgwFoAUISZuzFgQLr7SFVPjIr7wBLfl
hH4wDAYDVR0TAQH/BAIwADAdBgNVHQ4EFgQUXBdf6/kD+sZGd/UQnrUXgahQR1gw
DgYDVR0PAQH/BAQDAgWgMB0GA1UdJQQWMBQGCCsGAQUFBwMBBggrBgEFBQcDAjAK
BggqhkjOPQQDAgNHADBEAiAcQq1XE6ceh8yKLTl2lghZd976vkX9Mf4OWG4Oy/w/
EAIgYebWdDKOTVPO0Npl68jBsCpjLKgRN17qFIQfSbmTErU=
-----END CERTIFICATE-----
