Certificate:
    Data:
        Version: 3 (0x2)
        Serial Number:
            d5:d2:5d:c1:4b:05:6b:ec
    Signature Algorithm: ecdsa-with-SHA256
        Issuer: CN=kunstmaan.be, OU=ca, C=be, O=kunstmaan
        Validity
            Not Before: Feb 28 10:00:18 2018 GMT
            Not After : Feb 23 10:00:18 2038 GMT
        Subject: CN=kunstmaan.be, OU=ca, C=be, O=kunstmaan
        Subject Public Key Info:
            Public Key Algorithm: id-ecPublicKey
                Public-Key: (256 bit)
                pub: 
                    04:71:71:b5:92:68:ff:b5:77:76:c8:06:2c:dc:b8:
                    6f:ca:7f:b9:09:81:56:0d:3f:f7:01:09:7b:e0:4d:
                    20:e8:ac:a7:e2:f8:9e:b2:4f:3f:0f:89:df:bd:fb:
                    18:75:23:9c:b2:e3:5f:71:00:8f:af:4c:94:8d:b4:
                    fb:02:31:34:b0
                ASN1 OID: prime256v1
                NIST CURVE: P-256
        X509v3 extensions:
            X509v3 Subject Key Identifier: 
                FF:BF:2D:2F:F8:AB:7D:BE:D5:06:D2:71:53:11:5C:08:E0:74:58:1D
            X509v3 Basic Constraints: critical
                CA:TRUE
            X509v3 Key Usage: critical
                Digital Signature, Key Encipherment, Certificate Sign, CRL Sign
            X509v3 Extended Key Usage: 
                Any Extended Key Usage
    Signature Algorithm: ecdsa-with-SHA256
         30:45:02:20:7f:d1:b8:26:6b:86:b0:55:b9:aa:f5:55:c4:6d:
         97:c3:19:0a:1a:12:7c:75:74:46:a9:63:5b:91:e9:6b:ce:3a:
         02:21:00:f4:43:ac:15:02:b9:27:10:f9:9a:b2:e1:2b:ed:fd:
         64:03:e9:a4:87:90:c7:a7:a4:29:fd:62:27:38:6b:09:01
-----BEGIN CERTIFICATE-----
MIIB1DCCAXqgAwIBAgIJANXSXcFLBWvsMAoGCCqGSM49BAMCMEUxFTATBgNVBAMM
DGt1bnN0bWFhbi5iZTELMAkGA1UECwwCY2ExCzAJBgNVBAYTAmJlMRIwEAYDVQQK
DAlrdW5zdG1hYW4wHhcNMTgwMjI4MTAwMDE4WhcNMzgwMjIzMTAwMDE4WjBFMRUw
EwYDVQQDDAxrdW5zdG1hYW4uYmUxCzAJBgNVBAsMAmNhMQswCQYDVQQGEwJiZTES
MBAGA1UECgwJa3Vuc3RtYWFuMFkwEwYHKoZIzj0CAQYIKoZIzj0DAQcDQgAEcXG1
kmj/tXd2yAYs3Lhvyn+5CYFWDT/3AQl74E0g6Kyn4viesk8/D4nfvfsYdSOcsuNf
cQCPr0yUjbT7AjE0sKNTMFEwHQYDVR0OBBYEFP+/LS/4q32+1QbScVMRXAjgdFgd
MA8GA1UdEwEB/wQFMAMBAf8wDgYDVR0PAQH/BAQDAgGmMA8GA1UdJQQIMAYGBFUd
JQAwCgYIKoZIzj0EAwIDSAAwRQIgf9G4JmuGsFW5qvVVxG2XwxkKGhJ8dXRGqWNb
kelrzjoCIQD0Q6wVArknEPmasuEr7f1kA+mkh5DHp6Qp/WInOGsJAQ==
-----END CERTIFICATE-----
Certificate:
    Data:
        Version: 3 (0x2)
        Serial Number:
            e3:f6:7e:20:98:d5:c6:ff
    Signature Algorithm: ecdsa-with-SHA256
        Issuer: CN=kunstmaan.be, OU=ca, C=be, O=kunstmaan
        Validity
            Not Before: Feb 28 10:00:21 2018 GMT
            Not After : Feb 26 10:00:21 2028 GMT
        Subject: C=be, O=kunstmaan, OU=auth, CN=auth.kunstmaan.be
        Subject Public Key Info:
            Public Key Algorithm: id-ecPublicKey
                Public-Key: (256 bit)
                pub: 
                    04:5e:0a:5c:a1:90:a9:90:11:bf:86:02:9a:ce:5d:
                    c8:08:4c:76:59:3f:bb:3c:e6:60:f6:65:c9:31:c1:
                    4d:81:19:e2:ed:7d:2e:70:6b:f4:0b:7f:80:82:89:
                    d5:fc:90:a8:a0:ea:c5:13:49:9e:79:b6:ce:5e:4b:
                    e8:cc:47:9e:a0
                ASN1 OID: prime256v1
                NIST CURVE: P-256
        X509v3 extensions:
            1.2.3.4.5.6.7.8.1: 
                ..{"attrs":{}}
            X509v3 Authority Key Identifier: 
                keyid:FF:BF:2D:2F:F8:AB:7D:BE:D5:06:D2:71:53:11:5C:08:E0:74:58:1D

            X509v3 Basic Constraints: critical
                CA:TRUE
            X509v3 Subject Key Identifier: 
                4F:07:11:85:0F:5E:2C:C2:9E:49:87:6E:A2:7B:D6:CD:49:52:17:F9
            X509v3 Extended Key Usage: 
                Any Extended Key Usage
            X509v3 Key Usage: critical
                Digital Signature, Key Encipherment, Certificate Sign, CRL Sign
    Signature Algorithm: ecdsa-with-SHA256
         30:46:02:21:00:d6:20:f5:3b:28:4b:a5:51:17:4a:ee:ee:80:
         f3:5b:4a:e4:ca:52:ec:b5:7d:18:b1:ec:7e:23:bb:33:68:b5:
         61:02:21:00:9b:95:43:8c:ab:16:7f:26:17:89:ea:8d:aa:c8:
         81:a1:28:11:07:31:79:6d:8e:0c:1f:d1:66:4f:31:87:06:ae
-----BEGIN CERTIFICATE-----
MIICGzCCAcCgAwIBAgIJAOP2fiCY1cb/MAoGCCqGSM49BAMCMEUxFTATBgNVBAMM
DGt1bnN0bWFhbi5iZTELMAkGA1UECwwCY2ExCzAJBgNVBAYTAmJlMRIwEAYDVQQK
DAlrdW5zdG1hYW4wHhcNMTgwMjI4MTAwMDIxWhcNMjgwMjI2MTAwMDIxWjBMMQsw
CQYDVQQGEwJiZTESMBAGA1UECgwJa3Vuc3RtYWFuMQ0wCwYDVQQLDARhdXRoMRow
GAYDVQQDDBFhdXRoLmt1bnN0bWFhbi5iZTBZMBMGByqGSM49AgEGCCqGSM49AwEH
A0IABF4KXKGQqZARv4YCms5dyAhMdlk/uzzmYPZlyTHBTYEZ4u19LnBr9At/gIKJ
1fyQqKDqxRNJnnm2zl5L6MxHnqCjgZEwgY4wGgYIKgMEBQYHCAEEDgwMeyJhdHRy
cyI6e319MB8GA1UdIwQYMBaAFP+/LS/4q32+1QbScVMRXAjgdFgdMA8GA1UdEwEB
/wQFMAMBAf8wHQYDVR0OBBYEFE8HEYUPXizCnkmHbqJ71s1JUhf5MA8GA1UdJQQI
MAYGBFUdJQAwDgYDVR0PAQH/BAQDAgGmMAoGCCqGSM49BAMCA0kAMEYCIQDWIPU7
KEulURdK7u6A81tK5MpS7LV9GLHsfiO7M2i1YQIhAJuVQ4yrFn8mF4nqjarIgaEo
EQcxeW2ODB/RZk8xhwau
-----END CERTIFICATE-----
Certificate:
    Data:
        Version: 3 (0x2)
        Serial Number:
            ab:22:e7:9a:36:bc:d5:59
    Signature Algorithm: ecdsa-with-SHA256
        Issuer: C=be, O=kunstmaan, OU=auth, CN=auth.kunstmaan.be
        Validity
            Not Before: Feb 28 10:00:23 2018 GMT
            Not After : Feb 26 10:00:23 2028 GMT
        Subject: C=be, O=kunstmaan, OU=auth, CN=user-2.auth.kunstmaan.be
        Subject Public Key Info:
            Public Key Algorithm: id-ecPublicKey
                Public-Key: (256 bit)
                pub: 
                    04:47:19:d3:79:3f:0d:b9:4f:80:bf:d7:93:81:7c:
                    44:c2:80:68:e1:90:0c:65:c4:1b:a4:a4:8c:95:1b:
                    69:d8:1e:23:ea:6e:6e:d9:ee:84:61:ef:e0:bd:03:
                    b9:e4:45:f4:c8:e0:c9:f3:76:ea:e9:cc:cc:8e:d2:
                    ef:bf:37:cd:cf
                ASN1 OID: prime256v1
                NIST CURVE: P-256
        X509v3 extensions:
            1.2.3.4.5.6.7.8.1: 
                ..{"attrs":{"Name":"user-2"}}
            X509v3 Authority Key Identifier: 
                keyid:4F:07:11:85:0F:5E:2C:C2:9E:49:87:6E:A2:7B:D6:CD:49:52:17:F9

            X509v3 Basic Constraints: critical
                CA:FALSE
            X509v3 Subject Key Identifier: 
                87:2C:45:E2:7B:44:C5:12:6B:02:A1:28:A6:9B:46:19:F4:2D:B6:B2
            X509v3 Key Usage: critical
                Digital Signature
    Signature Algorithm: ecdsa-with-SHA256
         30:45:02:21:00:f5:d0:29:27:b6:a6:4d:55:6d:aa:1c:51:f3:
         40:57:da:ab:46:cd:4f:aa:1e:60:89:31:8c:46:ce:f3:74:ba:
         59:02:20:70:fd:df:7f:d1:08:fd:08:45:8b:96:d8:45:7e:e4:
         e3:7b:bd:8e:65:f2:5c:51:ed:6d:56:13:85:21:30:b2:a3
-----BEGIN CERTIFICATE-----
MIICIzCCAcmgAwIBAgIJAKsi55o2vNVZMAoGCCqGSM49BAMCMEwxCzAJBgNVBAYT
AmJlMRIwEAYDVQQKDAlrdW5zdG1hYW4xDTALBgNVBAsMBGF1dGgxGjAYBgNVBAMM
EWF1dGgua3Vuc3RtYWFuLmJlMB4XDTE4MDIyODEwMDAyM1oXDTI4MDIyNjEwMDAy
M1owUzELMAkGA1UEBhMCYmUxEjAQBgNVBAoMCWt1bnN0bWFhbjENMAsGA1UECwwE
YXV0aDEhMB8GA1UEAwwYdXNlci0yLmF1dGgua3Vuc3RtYWFuLmJlMFkwEwYHKoZI
zj0CAQYIKoZIzj0DAQcDQgAERxnTeT8NuU+Av9eTgXxEwoBo4ZAMZcQbpKSMlRtp
2B4j6m5u2e6EYe/gvQO55EX0yODJ83bq6czMjtLvvzfNz6OBjDCBiTApBggqAwQF
BgcIAQQdDBt7ImF0dHJzIjp7Ik5hbWUiOiJ1c2VyLTIifX0wHwYDVR0jBBgwFoAU
TwcRhQ9eLMKeSYduonvWzUlSF/kwDAYDVR0TAQH/BAIwADAdBgNVHQ4EFgQUhyxF
4ntExRJrAqEopptGGfQttrIwDgYDVR0PAQH/BAQDAgeAMAoGCCqGSM49BAMCA0gA
MEUCIQD10CkntqZNVW2qHFHzQFfaq0bNT6oeYIkxjEbO83S6WQIgcP3ff9EI/QhF
i5bYRX7k43u9jmXyXFHtbVYThSEwsqM=
-----END CERTIFICATE-----
