Certificate:
    Data:
        Version: 3 (0x2)
        Serial Number:
            8c:f3:2a:69:f6:86:62:ed
    Signature Algorithm: ecdsa-with-SHA256
        Issuer: CN=kunstmaan.be, OU=ca, C=be, O=kunstmaan
        Validity
            Not Before: Feb 28 10:12:52 2018 GMT
            Not After : Feb 23 10:12:52 2038 GMT
        Subject: CN=kunstmaan.be, OU=ca, C=be, O=kunstmaan
        Subject Public Key Info:
            Public Key Algorithm: id-ecPublicKey
                Public-Key: (256 bit)
                pub: 
                    04:02:a1:be:09:b2:3d:b5:b8:a4:79:79:63:d5:72:
                    83:db:4d:e7:0a:15:ac:b5:43:b5:58:48:2e:a4:b1:
                    bd:b5:b5:97:4b:ca:7a:73:bd:58:3f:d9:7b:12:8e:
                    1f:71:9f:1e:51:f9:5d:a1:fd:42:c3:4b:39:f3:34:
                    80:3f:f0:3e:b7
                ASN1 OID: prime256v1
                NIST CURVE: P-256
        X509v3 extensions:
            X509v3 Subject Key Identifier: 
                5B:94:1B:FA:3D:97:08:38:D0:52:B7:C6:20:15:62:CB:C6:D1:D3:5D
            X509v3 Basic Constraints: critical
                CA:TRUE
            X509v3 Key Usage: critical
                Digital Signature, Key Encipherment, Certificate Sign, CRL Sign
            X509v3 Extended Key Usage: 
                Any Extended Key Usage
    Signature Algorithm: ecdsa-with-SHA256
         30:46:02:21:00:af:95:be:b4:d4:61:50:70:9b:3e:27:7a:b9:
         84:48:af:f0:09:1a:eb:a4:4f:6c:fc:49:bd:d0:67:bb:cd:fb:
         34:02:21:00:e2:10:b6:83:fd:30:d8:65:19:73:54:b6:fb:48:
         90:d6:55:fc:c6:bf:4b:24:ae:62:fd:fc:7e:36:c0:78:b6:b9
-----BEGIN CERTIFICATE-----
MIIB1TCCAXqgAwIBAgIJAIzzKmn2hmLtMAoGCCqGSM49BAMCMEUxFTATBgNVBAMM
DGt1bnN0bWFhbi5iZTELMAkGA1UECwwCY2ExCzAJBgNVBAYTAmJlMRIwEAYDVQQK
DAlrdW5zdG1hYW4wHhcNMTgwMjI4MTAxMjUyWhcNMzgwMjIzMTAxMjUyWjBFMRUw
EwYDVQQDDAxrdW5zdG1hYW4uYmUxCzAJBgNVBAsMAmNhMQswCQYDVQQGEwJiZTES
MBAGA1UECgwJa3Vuc3RtYWFuMFkwEwYHKoZIzj0CAQYIKoZIzj0DAQcDQgAEAqG+
CbI9tbikeXlj1XKD203nChWstUO1WEgupLG9tbWXS8p6c71YP9l7Eo4fcZ8eUfld
of1Cw0s58zSAP/A+t6NTMFEwHQYDVR0OBBYEFFuUG/o9lwg40FK3xiAVYsvG0dNd
MA8GA1UdEwEB/wQFMAMBAf8wDgYDVR0PAQH/BAQDAgGmMA8GA1UdJQQIMAYGBFUd
JQAwCgYIKoZIzj0EAwIDSQAwRgIhAK+VvrTUYVBwmz4nermESK/wCRrrpE9s/Em9
0Ge7zfs0AiEA4hC2g/0w2GUZc1S2+0iQ1lX8xr9LJK5i/fx+NsB4trk=
-----END CERTIFICATE-----
Certificate:
    Data:
        Version: 3 (0x2)
        Serial Number:
            c8:e5:ce:9b:f1:2f:c4:d0
    Signature Algorithm: ecdsa-with-SHA256
        Issuer: CN=kunstmaan.be, OU=ca, C=be, O=kunstmaan
        Validity
            Not Before: Feb 28 10:12:55 2018 GMT
            Not After : Feb 26 10:12:55 2028 GMT
        Subject: C=be, O=kunstmaan, OU=auth, CN=auth.kunstmaan.be
        Subject Public Key Info:
            Public Key Algorithm: id-ecPublicKey
                Public-Key: (256 bit)
                pub: 
                    04:eb:8e:e3:3a:57:6b:8f:3d:f2:1d:f8:87:f2:dd:
                    0f:4f:48:ff:71:d5:56:b0:81:88:22:bb:6b:0b:f6:
                    46:37:2b:24:7c:7c:15:69:79:37:4b:1b:06:82:ce:
                    bb:92:0b:b4:18:0b:3e:e3:88:25:f4:65:c5:69:2f:
                    9b:4f:7a:fd:eb
                ASN1 OID: prime256v1
                NIST CURVE: P-256
        X509v3 extensions:
            1.2.3.4.5.6.7.8.1: 
                ..{"attrs":{}}
            X509v3 Authority Key Identifier: 
                keyid:5B:94:1B:FA:3D:97:08:38:D0:52:B7:C6:20:15:62:CB:C6:D1:D3:5D

            X509v3 Basic Constraints: critical
                CA:TRUE
            X509v3 Subject Key Identifier: 
                4E:7E:C4:68:4C:C2:7D:5B:D1:C7:FF:CE:FE:D6:5C:43:51:95:B0:A9
            X509v3 Extended Key Usage: 
                Any Extended Key Usage
            X509v3 Key Usage: critical
                Digital Signature, Key Encipherment, Certificate Sign, CRL Sign
    Signature Algorithm: ecdsa-with-SHA256
         30:46:02:21:00:9a:7f:ca:3e:7c:07:d4:3e:9b:5c:8c:86:89:
         e2:5c:9b:a8:2c:b0:77:2b:10:88:50:77:f0:e4:17:fa:14:f5:
         2e:02:21:00:ec:ea:b7:a4:c3:e2:46:18:be:7a:f4:d7:3b:5b:
         02:9e:c5:94:4b:50:c2:4b:98:5d:44:21:50:c1:04:99:29:f0
-----BEGIN CERTIFICATE-----
MIICGzCCAcCgAwIBAgIJAMjlzpvxL8TQMAoGCCqGSM49BAMCMEUxFTATBgNVBAMM
DGt1bnN0bWFhbi5iZTELMAkGA1UECwwCY2ExCzAJBgNVBAYTAmJlMRIwEAYDVQQK
DAlrdW5zdG1hYW4wHhcNMTgwMjI4MTAxMjU1WhcNMjgwMjI2MTAxMjU1WjBMMQsw
CQYDVQQGEwJiZTESMBAGA1UECgwJa3Vuc3RtYWFuMQ0wCwYDVQQLDARhdXRoMRow
GAYDVQQDDBFhdXRoLmt1bnN0bWFhbi5iZTBZMBMGByqGSM49AgEGCCqGSM49AwEH
A0IABOuO4zpXa4898h34h/LdD09I/3HVVrCBiCK7awv2RjcrJHx8FWl5N0sbBoLO
u5ILtBgLPuOIJfRlxWkvm096/eujgZEwgY4wGgYIKgMEBQYHCAEEDgwMeyJhdHRy
cyI6e319MB8GA1UdIwQYMBaAFFuUG/o9lwg40FK3xiAVYsvG0dNdMA8GA1UdEwEB
/wQFMAMBAf8wHQYDVR0OBBYEFE5+xGhMwn1b0cf/zv7WXENRlbCpMA8GA1UdJQQI
MAYGBFUdJQAwDgYDVR0PAQH/BAQDAgGmMAoGCCqGSM49BAMCA0kAMEYCIQCaf8o+
fAfUPptcjIaJ4lybqCywdysQiFB38OQX+hT1LgIhAOzqt6TD4kYYvnr01ztbAp7F
lEtQwkuYXUQhUMEEmSnw
-----END CERTIFICATE-----
Certificate:
    Data:
        Version: 3 (0x2)
        Serial Number:
            bf:b2:62:26:e6:87:a3:10
    Signature Algorithm: ecdsa-with-SHA256
        Issuer: C=be, O=kunstmaan, OU=auth, CN=auth.kunstmaan.be
        Validity
            Not Before: Feb 28 10:12:57 2018 GMT
            Not After : Feb 26 10:12:57 2028 GMT
        Subject: C=be, O=kunstmaan, OU=auth, CN=user-2.auth.kunstmaan.be
        Subject Public Key Info:
            Public Key Algorithm: id-ecPublicKey
                Public-Key: (256 bit)
                pub: 
                    04:ec:c8:25:b8:b2:69:7c:81:80:83:3e:37:d6:c2:
                    f2:6d:b7:d1:9f:60:a5:20:57:ea:ee:0d:17:c1:2c:
                    c4:50:76:3e:2f:f3:5c:ea:5a:66:e9:57:a7:c0:76:
                    7a:27:41:c0:5c:7b:f4:a4:ea:b6:23:04:3f:cf:b7:
                    22:39:89:fa:cd
                ASN1 OID: prime256v1
                NIST CURVE: P-256
        X509v3 extensions:
            1.2.3.4.5.6.7.8.1: 
                ..{"attrs":{"Name":"user-2"}}
            X509v3 Authority Key Identifier: 
                keyid:4E:7E:C4:68:4C:C2:7D:5B:D1:C7:FF:CE:FE:D6:5C:43:51:95:B0:A9

            X509v3 Basic Constraints: critical
                CA:FALSE
            X509v3 Subject Key Identifier: 
                98:22:D6:9C:8A:41:02:06:0D:C0:C4:31:B3:11:56:17:D0:CB:CE:52
            X509v3 Key Usage: critical
                Digital Signature
    Signature Algorithm: ecdsa-with-SHA256
         30:44:02:20:34:de:12:1b:2a:f7:85:af:18:19:5f:7c:0a:7e:
         64:32:aa:39:35:2b:a8:1c:b4:8d:31:77:b8:92:d7:03:11:e6:
         02:20:09:86:d0:18:0e:ac:4d:09:58:50:b5:f9:4b:aa:e6:13:
         1a:4e:7d:bb:e2:6c:9c:58:49:62:13:bb:d8:89:b1:83
-----BEGIN CERTIFICATE-----
MIICIjCCAcmgAwIBAgIJAL+yYibmh6MQMAoGCCqGSM49BAMCMEwxCzAJBgNVBAYT
AmJlMRIwEAYDVQQKDAlrdW5zdG1hYW4xDTALBgNVBAsMBGF1dGgxGjAYBgNVBAMM
EWF1dGgua3Vuc3RtYWFuLmJlMB4XDTE4MDIyODEwMTI1N1oXDTI4MDIyNjEwMTI1
N1owUzELMAkGA1UEBhMCYmUxEjAQBgNVBAoMCWt1bnN0bWFhbjENMAsGA1UECwwE
YXV0aDEhMB8GA1UEAwwYdXNlci0yLmF1dGgua3Vuc3RtYWFuLmJlMFkwEwYHKoZI
zj0CAQYIKoZIzj0DAQcDQgAE7MgluLJpfIGAgz431sLybbfRn2ClIFfq7g0XwSzE
UHY+L/Nc6lpm6VenwHZ6J0HAXHv0pOq2IwQ/z7ciOYn6zaOBjDCBiTApBggqAwQF
BgcIAQQdDBt7ImF0dHJzIjp7Ik5hbWUiOiJ1c2VyLTIifX0wHwYDVR0jBBgwFoAU
Tn7EaEzCfVvRx//O/tZcQ1GVsKkwDAYDVR0TAQH/BAIwADAdBgNVHQ4EFgQUmCLW
nIpBAgYNwMQxsxFWF9DLzlIwDgYDVR0PAQH/BAQDAgeAMAoGCCqGSM49BAMCA0cA
MEQCIDTeEhsq94WvGBlffAp+ZDKqOTUrqBy0jTF3uJLXAxHmAiAJhtAYDqxNCVhQ
tflLquYTGk59u+JsnFhJYhO72Imxgw==
-----END CERTIFICATE-----
