Certificate:
    Data:
        Version: 3 (0x2)
        Serial Number:
            d5:d2:5d:c1:4b:05:6b:ec
    Signature Algorithm: ecdsa-with-SHA256
        Issuer: CN=kunstmaan.be, OU=ca, C=be, O=kunstmaan
        Validity
            Not Before: Feb 28 10:00:18 2018 GMT
            Not After : Feb 23 10:00:18 2038 GMT
        Subject: CN=kunstmaan.be, OU=ca, C=be, O=kunstmaan
        Subject Public Key Info:
            Public Key Algorithm: id-ecPublicKey
                Public-Key: (256 bit)
                pub: 
                    04:71:71:b5:92:68:ff:b5:77:76:c8:06:2c:dc:b8:
                    6f:ca:7f:b9:09:81:56:0d:3f:f7:01:09:7b:e0:4d:
                    20:e8:ac:a7:e2:f8:9e:b2:4f:3f:0f:89:df:bd:fb:
                    18:75:23:9c:b2:e3:5f:71:00:8f:af:4c:94:8d:b4:
                    fb:02:31:34:b0
                ASN1 OID: prime256v1
                NIST CURVE: P-256
        X509v3 extensions:
            X509v3 Subject Key Identifier: 
                FF:BF:2D:2F:F8:AB:7D:BE:D5:06:D2:71:53:11:5C:08:E0:74:58:1D
            X509v3 Basic Constraints: critical
                CA:TRUE
            X509v3 Key Usage: critical
                Digital Signature, Key Encipherment, Certificate Sign, CRL Sign
            X509v3 Extended Key Usage: 
                Any Extended Key Usage
    Signature Algorithm: ecdsa-with-SHA256
         30:45:02:20:7f:d1:b8:26:6b:86:b0:55:b9:aa:f5:55:c4:6d:
         97:c3:19:0a:1a:12:7c:75:74:46:a9:63:5b:91:e9:6b:ce:3a:
         02:21:00:f4:43:ac:15:02:b9:27:10:f9:9a:b2:e1:2b:ed:fd:
         64:03:e9:a4:87:90:c7:a7:a4:29:fd:62:27:38:6b:09:01
-----BEGIN CERTIFICATE-----
MIIB1DCCAXqgAwIBAgIJANXSXcFLBWvsMAoGCCqGSM49BAMCMEUxFTATBgNVBAMM
DGt1bnN0bWFhbi5iZTELMAkGA1UECwwCY2ExCzAJBgNVBAYTAmJlMRIwEAYDVQQK
DAlrdW5zdG1hYW4wHhcNMTgwMjI4MTAwMDE4WhcNMzgwMjIzMTAwMDE4WjBFMRUw
EwYDVQQDDAxrdW5zdG1hYW4uYmUxCzAJBgNVBAsMAmNhMQswCQYDVQQGEwJiZTES
MBAGA1UECgwJa3Vuc3RtYWFuMFkwEwYHKoZIzj0CAQYIKoZIzj0DAQcDQgAEcXG1
kmj/tXd2yAYs3Lhvyn+5CYFWDT/3AQl74E0g6Kyn4viesk8/D4nfvfsYdSOcsuNf
cQCPr0yUjbT7AjE0sKNTMFEwHQYDVR0OBBYEFP+/LS/4q32+1QbScVMRXAjgdFgd
MA8GA1UdEwEB/wQFMAMBAf8wDgYDVR0PAQH/BAQDAgGmMA8GA1UdJQQIMAYGBFUd
JQAwCgYIKoZIzj0EAwIDSAAwRQIgf9G4JmuGsFW5qvVVxG2XwxkKGhJ8dXRGqWNb
kelrzjoCIQD0Q6wVArknEPmasuEr7f1kA+mkh5DHp6Qp/WInOGsJAQ==
-----END CERTIFICATE-----
Certificate:
    Data:
        Version: 3 (0x2)
        Serial Number:
            d8:a4:94:de:8b:47:c3:3b
    Signature Algorithm: ecdsa-with-SHA256
        Issuer: CN=kunstmaan.be, OU=ca, C=be, O=kunstmaan
        Validity
            Not Before: Feb 28 10:00:21 2018 GMT
            Not After : Feb 26 10:00:21 2028 GMT
        Subject: C=be, O=kunstmaan, OU=auth, CN=auth.kunstmaan.be
        Subject Public Key Info:
            Public Key Algorithm: id-ecPublicKey
                Public-Key: (256 bit)
                pub: 
                    04:fa:24:71:15:0d:2e:48:d6:7d:79:03:c0:be:08:
                    be:59:c1:f5:c9:ea:69:59:f6:e2:22:b9:59:8d:ec:
                    da:61:cc:75:ad:d3:28:81:f1:6c:ad:e4:aa:9b:fc:
                    31:cc:3e:22:99:8f:b4:86:b0:5f:d5:81:46:42:0b:
                    1c:97:35:3b:d7
                ASN1 OID: prime256v1
                NIST CURVE: P-256
        X509v3 extensions:
            1.2.3.4.5.6.7.8.1: 
                ..{"attrs":{}}
            X509v3 Authority Key Identifier: 
                keyid:FF:BF:2D:2F:F8:AB:7D:BE:D5:06:D2:71:53:11:5C:08:E0:74:58:1D

            X509v3 Basic Constraints: critical
                CA:TRUE
            X509v3 Subject Key Identifier: 
                1C:18:8D:F4:04:3A:E9:E5:E6:E1:BD:36:5D:40:98:41:20:AC:6D:FD
            X509v3 Key Usage: critical
                Digital Signature, Key Encipherment, Certificate Sign, CRL Sign
            X509v3 Extended Key Usage: 
                TLS Web Server Authentication, TLS Web Client Authentication
    Signature Algorithm: ecdsa-with-SHA256
         30:44:02:20:03:24:9c:c2:c8:1b:ac:12:71:24:32:fe:b7:32:
         7e:be:bd:43:d4:8e:13:3b:67:f0:6a:e1:16:80:79:ff:fb:b6:
         02:20:1f:b8:98:f5:06:b5:88:48:fd:22:d4:2e:06:ab:e1:f9:
         f7:11:c0:d2:86:02:1f:b2:8b:f1:8f:81:96:9d:14:ca
-----BEGIN CERTIFICATE-----
MIICJzCCAc6gAwIBAgIJANiklN6LR8M7MAoGCCqGSM49BAMCMEUxFTATBgNVBAMM
DGt1bnN0bWFhbi5iZTELMAkGA1UECwwCY2ExCzAJBgNVBAYTAmJlMRIwEAYDVQQK
DAlrdW5zdG1hYW4wHhcNMTgwMjI4MTAwMDIxWhcNMjgwMjI2MTAwMDIxWjBMMQsw
CQYDVQQGEwJiZTESMBAGA1UECgwJa3Vuc3RtYWFuMQ0wCwYDVQQLDARhdXRoMRow
GAYDVQQDDBFhdXRoLmt1bnN0bWFhbi5iZTBZMBMGByqGSM49AgEGCCqGSM49AwEH
A0IABPokcRUNLkjWfXkDwL4IvlnB9cnqaVn24iK5WY3s2mHMda3TKIHxbK3kqpv8
Mcw+IpmPtIawX9WBRkILHJc1O9ejgZ8wgZwwGgYIKgMEBQYHCAEEDgwMeyJhdHRy
cyI6e319MB8GA1UdIwQYMBaAFP+/LS/4q32+1QbScVMRXAjgdFgdMA8GA1UdEwEB
/wQFMAMBAf8wHQYDVR0OBBYEFBwYjfQEOunl5uG9Nl1AmEEgrG39MA4GA1UdDwEB
/wQEAwIBpjAdBgNVHSUEFjAUBggrBgEFBQcDAQYIKwYBBQUHAwIwCgYIKoZIzj0E
AwIDRwAwRAIgAyScwsgbrBJxJDL+tzJ+vr1D1I4TO2fwauEWgHn/+7YCIB+4mPUG
tYhI/SLULgar4fn3EcDShgIfsovxj4GWnRTK
-----END CERTIFICATE-----
Certificate:
    Data:
        Version: 3 (0x2)
        Serial Number:
            b0:18:9b:1e:c9:c7:63:b1
    Signature Algorithm: ecdsa-with-SHA256
        Issuer: C=be, O=kunstmaan, OU=auth, CN=auth.kunstmaan.be
        Validity
            Not Before: Feb 28 10:00:23 2018 GMT
            Not After : Feb 26 10:00:23 2028 GMT
        Subject: C=be, O=kunstmaan, OU=auth, CN=user-2.auth.kunstmaan.be
        Subject Public Key Info:
            Public Key Algorithm: id-ecPublicKey
                Public-Key: (256 bit)
                pub: 
                    04:82:ab:fd:a7:a4:99:74:2b:89:15:b7:f2:c5:aa:
                    d8:11:1f:21:61:bf:9d:fb:1d:94:69:eb:a3:ae:08:
                    0f:e5:a7:45:52:04:d3:ee:3f:da:c7:82:37:97:91:
                    b4:f6:0d:c2:88:eb:3d:c1:0b:33:cd:6e:73:f9:65:
                    61:e0:f2:3e:3c
                ASN1 OID: prime256v1
                NIST CURVE: P-256
        X509v3 extensions:
            1.2.3.4.5.6.7.8.1: 
                ..{"attrs":{"Name":"user-2"}}
            X509v3 Authority Key Identifier: 
                keyid:1C:18:8D:F4:04:3A:E9:E5:E6:E1:BD:36:5D:40:98:41:20:AC:6D:FD

            X509v3 Basic Constraints: critical
                CA:FALSE
            X509v3 Subject Key Identifier: 
                61:0E:C5:BC:E7:14:4F:7B:92:45:9B:3A:8A:D9:29:BC:60:30:3F:E4
            X509v3 Key Usage: critical
                Digital Signature, Key Encipherment
            X509v3 Extended Key Usage: 
                TLS Web Server Authentication, TLS Web Client Authentication
    Signature Algorithm: ecdsa-with-SHA256
         30:45:02:20:02:6a:31:01:e8:c2:4d:7e:02:cc:cd:cd:54:89:
         0a:c3:11:54:b8:a9:ce:c6:cb:49:08:f3:3f:ce:56:a2:f0:51:
         02:21:00:a2:2a:36:f0:0e:a1:82:95:62:24:df:83:14:ba:47:
         e4:f6:eb:77:bb:c5:a3:c5:94:34:36:dd:90:e4:65:cd:0b
-----BEGIN CERTIFICATE-----
MIICQjCCAeigAwIBAgIJALAYmx7Jx2OxMAoGCCqGSM49BAMCMEwxCzAJBgNVBAYT
AmJlMRIwEAYDVQQKDAlrdW5zdG1hYW4xDTALBgNVBAsMBGF1dGgxGjAYBgNVBAMM
EWF1dGgua3Vuc3RtYWFuLmJlMB4XDTE4MDIyODEwMDAyM1oXDTI4MDIyNjEwMDAy
M1owUzELMAkGA1UEBhMCYmUxEjAQBgNVBAoMCWt1bnN0bWFhbjENMAsGA1UECwwE
YXV0aDEhMB8GA1UEAwwYdXNlci0yLmF1dGgua3Vuc3RtYWFuLmJlMFkwEwYHKoZI
zj0CAQYIKoZIzj0DAQcDQgAEgqv9p6SZdCuJFbfyxarYER8hYb+d+x2UaeujrggP
5adFUgTT7j/ax4I3l5G09g3CiOs9wQszzW5z+WVh4PI+PKOBqzCBqDApBggqAwQF
BgcIAQQdDBt7ImF0dHJzIjp7Ik5hbWUiOiJ1c2VyLTIifX0wHwYDVR0jBBgwFoAU
HBiN9AQ66eXm4b02XUCYQSCsbf0wDAYDVR0TAQH/BAIwADAdBgNVHQ4EFgQUYQ7F
vOcUT3uSRZs6itkpvGAwP+QwDgYDVR0PAQH/BAQDAgWgMB0GA1UdJQQWMBQGCCsG
AQUFBwMBBggrBgEFBQcDAjAKBggqhkjOPQQDAgNIADBFAiACajEB6MJNfgLMzc1U
iQrDEVS4qc7Gy0kI8z/OVqLwUQIhAKIqNvAOoYKVYiTfgxS6R+T263e7xaPFlDQ2
3ZDkZc0L
-----END CERTIFICATE-----
