Certificate:
    Data:
        Version: 3 (0x2)
        Serial Number:
            89:5c:9d:4e:d7:73:af:25
    Signature Algorithm: ecdsa-with-SHA256
        Issuer: C=be, O=kunstmaan, OU=auth, CN=auth.kunstmaan.be
        Validity
            Not Before: Feb 28 10:00:24 2018 GMT
            Not After : Feb 26 10:00:24 2028 GMT
        Subject: C=be, O=kunstmaan, OU=auth, CN=user-3.auth.kunstmaan.be
        Subject Public Key Info:
            Public Key Algorithm: id-ecPublicKey
                Public-Key: (256 bit)
                pub: 
                    04:b7:e9:67:10:0a:f0:2d:3b:ff:29:7b:1d:d3:d6:
                    0b:70:b8:95:57:c7:26:6c:cf:ee:e4:d8:ce:45:d9:
                    e4:a6:22:d3:70:0b:b0:e0:2d:5b:d7:84:d2:dc:15:
                    0c:1d:93:d5:c0:f3:e0:c2:0e:73:bf:f6:4a:f3:90:
                    9f:23:51:29:37
                ASN1 OID: prime256v1
                NIST CURVE: P-256
        X509v3 extensions:
            1.2.3.4.5.6.7.8.1: 
                ..{"attrs":{"Name":"user-3"}}
            X509v3 Authority Key Identifier: 
                keyid:4F:07:11:85:0F:5E:2C:C2:9E:49:87:6E:A2:7B:D6:CD:49:52:17:F9

            X509v3 Basic Constraints: critical
                CA:FALSE
            X509v3 Subject Key Identifier: 
                B6:02:AB:6F:35:AD:78:7E:E7:41:3B:D6:1A:09:A6:FD:C3:71:16:62
            X509v3 Key Usage: critical
                Digital Signature
    Signature Algorithm: ecdsa-with-SHA256
         30:45:02:21:00:e0:d6:24:8e:b5:a3:21:15:8b:9b:ef:b8:a9:
         47:04:82:fe:16:f2:6d:d8:a8:0c:54:84:17:67:27:1f:d6:a6:
         50:02:20:65:dd:63:5c:34:14:fb:8c:a7:8e:b3:c5:5d:63:96:
         50:85:ac:a8:4d:9e:be:fd:cb:81:11:2a:32:ce:2c:93:43
-----BEGIN CERTIFICATE-----
MIICIzCCAcmgAwIBAgIJAIlcnU7Xc68lMAoGCCqGSM49BAMCMEwxCzAJBgNVBAYT
AmJlMRIwEAYDVQQKDAlrdW5zdG1hYW4xDTALBgNVBAsMBGF1dGgxGjAYBgNVBAMM
EWF1dGgua3Vuc3RtYWFuLmJlMB4XDTE4MDIyODEwMDAyNFoXDTI4MDIyNjEwMDAy
NFowUzELMAkGA1UEBhMCYmUxEjAQBgNVBAoMCWt1bnN0bWFhbjENMAsGA1UECwwE
YXV0aDEhMB8GA1UEAwwYdXNlci0zLmF1dGgua3Vuc3RtYWFuLmJlMFkwEwYHKoZI
zj0CAQYIKoZIzj0DAQcDQgAEt+lnEArwLTv/KXsd09YLcLiVV8cmbM/u5NjORdnk
piLTcAuw4C1b14TS3BUMHZPVwPPgwg5zv/ZK85CfI1EpN6OBjDCBiTApBggqAwQF
BgcIAQQdDBt7ImF0dHJzIjp7Ik5hbWUiOiJ1c2VyLTMifX0wHwYDVR0jBBgwFoAU
TwcRhQ9eLMKeSYduonvWzUlSF/kwDAYDVR0TAQH/BAIwADAdBgNVHQ4EFgQUtgKr
bzWteH7nQTvWGgmm/cNxFmIwDgYDVR0PAQH/BAQDAgeAMAoGCCqGSM49BAMCA0gA
MEUCIQDg1iSOtaMhFYub77ipRwSC/hbybdioDFSEF2cnH9amUAIgZd1jXDQU+4yn
jrPFXWOWUIWsqE2evv3LgREqMs4sk0M=
-----END CERTIFICATE-----
