Certificate:
    Data:
        Version: 3 (0x2)
        Serial Number:
            a3:47:5d:20:fa:05:18:75
    Signature Algorithm: ecdsa-with-SHA256
        Issuer: C=be, O=kunstmaan, OU=auth, CN=auth.kunstmaan.be
        Validity
            Not Before: Feb 28 10:12:58 2018 GMT
            Not After : Feb 26 10:12:58 2028 GMT
        Subject: C=be, O=kunstmaan, OU=auth, CN=user-3.auth.kunstmaan.be
        Subject Public Key Info:
            Public Key Algorithm: id-ecPublicKey
                Public-Key: (256 bit)
                pub: 
                    04:88:4f:3f:33:7c:6f:ee:17:b3:33:27:29:0d:86:
                    88:b4:e9:7a:6e:90:20:d6:f2:a0:b1:a4:3e:cc:ba:
                    55:54:51:31:a2:e2:62:fd:9c:23:bc:57:95:9c:bb:
                    3b:e9:d7:63:b1:06:0d:0a:6c:cf:77:1c:dc:8c:0b:
                    79:a2:36:49:8c
                ASN1 OID: prime256v1
                NIST CURVE: P-256
        X509v3 extensions:
            1.2.3.4.5.6.7.8.1: 
                ..{"attrs":{"Name":"user-3"}}
            X509v3 Authority Key Identifier: 
                keyid:4E:7E:C4:68:4C:C2:7D:5B:D1:C7:FF:CE:FE:D6:5C:43:51:95:B0:A9

            X509v3 Basic Constraints: critical
                CA:FALSE
            X509v3 Subject Key Identifier: 
                47:0B:5F:F2:F6:81:C2:E4:BE:BF:AA:E6:FB:F0:DC:13:48:F7:B5:45
            X509v3 Key Usage: critical
                Digital Signature
    Signature Algorithm: ecdsa-with-SHA256
         30:46:02:21:00:d3:9c:db:df:5d:33:6f:f2:76:8d:c7:00:6a:
         7d:de:6f:d9:84:97:e5:75:d8:a9:b9:46:43:cb:28:ad:06:17:
         a3:02:21:00:ef:ae:1d:87:07:d2:1c:93:69:e4:0a:66:5f:83:
         07:1b:7f:a3:d1:c0:56:51:f2:a3:b0:00:1e:68:c9:98:90:7c
-----BEGIN CERTIFICATE-----
MIICJDCCAcmgAwIBAgIJAKNHXSD6BRh1MAoGCCqGSM49BAMCMEwxCzAJBgNVBAYT
AmJlMRIwEAYDVQQKDAlrdW5zdG1hYW4xDTALBgNVBAsMBGF1dGgxGjAYBgNVBAMM
EWF1dGgua3Vuc3RtYWFuLmJlMB4XDTE4MDIyODEwMTI1OFoXDTI4MDIyNjEwMTI1
OFowUzELMAkGA1UEBhMCYmUxEjAQBgNVBAoMCWt1bnN0bWFhbjENMAsGA1UECwwE
YXV0aDEhMB8GA1UEAwwYdXNlci0zLmF1dGgua3Vuc3RtYWFuLmJlMFkwEwYHKoZI
zj0CAQYIKoZIzj0DAQcDQgAEiE8/M3xv7hezMycpDYaItOl6bpAg1vKgsaQ+zLpV
VFExouJi/ZwjvFeVnLs76ddjsQYNCmzPdxzcjAt5ojZJjKOBjDCBiTApBggqAwQF
BgcIAQQdDBt7ImF0dHJzIjp7Ik5hbWUiOiJ1c2VyLTMifX0wHwYDVR0jBBgwFoAU
Tn7EaEzCfVvRx//O/tZcQ1GVsKkwDAYDVR0TAQH/BAIwADAdBgNVHQ4EFgQURwtf
8vaBwuS+v6rm+/DcE0j3tUUwDgYDVR0PAQH/BAQDAgeAMAoGCCqGSM49BAMCA0kA
MEYCIQDTnNvfXTNv8naNxwBqfd5v2YSX5XXYqblGQ8sorQYXowIhAO+uHYcH0hyT
aeQKZl+DBxt/o9HAVlHyo7AAHmjJmJB8
-----END CERTIFICATE-----
