Certificate:
    Data:
        Version: 3 (0x2)
        Serial Number:
            cc:a1:93:a1:c3:77:e6:c7
        Signature Algorithm: ecdsa-with-SHA1
        Issuer: CN=kunstmaan.be, OU=ca, C=be, O=kunstmaan
        Validity
            Not Before: Feb 27 17:00:07 2018 GMT
            Not After : Feb 22 17:00:07 2038 GMT
        Subject: CN=kunstmaan.be, OU=ca, C=be, O=kunstmaan
        Subject Public Key Info:
            Public Key Algorithm: id-ecPublicKey
            EC Public Key:
                pub: 
                    04:5e:26:d8:79:c4:28:90:f4:f5:83:7d:5b:c3:c3:
                    18:df:9f:b2:14:fd:4d:01:c4:3c:bd:1c:47:38:44:
                    fa:d8:77:4c:ff:d9:91:14:23:74:0a:d9:f4:6b:ee:
                    b6:7d:cd:d3:2d:6b:0a:18:c2:67:22:f7:d5:80:1b:
                    b6:14:35:9e:6a
                ASN1 OID: prime256v1
        X509v3 extensions:
            X509v3 Subject Key Identifier: 
                36:DB:89:FC:56:3F:D3:96:CF:41:F0:4C:F0:DD:36:1E:C3:ED:2E:6A
            X509v3 Basic Constraints: critical
                CA:TRUE
            X509v3 Key Usage: critical
                Digital Signature, Key Encipherment, Certificate Sign, CRL Sign
            X509v3 Extended Key Usage: 
                2.5.29.37.0
    Signature Algorithm: ecdsa-with-SHA1
        30:44:02:20:5e:9d:c1:0f:5a:c6:2f:ab:08:78:d1:b8:ef:e3:
        bc:d1:ce:9c:b3:11:62:94:d8:15:d5:01:77:f9:a6:d4:5b:ff:
        02:20:5e:13:4c:5f:10:93:93:6a:67:4a:a7:5c:42:d7:1c:88:
        e2:32:a6:ab:86:b9:36:f3:4d:c1:c9:96:9d:52:5a:8a
-----BEGIN CERTIFICATE-----
MIIB0TCCAXmgAwIBAgIJAMyhk6HDd+bHMAkGByqGSM49BAEwRTEVMBMGA1UEAwwM
a3Vuc3RtYWFuLmJlMQswCQYDVQQLDAJjYTELMAkGA1UEBhMCYmUxEjAQBgNVBAoM
CWt1bnN0bWFhbjAeFw0xODAyMjcxNzAwMDdaFw0zODAyMjIxNzAwMDdaMEUxFTAT
BgNVBAMMDGt1bnN0bWFhbi5iZTELMAkGA1UECwwCY2ExCzAJBgNVBAYTAmJlMRIw
EAYDVQQKDAlrdW5zdG1hYW4wWTATBgcqhkjOPQIBBggqhkjOPQMBBwNCAAReJth5
xCiQ9PWDfVvDwxjfn7IU/U0BxDy9HEc4RPrYd0z/2ZEUI3QK2fRr7rZ9zdMtawoY
wmci99WAG7YUNZ5qo1MwUTAdBgNVHQ4EFgQUNtuJ/FY/05bPQfBM8N02HsPtLmow
DwYDVR0TAQH/BAUwAwEB/zAOBgNVHQ8BAf8EBAMCAaYwDwYDVR0lBAgwBgYEVR0l
ADAJBgcqhkjOPQQBA0cAMEQCIF6dwQ9axi+rCHjRuO/jvNHOnLMRYpTYFdUBd/mm
1Fv/AiBeE0xfEJOTamdKp1xC1xyI4jKmq4a5NvNNwcmWnVJaig==
-----END CERTIFICATE-----
