Certificate:
    Data:
        Version: 3 (0x2)
        Serial Number:
            cd:1a:10:87:b9:b6:16:eb
    Signature Algorithm: ecdsa-with-SHA256
        Issuer: C=be, O=kunstmaan, OU=auth, CN=auth.kunstmaan.be
        Validity
            Not Before: Feb 28 10:13:00 2018 GMT
            Not After : Feb 26 10:13:00 2028 GMT
        Subject: C=be, O=kunstmaan, OU=auth, CN=user-5.auth.kunstmaan.be
        Subject Public Key Info:
            Public Key Algorithm: id-ecPublicKey
                Public-Key: (256 bit)
                pub: 
                    04:10:5b:41:2e:eb:d3:4a:bb:ad:ef:33:b5:9c:4d:
                    7a:71:6a:09:7c:dc:76:48:76:38:9e:16:61:bb:cf:
                    94:ee:e0:ae:ea:f3:1d:d6:81:8f:d8:22:d0:3a:d1:
                    c1:07:f8:7f:59:fc:0d:f5:2c:0c:38:18:86:64:81:
                    97:cc:a8:54:d9
                ASN1 OID: prime256v1
                NIST CURVE: P-256
        X509v3 extensions:
            1.2.3.4.5.6.7.8.1: 
                ..{"attrs":{"Name":"user-5"}}
            X509v3 Authority Key Identifier: 
                keyid:4E:7E:C4:68:4C:C2:7D:5B:D1:C7:FF:CE:FE:D6:5C:43:51:95:B0:A9

            X509v3 Basic Constraints: critical
                CA:FALSE
            X509v3 Subject Key Identifier: 
                DB:7D:DB:B8:87:40:0B:EA:CB:8E:25:D5:FE:C6:5C:DE:75:F7:39:2A
            X509v3 Key Usage: critical
                Digital Signature
    Signature Algorithm: ecdsa-with-SHA256
         30:46:02:21:00:c5:db:fd:5d:fd:1e:b1:d3:e8:73:61:46:ca:
         d6:0c:6b:5e:28:9a:ee:52:dc:51:18:85:ed:be:89:34:ae:9e:
         50:02:21:00:b2:7b:f0:cd:44:0e:64:74:21:26:5d:51:08:d2:
         12:bc:ff:98:b1:af:78:55:7c:3d:f9:fc:03:53:b8:96:bd:30
-----BEGIN CERTIFICATE-----
MIICJDCCAcmgAwIBAgIJAM0aEIe5thbrMAoGCCqGSM49BAMCMEwxCzAJBgNVBAYT
AmJlMRIwEAYDVQQKDAlrdW5zdG1hYW4xDTALBgNVBAsMBGF1dGgxGjAYBgNVBAMM
EWF1dGgua3Vuc3RtYWFuLmJlMB4XDTE4MDIyODEwMTMwMFoXDTI4MDIyNjEwMTMw
MFowUzELMAkGA1UEBhMCYmUxEjAQBgNVBAoMCWt1bnN0bWFhbjENMAsGA1UECwwE
YXV0aDEhMB8GA1UEAwwYdXNlci01LmF1dGgua3Vuc3RtYWFuLmJlMFkwEwYHKoZI
zj0CAQYIKoZIzj0DAQcDQgAEEFtBLuvTSrut7zO1nE16cWoJfNx2SHY4nhZhu8+U
7uCu6vMd1oGP2CLQOtHBB/h/WfwN9SwMOBiGZIGXzKhU2aOBjDCBiTApBggqAwQF
BgcIAQQdDBt7ImF0dHJzIjp7Ik5hbWUiOiJ1c2VyLTUifX0wHwYDVR0jBBgwFoAU
Tn7EaEzCfVvRx//O/tZcQ1GVsKkwDAYDVR0TAQH/BAIwADAdBgNVHQ4EFgQU233b
uIdAC+rLjiXV/sZc3nX3OSowDgYDVR0PAQH/BAQDAgeAMAoGCCqGSM49BAMCA0kA
MEYCIQDF2/1d/R6x0+hzYUbK1gxrXiia7lLcURiF7b6JNK6eUAIhALJ78M1EDmR0
ISZdUQjSErz/mLGveFV8Pfn8A1O4lr0w
-----END CERTIFICATE-----
