Certificate:
    Data:
        Version: 3 (0x2)
        Serial Number:
            c8:e5:ce:9b:f1:2f:c4:d0
    Signature Algorithm: ecdsa-with-SHA256
        Issuer: CN=kunstmaan.be, OU=ca, C=be, O=kunstmaan
        Validity
            Not Before: Feb 28 10:12:55 2018 GMT
            Not After : Feb 26 10:12:55 2028 GMT
        Subject: C=be, O=kunstmaan, OU=auth, CN=auth.kunstmaan.be
        Subject Public Key Info:
            Public Key Algorithm: id-ecPublicKey
                Public-Key: (256 bit)
                pub: 
                    04:eb:8e:e3:3a:57:6b:8f:3d:f2:1d:f8:87:f2:dd:
                    0f:4f:48:ff:71:d5:56:b0:81:88:22:bb:6b:0b:f6:
                    46:37:2b:24:7c:7c:15:69:79:37:4b:1b:06:82:ce:
                    bb:92:0b:b4:18:0b:3e:e3:88:25:f4:65:c5:69:2f:
                    9b:4f:7a:fd:eb
                ASN1 OID: prime256v1
                NIST CURVE: P-256
        X509v3 extensions:
            1.2.3.4.5.6.7.8.1: 
                ..{"attrs":{}}
            X509v3 Authority Key Identifier: 
                keyid:5B:94:1B:FA:3D:97:08:38:D0:52:B7:C6:20:15:62:CB:C6:D1:D3:5D

            X509v3 Basic Constraints: critical
                CA:TRUE
            X509v3 Subject Key Identifier: 
                4E:7E:C4:68:4C:C2:7D:5B:D1:C7:FF:CE:FE:D6:5C:43:51:95:B0:A9
            X509v3 Extended Key Usage: 
                Any Extended Key Usage
            X509v3 Key Usage: critical
                Digital Signature, Key Encipherment, Certificate Sign, CRL Sign
    Signature Algorithm: ecdsa-with-SHA256
         30:46:02:21:00:9a:7f:ca:3e:7c:07:d4:3e:9b:5c:8c:86:89:
         e2:5c:9b:a8:2c:b0:77:2b:10:88:50:77:f0:e4:17:fa:14:f5:
         2e:02:21:00:ec:ea:b7:a4:c3:e2:46:18:be:7a:f4:d7:3b:5b:
         02:9e:c5:94:4b:50:c2:4b:98:5d:44:21:50:c1:04:99:29:f0
-----BEGIN CERTIFICATE-----
MIICGzCCAcCgAwIBAgIJAMjlzpvxL8TQMAoGCCqGSM49BAMCMEUxFTATBgNVBAMM
DGt1bnN0bWFhbi5iZTELMAkGA1UECwwCY2ExCzAJBgNVBAYTAmJlMRIwEAYDVQQK
DAlrdW5zdG1hYW4wHhcNMTgwMjI4MTAxMjU1WhcNMjgwMjI2MTAxMjU1WjBMMQsw
CQYDVQQGEwJiZTESMBAGA1UECgwJa3Vuc3RtYWFuMQ0wCwYDVQQLDARhdXRoMRow
GAYDVQQDDBFhdXRoLmt1bnN0bWFhbi5iZTBZMBMGByqGSM49AgEGCCqGSM49AwEH
A0IABOuO4zpXa4898h34h/LdD09I/3HVVrCBiCK7awv2RjcrJHx8FWl5N0sbBoLO
u5ILtBgLPuOIJfRlxWkvm096/eujgZEwgY4wGgYIKgMEBQYHCAEEDgwMeyJhdHRy
cyI6e319MB8GA1UdIwQYMBaAFFuUG/o9lwg40FK3xiAVYsvG0dNdMA8GA1UdEwEB
/wQFMAMBAf8wHQYDVR0OBBYEFE5+xGhMwn1b0cf/zv7WXENRlbCpMA8GA1UdJQQI
MAYGBFUdJQAwDgYDVR0PAQH/BAQDAgGmMAoGCCqGSM49BAMCA0kAMEYCIQCaf8o+
fAfUPptcjIaJ4lybqCywdysQiFB38OQX+hT1LgIhAOzqt6TD4kYYvnr01ztbAp7F
lEtQwkuYXUQhUMEEmSnw
-----END CERTIFICATE-----
