Certificate:
    Data:
        Version: 3 (0x2)
        Serial Number:
            d9:42:0d:cf:bd:34:fb:35
        Signature Algorithm: ecdsa-with-SHA1
        Issuer: C=be, O=kunstmaan, OU=auth, CN=auth.kunstmaan.be
        Validity
            Not Before: Feb 27 17:00:18 2018 GMT
            Not After : Feb 25 17:00:18 2028 GMT
        Subject: C=be, O=kunstmaan, OU=auth, CN=authpeer.auth.kunstmaan.be
        Subject Public Key Info:
            Public Key Algorithm: id-ecPublicKey
            EC Public Key:
                pub: 
                    04:bd:4d:4e:6b:dd:cc:64:13:a3:aa:98:73:17:48:
                    d2:4e:79:2a:db:a5:51:6e:71:f0:d0:13:f1:f0:c5:
                    57:57:fd:30:1b:42:f0:c2:28:19:a1:34:85:2c:b4:
                    fa:22:42:83:fc:a9:42:1c:ae:fa:27:b1:05:f8:e9:
                    cd:7c:de:da:5a
                ASN1 OID: prime256v1
        X509v3 extensions:
            1.2.3.4.5.6.7.8.1: 
                ..{"attrs":{}}
            X509v3 Authority Key Identifier: 
                keyid:6F:AD:99:6F:D6:A2:4F:17:3A:06:FC:48:B8:1E:62:FA:5A:7D:84:05

            X509v3 Basic Constraints: critical
                CA:FALSE
            X509v3 Subject Key Identifier: 
                DD:36:D8:63:B9:99:E4:66:76:92:3B:CE:08:96:4F:C3:4A:78:F7:9A
            X509v3 Key Usage: critical
                Digital Signature
    Signature Algorithm: ecdsa-with-SHA1
        30:45:02:21:00:bb:e1:05:17:b0:2f:1d:5c:6e:68:0c:65:1d:
        24:05:50:13:e2:b4:74:c5:5c:01:b8:51:e7:bc:23:ae:42:d8:
        47:02:20:39:87:6c:f7:40:13:69:79:a4:6a:d8:a8:a3:c0:c7:
        24:a2:31:e4:c9:48:44:3e:bf:38:7f:f0:6f:90:aa:16:70
-----BEGIN CERTIFICATE-----
MIICEjCCAbmgAwIBAgIJANlCDc+9NPs1MAkGByqGSM49BAEwTDELMAkGA1UEBhMC
YmUxEjAQBgNVBAoMCWt1bnN0bWFhbjENMAsGA1UECwwEYXV0aDEaMBgGA1UEAwwR
YXV0aC5rdW5zdG1hYW4uYmUwHhcNMTgwMjI3MTcwMDE4WhcNMjgwMjI1MTcwMDE4
WjBVMQswCQYDVQQGEwJiZTESMBAGA1UECgwJa3Vuc3RtYWFuMQ0wCwYDVQQLDARh
dXRoMSMwIQYDVQQDDBphdXRocGVlci5hdXRoLmt1bnN0bWFhbi5iZTBZMBMGByqG
SM49AgEGCCqGSM49AwEHA0IABL1NTmvdzGQTo6qYcxdI0k55KtulUW5x8NAT8fDF
V1f9MBtC8MIoGaE0hSy0+iJCg/ypQhyu+iexBfjpzXze2lqjfDB6MBoGCCoDBAUG
BwgBBA4MDHsiYXR0cnMiOnt9fTAfBgNVHSMEGDAWgBRvrZlv1qJPFzoG/Ei4HmL6
Wn2EBTAMBgNVHRMBAf8EAjAAMB0GA1UdDgQWBBTdNthjuZnkZnaSO84Ilk/DSnj3
mjAOBgNVHQ8BAf8EBAMCB4AwCQYHKoZIzj0EAQNIADBFAiEAu+EFF7AvHVxuaAxl
HSQFUBPitHTFXAG4Uee8I65C2EcCIDmHbPdAE2l5pGrYqKPAxySiMeTJSEQ+vzh/
8G+QqhZw
-----END CERTIFICATE-----
