Certificate:
    Data:
        Version: 3 (0x2)
        Serial Number:
            b3:d0:75:b9:95:9f:c2:5e
    Signature Algorithm: ecdsa-with-SHA256
        Issuer: C=be, O=kunstmaan, OU=auth, CN=auth.kunstmaan.be
        Validity
            Not Before: Feb 28 10:13:01 2018 GMT
            Not After : Feb 26 10:13:01 2028 GMT
        Subject: C=be, O=kunstmaan, OU=auth, CN=authpeer.auth.kunstmaan.be
        Subject Public Key Info:
            Public Key Algorithm: id-ecPublicKey
                Public-Key: (256 bit)
                pub: 
                    04:55:0e:56:0e:3a:96:c6:c8:70:ef:25:5a:95:65:
                    fc:f3:1b:aa:46:f4:69:6d:95:72:96:be:b4:98:25:
                    f2:07:d1:28:5e:b6:8b:02:f6:c5:ea:01:77:c3:c9:
                    1d:d8:81:9c:f4:f7:15:ce:a3:3e:aa:bb:56:b3:89:
                    f0:d1:c2:6f:d3
                ASN1 OID: prime256v1
                NIST CURVE: P-256
        X509v3 extensions:
            1.2.3.4.5.6.7.8.1: 
                ..{"attrs":{}}
            X509v3 Authority Key Identifier: 
                keyid:4E:7E:C4:68:4C:C2:7D:5B:D1:C7:FF:CE:FE:D6:5C:43:51:95:B0:A9

            X509v3 Basic Constraints: critical
                CA:FALSE
            X509v3 Subject Key Identifier: 
                6D:99:7F:40:14:94:0E:62:F5:0D:04:85:06:FD:47:68:F9:1C:9C:DD
            X509v3 Key Usage: critical
                Digital Signature
    Signature Algorithm: ecdsa-with-SHA256
         30:46:02:21:00:d4:52:ad:fa:ba:eb:3e:b6:9f:b1:ee:f0:42:
         be:8b:31:10:8e:f2:8d:77:46:95:49:f3:97:3e:93:21:32:34:
         5e:02:21:00:ca:13:c8:c7:68:4f:b5:34:8b:3c:5f:f6:d9:a9:
         3a:c8:15:43:51:63:05:85:93:aa:7f:fc:de:4f:95:0a:a3:1f
-----BEGIN CERTIFICATE-----
MIICFTCCAbqgAwIBAgIJALPQdbmVn8JeMAoGCCqGSM49BAMCMEwxCzAJBgNVBAYT
AmJlMRIwEAYDVQQKDAlrdW5zdG1hYW4xDTALBgNVBAsMBGF1dGgxGjAYBgNVBAMM
EWF1dGgua3Vuc3RtYWFuLmJlMB4XDTE4MDIyODEwMTMwMVoXDTI4MDIyNjEwMTMw
MVowVTELMAkGA1UEBhMCYmUxEjAQBgNVBAoMCWt1bnN0bWFhbjENMAsGA1UECwwE
YXV0aDEjMCEGA1UEAwwaYXV0aHBlZXIuYXV0aC5rdW5zdG1hYW4uYmUwWTATBgcq
hkjOPQIBBggqhkjOPQMBBwNCAARVDlYOOpbGyHDvJVqVZfzzG6pG9GltlXKWvrSY
JfIH0ShetosC9sXqAXfDyR3YgZz09xXOoz6qu1azifDRwm/To3wwejAaBggqAwQF
BgcIAQQODAx7ImF0dHJzIjp7fX0wHwYDVR0jBBgwFoAUTn7EaEzCfVvRx//O/tZc
Q1GVsKkwDAYDVR0TAQH/BAIwADAdBgNVHQ4EFgQUbZl/QBSUDmL1DQSFBv1HaPkc
nN0wDgYDVR0PAQH/BAQDAgeAMAoGCCqGSM49BAMCA0kAMEYCIQDUUq36uus+tp+x
7vBCvosxEI7yjXdGlUnzlz6TITI0XgIhAMoTyMdoT7U0izxf9tmpOsgVQ1FjBYWT
qn/83k+VCqMf
-----END CERTIFICATE-----
