Certificate:
    Data:
        Version: 3 (0x2)
        Serial Number:
            c0:70:03:ec:4f:dd:1b:5a
    Signature Algorithm: ecdsa-with-SHA256
        Issuer: C=be, O=kunstmaan, OU=auth, CN=auth.kunstmaan.be
        Validity
            Not Before: Feb 28 10:00:26 2018 GMT
            Not After : Feb 26 10:00:26 2028 GMT
        Subject: C=be, O=kunstmaan, OU=auth, CN=authpeer.auth.kunstmaan.be
        Subject Public Key Info:
            Public Key Algorithm: id-ecPublicKey
                Public-Key: (256 bit)
                pub: 
                    04:c4:da:2d:30:57:5d:d9:f1:4d:56:5a:96:61:07:
                    c9:32:88:e8:2d:1f:49:6f:44:76:6b:34:e0:04:3b:
                    52:60:9e:fd:8b:06:0d:6b:36:5f:c5:83:d6:19:64:
                    09:c4:85:5c:95:3f:25:db:bc:44:c2:65:18:8f:9d:
                    e5:af:78:42:f4
                ASN1 OID: prime256v1
                NIST CURVE: P-256
        X509v3 extensions:
            1.2.3.4.5.6.7.8.1: 
                ..{"attrs":{}}
            X509v3 Authority Key Identifier: 
                keyid:4F:07:11:85:0F:5E:2C:C2:9E:49:87:6E:A2:7B:D6:CD:49:52:17:F9

            X509v3 Basic Constraints: critical
                CA:FALSE
            X509v3 Subject Key Identifier: 
                E8:CC:84:F8:6A:E5:7D:B2:FF:5E:77:A7:86:3E:98:1F:13:28:A6:55
            X509v3 Key Usage: critical
                Digital Signature
    Signature Algorithm: ecdsa-with-SHA256
         30:44:02:20:02:9c:f3:80:74:f2:2c:23:ae:ff:b5:ad:4b:75:
         76:b9:05:c7:30:59:8c:e1:a8:a2:c4:34:57:a2:f8:a9:59:22:
         02:20:06:06:0a:ac:cb:7b:96:c3:5b:45:8b:63:69:c2:49:5d:
         61:9d:f0:50:8f:41:e5:27:02:8d:7c:56:32:3e:f2:91
-----BEGIN CERTIFICATE-----
MIICEzCCAbqgAwIBAgIJAMBwA+xP3RtaMAoGCCqGSM49BAMCMEwxCzAJBgNVBAYT
AmJlMRIwEAYDVQQKDAlrdW5zdG1hYW4xDTALBgNVBAsMBGF1dGgxGjAYBgNVBAMM
EWF1dGgua3Vuc3RtYWFuLmJlMB4XDTE4MDIyODEwMDAyNloXDTI4MDIyNjEwMDAy
NlowVTELMAkGA1UEBhMCYmUxEjAQBgNVBAoMCWt1bnN0bWFhbjENMAsGA1UECwwE
YXV0aDEjMCEGA1UEAwwaYXV0aHBlZXIuYXV0aC5rdW5zdG1hYW4uYmUwWTATBgcq
hkjOPQIBBggqhkjOPQMBBwNCAATE2i0wV13Z8U1WWpZhB8kyiOgtH0lvRHZrNOAE
O1Jgnv2LBg1rNl/Fg9YZZAnEhVyVPyXbvETCZRiPneWveEL0o3wwejAaBggqAwQF
BgcIAQQODAx7ImF0dHJzIjp7fX0wHwYDVR0jBBgwFoAUTwcRhQ9eLMKeSYduonvW
zUlSF/kwDAYDVR0TAQH/BAIwADAdBgNVHQ4EFgQU6MyE+GrlfbL/Xnenhj6YHxMo
plUwDgYDVR0PAQH/BAQDAgeAMAoGCCqGSM49BAMCA0cAMEQCIAKc84B08iwjrv+1
rUt1drkFxzBZjOGoosQ0V6L4qVkiAiAGBgqsy3uWw1tFi2NpwkldYZ3wUI9B5ScC
jXxWMj7ykQ==
-----END CERTIFICATE-----
