Certificate:
    Data:
        Version: 3 (0x2)
        Serial Number:
            e4:ba:d4:c7:8b:b8:72:18
    Signature Algorithm: ecdsa-with-SHA256
        Issuer: CN=kunstmaan.be, OU=ca, C=be, O=kunstmaan
        Validity
            Not Before: Feb 28 10:12:55 2018 GMT
            Not After : Feb 26 10:12:55 2028 GMT
        Subject: C=be, O=kunstmaan, OU=auth, CN=auth.kunstmaan.be
        Subject Public Key Info:
            Public Key Algorithm: id-ecPublicKey
                Public-Key: (256 bit)
                pub: 
                    04:76:c4:8f:86:6e:44:49:16:2a:30:1e:98:68:59:
                    36:0e:a1:4b:5c:53:7e:12:73:43:bb:0f:0b:d6:94:
                    f7:fc:f9:e6:23:59:85:85:81:38:57:7e:67:02:9c:
                    5b:ec:54:17:8b:1e:57:3e:97:fe:9f:54:0b:72:ec:
                    6a:14:88:c4:32
                ASN1 OID: prime256v1
                NIST CURVE: P-256
        X509v3 extensions:
            1.2.3.4.5.6.7.8.1: 
                ..{"attrs":{}}
            X509v3 Authority Key Identifier: 
                keyid:5B:94:1B:FA:3D:97:08:38:D0:52:B7:C6:20:15:62:CB:C6:D1:D3:5D

            X509v3 Basic Constraints: critical
                CA:TRUE
            X509v3 Subject Key Identifier: 
                26:13:21:A8:F5:D7:53:4D:99:52:9D:4C:C0:71:9C:FF:33:ED:03:87
            X509v3 Key Usage: critical
                Digital Signature, Key Encipherment, Certificate Sign, CRL Sign
            X509v3 Extended Key Usage: 
                TLS Web Server Authentication, TLS Web Client Authentication
    Signature Algorithm: ecdsa-with-SHA256
         30:45:02:20:4a:ed:0b:e7:b3:b9:db:9b:c5:df:3f:ba:2e:27:
         3c:2f:ea:15:93:fa:2c:3a:c9:2e:3c:72:93:7e:1f:ca:a5:ad:
         02:21:00:ea:63:42:da:c2:52:ac:e1:9c:51:10:aa:d7:f6:e3:
         08:0a:93:20:a9:a9:d9:97:46:20:65:93:33:7c:4a:e1:2f
-----BEGIN CERTIFICATE-----
MIICKDCCAc6gAwIBAgIJAOS61MeLuHIYMAoGCCqGSM49BAMCMEUxFTATBgNVBAMM
DGt1bnN0bWFhbi5iZTELMAkGA1UECwwCY2ExCzAJBgNVBAYTAmJlMRIwEAYDVQQK
DAlrdW5zdG1hYW4wHhcNMTgwMjI4MTAxMjU1WhcNMjgwMjI2MTAxMjU1WjBMMQsw
CQYDVQQGEwJiZTESMBAGA1UECgwJa3Vuc3RtYWFuMQ0wCwYDVQQLDARhdXRoMRow
GAYDVQQDDBFhdXRoLmt1bnN0bWFhbi5iZTBZMBMGByqGSM49AgEGCCqGSM49AwEH
A0IABHbEj4ZuREkWKjAemGhZNg6hS1xTfhJzQ7sPC9aU9/z55iNZhYWBOFd+ZwKc
W+xUF4seVz6X/p9UC3LsahSIxDKjgZ8wgZwwGgYIKgMEBQYHCAEEDgwMeyJhdHRy
cyI6e319MB8GA1UdIwQYMBaAFFuUG/o9lwg40FK3xiAVYsvG0dNdMA8GA1UdEwEB
/wQFMAMBAf8wHQYDVR0OBBYEFCYTIaj111NNmVKdTMBxnP8z7QOHMA4GA1UdDwEB
/wQEAwIBpjAdBgNVHSUEFjAUBggrBgEFBQcDAQYIKwYBBQUHAwIwCgYIKoZIzj0E
AwIDSAAwRQIgSu0L57O525vF3z+6Lic8L+oVk/osOskuPHKTfh/Kpa0CIQDqY0La
wlKs4ZxREKrX9uMICpMgqanZl0YgZZMzfErhLw==
-----END CERTIFICATE-----
