Certificate:
    Data:
        Version: 3 (0x2)
        Serial Number:
            be:67:a7:c9:2f:b5:17:e3
        Signature Algorithm: ecdsa-with-SHA1
        Issuer: C=be, O=kunstmaan, OU=auth, CN=auth.kunstmaan.be
        Validity
            Not Before: Feb 14 16:07:00 2018 GMT
            Not After : Feb 12 16:07:00 2028 GMT
        Subject: C=be, O=kunstmaan, OU=auth, CN=authpeer.auth.kunstmaan.be
        Subject Public Key Info:
            Public Key Algorithm: id-ecPublicKey
            EC Public Key:
                pub: 
                    04:4b:1a:e1:af:63:0f:c1:9f:f7:28:bc:87:14:fd:
                    74:53:f0:7d:4e:bf:a7:8d:fd:a2:d6:cd:bd:04:8d:
                    49:ac:25:c9:54:64:3d:e7:fd:70:f1:52:8d:95:11:
                    78:02:7f:69:56:5e:de:1b:82:80:e7:b5:72:15:d4:
                    8c:14:b9:63:59
                ASN1 OID: prime256v1
        X509v3 extensions:
            1.2.3.4.5.6.7.8.1: 
                ..{"attrs":{}}
            X509v3 Authority Key Identifier: 
                keyid:95:7B:44:03:D8:97:C6:89:B4:E3:0F:92:5E:B4:3F:F4:96:78:5F:FA

            X509v3 Basic Constraints: critical
                CA:FALSE
            X509v3 Subject Key Identifier: 
                F9:C4:FA:96:6A:EF:84:A7:6F:E0:6C:D9:BF:42:38:40:17:13:F9:80
            X509v3 Key Usage: critical
                Digital Signature
    Signature Algorithm: ecdsa-with-SHA1
        30:44:02:20:41:7e:c4:12:7c:6a:cb:75:24:71:69:13:69:f2:
        86:9c:09:e2:a0:f4:bd:d6:b1:73:39:02:5a:e1:d9:49:8d:d4:
        02:20:6c:ca:c4:01:8a:25:f0:cc:70:c9:cf:46:27:ff:50:bc:
        d5:d0:46:db:41:6a:e6:d9:ee:df:15:ee:a0:1c:80:12
-----BEGIN CERTIFICATE-----
MIICETCCAbmgAwIBAgIJAL5np8kvtRfjMAkGByqGSM49BAEwTDELMAkGA1UEBhMC
YmUxEjAQBgNVBAoMCWt1bnN0bWFhbjENMAsGA1UECwwEYXV0aDEaMBgGA1UEAwwR
YXV0aC5rdW5zdG1hYW4uYmUwHhcNMTgwMjE0MTYwNzAwWhcNMjgwMjEyMTYwNzAw
WjBVMQswCQYDVQQGEwJiZTESMBAGA1UECgwJa3Vuc3RtYWFuMQ0wCwYDVQQLDARh
dXRoMSMwIQYDVQQDDBphdXRocGVlci5hdXRoLmt1bnN0bWFhbi5iZTBZMBMGByqG
SM49AgEGCCqGSM49AwEHA0IABEsa4a9jD8Gf9yi8hxT9dFPwfU6/p439otbNvQSN
SawlyVRkPef9cPFSjZUReAJ/aVZe3huCgOe1chXUjBS5Y1mjfDB6MBoGCCoDBAUG
BwgBBA4MDHsiYXR0cnMiOnt9fTAfBgNVHSMEGDAWgBSVe0QD2JfGibTjD5JetD/0
lnhf+jAMBgNVHRMBAf8EAjAAMB0GA1UdDgQWBBT5xPqWau+Ep2/gbNm/QjhAFxP5
gDAOBgNVHQ8BAf8EBAMCB4AwCQYHKoZIzj0EAQNHADBEAiBBfsQSfGrLdSRxaRNp
8oacCeKg9L3WsXM5Alrh2UmN1AIgbMrEAYol8Mxwyc9GJ/9QvNXQRttBaubZ7t8V
7qAcgBI=
-----END CERTIFICATE-----
