Certificate:
    Data:
        Version: 3 (0x2)
        Serial Number:
            bc:17:73:2a:55:7b:5d:83
        Signature Algorithm: ecdsa-with-SHA1
        Issuer: C=be, O=kunstmaan, OU=org, CN=org.kunstmaan.be
        Validity
            Not Before: Feb 27 17:00:09 2018 GMT
            Not After : Feb 25 17:00:09 2028 GMT
        Subject: C=be, O=kunstmaan, OU=org, CN=kumapeer.org.kunstmaan.be
        Subject Public Key Info:
            Public Key Algorithm: id-ecPublicKey
            EC Public Key:
                pub: 
                    04:12:c2:50:cc:bd:01:a7:d9:1b:2e:67:07:a0:a8:
                    0d:7e:d7:ae:f4:1f:90:36:25:26:bc:da:c8:84:ce:
                    c8:70:bd:59:d0:c8:42:6b:91:7f:42:9c:f4:e4:1c:
                    75:00:71:c4:2d:fa:ab:ba:1f:d4:bb:23:23:c6:5c:
                    92:8c:2d:7e:7a
                ASN1 OID: prime256v1
        X509v3 extensions:
            1.2.3.4.5.6.7.8.1: 
                ..{"attrs":{}}
            X509v3 Authority Key Identifier: 
                keyid:27:45:73:9B:F8:8F:FB:E3:22:62:CA:C3:10:13:26:32:28:A6:34:B2

            X509v3 Basic Constraints: critical
                CA:FALSE
            X509v3 Subject Key Identifier: 
                F6:C5:36:DD:45:55:14:9A:C6:0F:FB:48:65:93:A0:58:C1:6C:D0:62
            X509v3 Key Usage: critical
                Digital Signature
    Signature Algorithm: ecdsa-with-SHA1
        30:44:02:20:1a:56:15:41:7e:f5:b5:3e:61:d5:73:61:f9:c7:
        be:fe:49:db:ed:23:24:66:5f:ae:e0:30:59:83:74:53:d4:3e:
        02:20:60:41:fb:81:b9:d8:09:29:8e:b6:61:e2:49:f3:d7:19:
        d1:bc:cb:88:f8:a4:0d:a2:73:b7:d4:21:93:da:c0:4a
-----BEGIN CERTIFICATE-----
MIICDTCCAbWgAwIBAgIJALwXcypVe12DMAkGByqGSM49BAEwSjELMAkGA1UEBhMC
YmUxEjAQBgNVBAoMCWt1bnN0bWFhbjEMMAoGA1UECwwDb3JnMRkwFwYDVQQDDBBv
cmcua3Vuc3RtYWFuLmJlMB4XDTE4MDIyNzE3MDAwOVoXDTI4MDIyNTE3MDAwOVow
UzELMAkGA1UEBhMCYmUxEjAQBgNVBAoMCWt1bnN0bWFhbjEMMAoGA1UECwwDb3Jn
MSIwIAYDVQQDDBlrdW1hcGVlci5vcmcua3Vuc3RtYWFuLmJlMFkwEwYHKoZIzj0C
AQYIKoZIzj0DAQcDQgAEEsJQzL0Bp9kbLmcHoKgNfteu9B+QNiUmvNrIhM7IcL1Z
0MhCa5F/Qpz05Bx1AHHELfqruh/UuyMjxlySjC1+eqN8MHowGgYIKgMEBQYHCAEE
DgwMeyJhdHRycyI6e319MB8GA1UdIwQYMBaAFCdFc5v4j/vjImLKwxATJjIopjSy
MAwGA1UdEwEB/wQCMAAwHQYDVR0OBBYEFPbFNt1FVRSaxg/7SGWToFjBbNBiMA4G
A1UdDwEB/wQEAwIHgDAJBgcqhkjOPQQBA0cAMEQCIBpWFUF+9bU+YdVzYfnHvv5J
2+0jJGZfruAwWYN0U9Q+AiBgQfuBudgJKY62YeJJ89cZ0bzLiPikDaJzt9Qhk9rA
Sg==
-----END CERTIFICATE-----
