Certificate:
    Data:
        Version: 3 (0x2)
        Serial Number:
            81:6b:2f:16:3b:8b:9c:05
    Signature Algorithm: ecdsa-with-SHA256
        Issuer: C=be, O=kunstmaan, OU=org, CN=org.kunstmaan.be
        Validity
            Not Before: Feb 28 10:00:21 2018 GMT
            Not After : Feb 26 10:00:21 2028 GMT
        Subject: C=be, O=kunstmaan, OU=org, CN=kumapeer.org.kunstmaan.be
        Subject Public Key Info:
            Public Key Algorithm: id-ecPublicKey
                Public-Key: (256 bit)
                pub: 
                    04:20:4a:92:8c:01:b4:98:4e:c7:bc:0c:e4:67:1e:
                    89:ea:11:af:53:0b:c8:fe:49:17:f5:80:e5:7e:a8:
                    ec:89:bc:44:0a:a2:f0:b4:f7:0f:18:bf:2c:a6:fa:
                    b0:24:ba:82:33:43:6a:88:e2:65:b7:e2:b7:bc:a2:
                    cd:b6:7c:07:0c
                ASN1 OID: prime256v1
                NIST CURVE: P-256
        X509v3 extensions:
            1.2.3.4.5.6.7.8.1: 
                ..{"attrs":{}}
            X509v3 Authority Key Identifier: 
                keyid:83:E2:97:23:04:83:A2:25:9C:B1:F2:12:BF:DA:36:8E:3F:36:7B:FF

            X509v3 Basic Constraints: critical
                CA:FALSE
            X509v3 Subject Key Identifier: 
                EE:95:B6:57:16:14:D0:29:AD:48:F2:20:B4:7C:0C:6F:2A:C5:48:6D
            X509v3 Key Usage: critical
                Digital Signature
    Signature Algorithm: ecdsa-with-SHA256
         30:44:02:20:04:61:9d:87:18:aa:2f:80:99:f5:8c:1b:f6:e9:
         cb:e6:89:e3:34:20:2f:90:f3:97:26:89:bc:cc:0e:b8:fa:db:
         02:20:2b:c2:a3:e8:4c:2b:6f:ba:6e:ac:5d:eb:17:b1:7f:38:
         57:0d:2c:c3:d1:e7:35:6c:41:59:0b:8c:45:cc:a6:43
-----BEGIN CERTIFICATE-----
MIICDzCCAbagAwIBAgIJAIFrLxY7i5wFMAoGCCqGSM49BAMCMEoxCzAJBgNVBAYT
AmJlMRIwEAYDVQQKDAlrdW5zdG1hYW4xDDAKBgNVBAsMA29yZzEZMBcGA1UEAwwQ
b3JnLmt1bnN0bWFhbi5iZTAeFw0xODAyMjgxMDAwMjFaFw0yODAyMjYxMDAwMjFa
MFMxCzAJBgNVBAYTAmJlMRIwEAYDVQQKDAlrdW5zdG1hYW4xDDAKBgNVBAsMA29y
ZzEiMCAGA1UEAwwZa3VtYXBlZXIub3JnLmt1bnN0bWFhbi5iZTBZMBMGByqGSM49
AgEGCCqGSM49AwEHA0IABCBKkowBtJhOx7wM5GceieoRr1MLyP5JF/WA5X6o7Im8
RAqi8LT3Dxi/LKb6sCS6gjNDaojiZbfit7yizbZ8BwyjfDB6MBoGCCoDBAUGBwgB
BA4MDHsiYXR0cnMiOnt9fTAfBgNVHSMEGDAWgBSD4pcjBIOiJZyx8hK/2jaOPzZ7
/zAMBgNVHRMBAf8EAjAAMB0GA1UdDgQWBBTulbZXFhTQKa1I8iC0fAxvKsVIbTAO
BgNVHQ8BAf8EBAMCB4AwCgYIKoZIzj0EAwIDRwAwRAIgBGGdhxiqL4CZ9Ywb9unL
5onjNCAvkPOXJom8zA64+tsCICvCo+hMK2+6bqxd6xexfzhXDSzD0ec1bEFZC4xF
zKZD
-----END CERTIFICATE-----
