Certificate:
    Data:
        Version: 3 (0x2)
        Serial Number:
            d8:f9:07:f4:d3:7f:b3:f9
        Signature Algorithm: ecdsa-with-SHA1
        Issuer: C=be, O=kunstmaan, OU=auth, CN=auth.kunstmaan.be
        Validity
            Not Before: Feb 14 16:06:56 2018 GMT
            Not After : Feb 12 16:06:56 2028 GMT
        Subject: C=be, O=kunstmaan, OU=auth, CN=user-1.auth.kunstmaan.be
        Subject Public Key Info:
            Public Key Algorithm: id-ecPublicKey
            EC Public Key:
                pub: 
                    04:91:10:1a:fa:6a:17:3b:00:b2:51:d5:b2:30:fc:
                    d7:47:50:86:e3:83:64:ae:ae:a1:de:ff:f8:14:95:
                    01:b6:99:cf:9e:0e:11:1b:36:ef:4a:48:ad:28:86:
                    16:36:d3:16:d7:2c:ad:32:15:ff:36:46:1e:0e:a8:
                    16:6b:b4:ca:15
                ASN1 OID: prime256v1
        X509v3 extensions:
            1.2.3.4.5.6.7.8.1: 
                ..{"attrs":{"Name":"user-1"}}
            X509v3 Authority Key Identifier: 
                keyid:95:7B:44:03:D8:97:C6:89:B4:E3:0F:92:5E:B4:3F:F4:96:78:5F:FA

            X509v3 Basic Constraints: critical
                CA:FALSE
            X509v3 Subject Key Identifier: 
                BF:71:C6:13:DF:95:68:B6:32:B2:EF:02:E8:D8:19:16:56:0F:F2:E5
            X509v3 Key Usage: critical
                Digital Signature
    Signature Algorithm: ecdsa-with-SHA1
        30:44:02:20:2b:bc:6c:7f:96:89:fc:10:6d:f8:d2:54:b1:d2:
        28:06:5a:ac:40:75:5a:c1:b5:46:5f:79:a9:2b:0a:b7:cd:0f:
        02:20:2c:15:c5:4a:44:82:68:d6:4f:e5:19:f8:fd:7f:04:67:
        15:b0:20:a4:6a:cb:18:eb:65:7f:f3:c3:e3:1e:63:d0
-----BEGIN CERTIFICATE-----
MIICIDCCAcigAwIBAgIJANj5B/TTf7P5MAkGByqGSM49BAEwTDELMAkGA1UEBhMC
YmUxEjAQBgNVBAoMCWt1bnN0bWFhbjENMAsGA1UECwwEYXV0aDEaMBgGA1UEAwwR
YXV0aC5rdW5zdG1hYW4uYmUwHhcNMTgwMjE0MTYwNjU2WhcNMjgwMjEyMTYwNjU2
WjBTMQswCQYDVQQGEwJiZTESMBAGA1UECgwJa3Vuc3RtYWFuMQ0wCwYDVQQLDARh
dXRoMSEwHwYDVQQDDBh1c2VyLTEuYXV0aC5rdW5zdG1hYW4uYmUwWTATBgcqhkjO
PQIBBggqhkjOPQMBBwNCAASREBr6ahc7ALJR1bIw/NdHUIbjg2SurqHe//gUlQG2
mc+eDhEbNu9KSK0ohhY20xbXLK0yFf82Rh4OqBZrtMoVo4GMMIGJMCkGCCoDBAUG
BwgBBB0MG3siYXR0cnMiOnsiTmFtZSI6InVzZXItMSJ9fTAfBgNVHSMEGDAWgBSV
e0QD2JfGibTjD5JetD/0lnhf+jAMBgNVHRMBAf8EAjAAMB0GA1UdDgQWBBS/ccYT
35VotjKy7wLo2BkWVg/y5TAOBgNVHQ8BAf8EBAMCB4AwCQYHKoZIzj0EAQNHADBE
AiArvGx/lon8EG340lSx0igGWqxAdVrBtUZfeakrCrfNDwIgLBXFSkSCaNZP5Rn4
/X8EZxWwIKRqyxjrZX/zw+MeY9A=
-----END CERTIFICATE-----
