Certificate:
    Data:
        Version: 3 (0x2)
        Serial Number:
            d5:d2:5d:c1:4b:05:6b:ec
    Signature Algorithm: ecdsa-with-SHA256
        Issuer: CN=kunstmaan.be, OU=ca, C=be, O=kunstmaan
        Validity
            Not Before: Feb 28 10:00:18 2018 GMT
            Not After : Feb 23 10:00:18 2038 GMT
        Subject: CN=kunstmaan.be, OU=ca, C=be, O=kunstmaan
        Subject Public Key Info:
            Public Key Algorithm: id-ecPublicKey
                Public-Key: (256 bit)
                pub: 
                    04:71:71:b5:92:68:ff:b5:77:76:c8:06:2c:dc:b8:
                    6f:ca:7f:b9:09:81:56:0d:3f:f7:01:09:7b:e0:4d:
                    20:e8:ac:a7:e2:f8:9e:b2:4f:3f:0f:89:df:bd:fb:
                    18:75:23:9c:b2:e3:5f:71:00:8f:af:4c:94:8d:b4:
                    fb:02:31:34:b0
                ASN1 OID: prime256v1
                NIST CURVE: P-256
        X509v3 extensions:
            X509v3 Subject Key Identifier: 
                FF:BF:2D:2F:F8:AB:7D:BE:D5:06:D2:71:53:11:5C:08:E0:74:58:1D
            X509v3 Basic Constraints: critical
                CA:TRUE
            X509v3 Key Usage: critical
                Digital Signature, Key Encipherment, Certificate Sign, CRL Sign
            X509v3 Extended Key Usage: 
                Any Extended Key Usage
    Signature Algorithm: ecdsa-with-SHA256
         30:45:02:20:7f:d1:b8:26:6b:86:b0:55:b9:aa:f5:55:c4:6d:
         97:c3:19:0a:1a:12:7c:75:74:46:a9:63:5b:91:e9:6b:ce:3a:
         02:21:00:f4:43:ac:15:02:b9:27:10:f9:9a:b2:e1:2b:ed:fd:
         64:03:e9:a4:87:90:c7:a7:a4:29:fd:62:27:38:6b:09:01
-----BEGIN CERTIFICATE-----
MIIB1DCCAXqgAwIBAgIJANXSXcFLBWvsMAoGCCqGSM49BAMCMEUxFTATBgNVBAMM
DGt1bnN0bWFhbi5iZTELMAkGA1UECwwCY2ExCzAJBgNVBAYTAmJlMRIwEAYDVQQK
DAlrdW5zdG1hYW4wHhcNMTgwMjI4MTAwMDE4WhcNMzgwMjIzMTAwMDE4WjBFMRUw
EwYDVQQDDAxrdW5zdG1hYW4uYmUxCzAJBgNVBAsMAmNhMQswCQYDVQQGEwJiZTES
MBAGA1UECgwJa3Vuc3RtYWFuMFkwEwYHKoZIzj0CAQYIKoZIzj0DAQcDQgAEcXG1
kmj/tXd2yAYs3Lhvyn+5CYFWDT/3AQl74E0g6Kyn4viesk8/D4nfvfsYdSOcsuNf
cQCPr0yUjbT7AjE0sKNTMFEwHQYDVR0OBBYEFP+/LS/4q32+1QbScVMRXAjgdFgd
MA8GA1UdEwEB/wQFMAMBAf8wDgYDVR0PAQH/BAQDAgGmMA8GA1UdJQQIMAYGBFUd
JQAwCgYIKoZIzj0EAwIDSAAwRQIgf9G4JmuGsFW5qvVVxG2XwxkKGhJ8dXRGqWNb
kelrzjoCIQD0Q6wVArknEPmasuEr7f1kA+mkh5DHp6Qp/WInOGsJAQ==
-----END CERTIFICATE-----
Certificate:
    Data:
        Version: 3 (0x2)
        Serial Number:
            e3:f6:7e:20:98:d5:c6:ff
    Signature Algorithm: ecdsa-with-SHA256
        Issuer: CN=kunstmaan.be, OU=ca, C=be, O=kunstmaan
        Validity
            Not Before: Feb 28 10:00:21 2018 GMT
            Not After : Feb 26 10:00:21 2028 GMT
        Subject: C=be, O=kunstmaan, OU=auth, CN=auth.kunstmaan.be
        Subject Public Key Info:
            Public Key Algorithm: id-ecPublicKey
                Public-Key: (256 bit)
                pub: 
                    04:5e:0a:5c:a1:90:a9:90:11:bf:86:02:9a:ce:5d:
                    c8:08:4c:76:59:3f:bb:3c:e6:60:f6:65:c9:31:c1:
                    4d:81:19:e2:ed:7d:2e:70:6b:f4:0b:7f:80:82:89:
                    d5:fc:90:a8:a0:ea:c5:13:49:9e:79:b6:ce:5e:4b:
                    e8:cc:47:9e:a0
                ASN1 OID: prime256v1
                NIST CURVE: P-256
        X509v3 extensions:
            1.2.3.4.5.6.7.8.1: 
                ..{"attrs":{}}
            X509v3 Authority Key Identifier: 
                keyid:FF:BF:2D:2F:F8:AB:7D:BE:D5:06:D2:71:53:11:5C:08:E0:74:58:1D

            X509v3 Basic Constraints: critical
                CA:TRUE
            X509v3 Subject Key Identifier: 
                4F:07:11:85:0F:5E:2C:C2:9E:49:87:6E:A2:7B:D6:CD:49:52:17:F9
            X509v3 Extended Key Usage: 
                Any Extended Key Usage
            X509v3 Key Usage: critical
                Digital Signature, Key Encipherment, Certificate Sign, CRL Sign
    Signature Algorithm: ecdsa-with-SHA256
         30:46:02:21:00:d6:20:f5:3b:28:4b:a5:51:17:4a:ee:ee:80:
         f3:5b:4a:e4:ca:52:ec:b5:7d:18:b1:ec:7e:23:bb:33:68:b5:
         61:02:21:00:9b:95:43:8c:ab:16:7f:26:17:89:ea:8d:aa:c8:
         81:a1:28:11:07:31:79:6d:8e:0c:1f:d1:66:4f:31:87:06:ae
-----BEGIN CERTIFICATE-----
MIICGzCCAcCgAwIBAgIJAOP2fiCY1cb/MAoGCCqGSM49BAMCMEUxFTATBgNVBAMM
DGt1bnN0bWFhbi5iZTELMAkGA1UECwwCY2ExCzAJBgNVBAYTAmJlMRIwEAYDVQQK
DAlrdW5zdG1hYW4wHhcNMTgwMjI4MTAwMDIxWhcNMjgwMjI2MTAwMDIxWjBMMQsw
CQYDVQQGEwJiZTESMBAGA1UECgwJa3Vuc3RtYWFuMQ0wCwYDVQQLDARhdXRoMRow
GAYDVQQDDBFhdXRoLmt1bnN0bWFhbi5iZTBZMBMGByqGSM49AgEGCCqGSM49AwEH
A0IABF4KXKGQqZARv4YCms5dyAhMdlk/uzzmYPZlyTHBTYEZ4u19LnBr9At/gIKJ
1fyQqKDqxRNJnnm2zl5L6MxHnqCjgZEwgY4wGgYIKgMEBQYHCAEEDgwMeyJhdHRy
cyI6e319MB8GA1UdIwQYMBaAFP+/LS/4q32+1QbScVMRXAjgdFgdMA8GA1UdEwEB
/wQFMAMBAf8wHQYDVR0OBBYEFE8HEYUPXizCnkmHbqJ71s1JUhf5MA8GA1UdJQQI
MAYGBFUdJQAwDgYDVR0PAQH/BAQDAgGmMAoGCCqGSM49BAMCA0kAMEYCIQDWIPU7
KEulURdK7u6A81tK5MpS7LV9GLHsfiO7M2i1YQIhAJuVQ4yrFn8mF4nqjarIgaEo
EQcxeW2ODB/RZk8xhwau
-----END CERTIFICATE-----
Certificate:
    Data:
        Version: 3 (0x2)
        Serial Number:
            8c:65:21:df:bc:9d:f4:4a
    Signature Algorithm: ecdsa-with-SHA256
        Issuer: C=be, O=kunstmaan, OU=auth, CN=auth.kunstmaan.be
        Validity
            Not Before: Feb 28 10:00:25 2018 GMT
            Not After : Feb 26 10:00:25 2028 GMT
        Subject: C=be, O=kunstmaan, OU=auth, CN=user-4.auth.kunstmaan.be
        Subject Public Key Info:
            Public Key Algorithm: id-ecPublicKey
                Public-Key: (256 bit)
                pub: 
                    04:68:66:69:7b:db:27:e8:a1:18:ff:45:d5:01:0b:
                    c8:8b:65:90:57:06:62:eb:4b:11:8b:d9:22:ba:df:
                    16:c7:ca:68:ca:df:32:04:ee:04:ac:4f:ba:c2:6b:
                    22:37:f8:80:c4:99:d1:81:e2:54:a7:5d:88:81:ef:
                    eb:e7:31:75:6c
                ASN1 OID: prime256v1
                NIST CURVE: P-256
        X509v3 extensions:
            1.2.3.4.5.6.7.8.1: 
                ..{"attrs":{"Name":"user-4"}}
            X509v3 Authority Key Identifier: 
                keyid:4F:07:11:85:0F:5E:2C:C2:9E:49:87:6E:A2:7B:D6:CD:49:52:17:F9

            X509v3 Basic Constraints: critical
                CA:FALSE
            X509v3 Subject Key Identifier: 
                F7:2B:C2:87:71:70:0B:56:22:78:68:03:5C:D4:B1:33:FF:50:1B:7E
            X509v3 Key Usage: critical
                Digital Signature
    Signature Algorithm: ecdsa-with-SHA256
         30:46:02:21:00:d6:3d:bb:b1:bb:42:27:7c:ab:5b:c3:24:1f:
         81:52:2d:83:39:f5:83:c5:ff:8d:ee:2a:cd:99:8b:96:9b:a5:
         19:02:21:00:c3:c7:d7:99:e9:46:86:59:18:c8:88:72:af:10:
         a0:f3:df:20:59:46:4f:b7:b0:b5:d9:ff:76:d3:c0:99:d5:d1
-----BEGIN CERTIFICATE-----
MIICJDCCAcmgAwIBAgIJAIxlId+8nfRKMAoGCCqGSM49BAMCMEwxCzAJBgNVBAYT
AmJlMRIwEAYDVQQKDAlrdW5zdG1hYW4xDTALBgNVBAsMBGF1dGgxGjAYBgNVBAMM
EWF1dGgua3Vuc3RtYWFuLmJlMB4XDTE4MDIyODEwMDAyNVoXDTI4MDIyNjEwMDAy
NVowUzELMAkGA1UEBhMCYmUxEjAQBgNVBAoMCWt1bnN0bWFhbjENMAsGA1UECwwE
YXV0aDEhMB8GA1UEAwwYdXNlci00LmF1dGgua3Vuc3RtYWFuLmJlMFkwEwYHKoZI
zj0CAQYIKoZIzj0DAQcDQgAEaGZpe9sn6KEY/0XVAQvIi2WQVwZi60sRi9kiut8W
x8poyt8yBO4ErE+6wmsiN/iAxJnRgeJUp12Ige/r5zF1bKOBjDCBiTApBggqAwQF
BgcIAQQdDBt7ImF0dHJzIjp7Ik5hbWUiOiJ1c2VyLTQifX0wHwYDVR0jBBgwFoAU
TwcRhQ9eLMKeSYduonvWzUlSF/kwDAYDVR0TAQH/BAIwADAdBgNVHQ4EFgQU9yvC
h3FwC1YieGgDXNSxM/9QG34wDgYDVR0PAQH/BAQDAgeAMAoGCCqGSM49BAMCA0kA
MEYCIQDWPbuxu0InfKtbwyQfgVItgzn1g8X/je4qzZmLlpulGQIhAMPH15npRoZZ
GMiIcq8QoPPfIFlGT7ewtdn/dtPAmdXR
-----END CERTIFICATE-----
