Certificate:
    Data:
        Version: 3 (0x2)
        Serial Number:
            8c:f3:2a:69:f6:86:62:ed
    Signature Algorithm: ecdsa-with-SHA256
        Issuer: CN=kunstmaan.be, OU=ca, C=be, O=kunstmaan
        Validity
            Not Before: Feb 28 10:12:52 2018 GMT
            Not After : Feb 23 10:12:52 2038 GMT
        Subject: CN=kunstmaan.be, OU=ca, C=be, O=kunstmaan
        Subject Public Key Info:
            Public Key Algorithm: id-ecPublicKey
                Public-Key: (256 bit)
                pub: 
                    04:02:a1:be:09:b2:3d:b5:b8:a4:79:79:63:d5:72:
                    83:db:4d:e7:0a:15:ac:b5:43:b5:58:48:2e:a4:b1:
                    bd:b5:b5:97:4b:ca:7a:73:bd:58:3f:d9:7b:12:8e:
                    1f:71:9f:1e:51:f9:5d:a1:fd:42:c3:4b:39:f3:34:
                    80:3f:f0:3e:b7
                ASN1 OID: prime256v1
                NIST CURVE: P-256
        X509v3 extensions:
            X509v3 Subject Key Identifier: 
                5B:94:1B:FA:3D:97:08:38:D0:52:B7:C6:20:15:62:CB:C6:D1:D3:5D
            X509v3 Basic Constraints: critical
                CA:TRUE
            X509v3 Key Usage: critical
                Digital Signature, Key Encipherment, Certificate Sign, CRL Sign
            X509v3 Extended Key Usage: 
                Any Extended Key Usage
    Signature Algorithm: ecdsa-with-SHA256
         30:46:02:21:00:af:95:be:b4:d4:61:50:70:9b:3e:27:7a:b9:
         84:48:af:f0:09:1a:eb:a4:4f:6c:fc:49:bd:d0:67:bb:cd:fb:
         34:02:21:00:e2:10:b6:83:fd:30:d8:65:19:73:54:b6:fb:48:
         90:d6:55:fc:c6:bf:4b:24:ae:62:fd:fc:7e:36:c0:78:b6:b9
-----BEGIN CERTIFICATE-----
MIIB1TCCAXqgAwIBAgIJAIzzKmn2hmLtMAoGCCqGSM49BAMCMEUxFTATBgNVBAMM
DGt1bnN0bWFhbi5iZTELMAkGA1UECwwCY2ExCzAJBgNVBAYTAmJlMRIwEAYDVQQK
DAlrdW5zdG1hYW4wHhcNMTgwMjI4MTAxMjUyWhcNMzgwMjIzMTAxMjUyWjBFMRUw
EwYDVQQDDAxrdW5zdG1hYW4uYmUxCzAJBgNVBAsMAmNhMQswCQYDVQQGEwJiZTES
MBAGA1UECgwJa3Vuc3RtYWFuMFkwEwYHKoZIzj0CAQYIKoZIzj0DAQcDQgAEAqG+
CbI9tbikeXlj1XKD203nChWstUO1WEgupLG9tbWXS8p6c71YP9l7Eo4fcZ8eUfld
of1Cw0s58zSAP/A+t6NTMFEwHQYDVR0OBBYEFFuUG/o9lwg40FK3xiAVYsvG0dNd
MA8GA1UdEwEB/wQFMAMBAf8wDgYDVR0PAQH/BAQDAgGmMA8GA1UdJQQIMAYGBFUd
JQAwCgYIKoZIzj0EAwIDSQAwRgIhAK+VvrTUYVBwmz4nermESK/wCRrrpE9s/Em9
0Ge7zfs0AiEA4hC2g/0w2GUZc1S2+0iQ1lX8xr9LJK5i/fx+NsB4trk=
-----END CERTIFICATE-----
Certificate:
    Data:
        Version: 3 (0x2)
        Serial Number:
            e4:ba:d4:c7:8b:b8:72:18
    Signature Algorithm: ecdsa-with-SHA256
        Issuer: CN=kunstmaan.be, OU=ca, C=be, O=kunstmaan
        Validity
            Not Before: Feb 28 10:12:55 2018 GMT
            Not After : Feb 26 10:12:55 2028 GMT
        Subject: C=be, O=kunstmaan, OU=auth, CN=auth.kunstmaan.be
        Subject Public Key Info:
            Public Key Algorithm: id-ecPublicKey
                Public-Key: (256 bit)
                pub: 
                    04:76:c4:8f:86:6e:44:49:16:2a:30:1e:98:68:59:
                    36:0e:a1:4b:5c:53:7e:12:73:43:bb:0f:0b:d6:94:
                    f7:fc:f9:e6:23:59:85:85:81:38:57:7e:67:02:9c:
                    5b:ec:54:17:8b:1e:57:3e:97:fe:9f:54:0b:72:ec:
                    6a:14:88:c4:32
                ASN1 OID: prime256v1
                NIST CURVE: P-256
        X509v3 extensions:
            1.2.3.4.5.6.7.8.1: 
                ..{"attrs":{}}
            X509v3 Authority Key Identifier: 
                keyid:5B:94:1B:FA:3D:97:08:38:D0:52:B7:C6:20:15:62:CB:C6:D1:D3:5D

            X509v3 Basic Constraints: critical
                CA:TRUE
            X509v3 Subject Key Identifier: 
                26:13:21:A8:F5:D7:53:4D:99:52:9D:4C:C0:71:9C:FF:33:ED:03:87
            X509v3 Key Usage: critical
                Digital Signature, Key Encipherment, Certificate Sign, CRL Sign
            X509v3 Extended Key Usage: 
                TLS Web Server Authentication, TLS Web Client Authentication
    Signature Algorithm: ecdsa-with-SHA256
         30:45:02:20:4a:ed:0b:e7:b3:b9:db:9b:c5:df:3f:ba:2e:27:
         3c:2f:ea:15:93:fa:2c:3a:c9:2e:3c:72:93:7e:1f:ca:a5:ad:
         02:21:00:ea:63:42:da:c2:52:ac:e1:9c:51:10:aa:d7:f6:e3:
         08:0a:93:20:a9:a9:d9:97:46:20:65:93:33:7c:4a:e1:2f
-----BEGIN CERTIFICATE-----
MIICKDCCAc6gAwIBAgIJAOS61MeLuHIYMAoGCCqGSM49BAMCMEUxFTATBgNVBAMM
DGt1bnN0bWFhbi5iZTELMAkGA1UECwwCY2ExCzAJBgNVBAYTAmJlMRIwEAYDVQQK
DAlrdW5zdG1hYW4wHhcNMTgwMjI4MTAxMjU1WhcNMjgwMjI2MTAxMjU1WjBMMQsw
CQYDVQQGEwJiZTESMBAGA1UECgwJa3Vuc3RtYWFuMQ0wCwYDVQQLDARhdXRoMRow
GAYDVQQDDBFhdXRoLmt1bnN0bWFhbi5iZTBZMBMGByqGSM49AgEGCCqGSM49AwEH
A0IABHbEj4ZuREkWKjAemGhZNg6hS1xTfhJzQ7sPC9aU9/z55iNZhYWBOFd+ZwKc
W+xUF4seVz6X/p9UC3LsahSIxDKjgZ8wgZwwGgYIKgMEBQYHCAEEDgwMeyJhdHRy
cyI6e319MB8GA1UdIwQYMBaAFFuUG/o9lwg40FK3xiAVYsvG0dNdMA8GA1UdEwEB
/wQFMAMBAf8wHQYDVR0OBBYEFCYTIaj111NNmVKdTMBxnP8z7QOHMA4GA1UdDwEB
/wQEAwIBpjAdBgNVHSUEFjAUBggrBgEFBQcDAQYIKwYBBQUHAwIwCgYIKoZIzj0E
AwIDSAAwRQIgSu0L57O525vF3z+6Lic8L+oVk/osOskuPHKTfh/Kpa0CIQDqY0La
wlKs4ZxREKrX9uMICpMgqanZl0YgZZMzfErhLw==
-----END CERTIFICATE-----
Certificate:
    Data:
        Version: 3 (0x2)
        Serial Number:
            bc:0e:63:a7:90:4f:55:b4
    Signature Algorithm: ecdsa-with-SHA256
        Issuer: C=be, O=kunstmaan, OU=auth, CN=auth.kunstmaan.be
        Validity
            Not Before: Feb 28 10:13:00 2018 GMT
            Not After : Feb 26 10:13:00 2028 GMT
        Subject: C=be, O=kunstmaan, OU=auth, CN=user-4.auth.kunstmaan.be
        Subject Public Key Info:
            Public Key Algorithm: id-ecPublicKey
                Public-Key: (256 bit)
                pub: 
                    04:d1:30:ea:58:7d:27:6c:15:25:cd:7e:da:f3:36:
                    d6:51:ed:96:f0:e1:65:21:70:98:13:c4:6b:f8:5b:
                    3b:7e:d2:0d:35:40:11:cb:ea:33:c8:ef:3f:17:59:
                    ba:3c:fb:3c:f8:cd:f8:a2:55:15:3f:0e:ca:6e:0b:
                    09:08:df:d3:6b
                ASN1 OID: prime256v1
                NIST CURVE: P-256
        X509v3 extensions:
            1.2.3.4.5.6.7.8.1: 
                ..{"attrs":{"Name":"user-4"}}
            X509v3 Authority Key Identifier: 
                keyid:26:13:21:A8:F5:D7:53:4D:99:52:9D:4C:C0:71:9C:FF:33:ED:03:87

            X509v3 Basic Constraints: critical
                CA:FALSE
            X509v3 Subject Key Identifier: 
                1E:08:48:93:C4:0C:73:BF:42:2A:F8:A9:9E:7B:D0:38:BA:34:E2:E5
            X509v3 Key Usage: critical
                Digital Signature, Key Encipherment
            X509v3 Extended Key Usage: 
                TLS Web Server Authentication, TLS Web Client Authentication
    Signature Algorithm: ecdsa-with-SHA256
         30:45:02:21:00:f0:e5:82:8f:68:e0:81:78:0e:30:66:fe:c7:
         e7:fc:fd:37:f2:7d:98:81:ec:47:c2:2c:92:4a:d3:20:6e:6a:
         15:02:20:26:48:a8:38:22:18:be:0c:ae:0c:55:8b:bd:a5:75:
         bb:25:3a:d1:8e:3d:00:26:d7:64:de:26:7e:b0:3e:f4:ea
-----BEGIN CERTIFICATE-----
MIICQjCCAeigAwIBAgIJALwOY6eQT1W0MAoGCCqGSM49BAMCMEwxCzAJBgNVBAYT
AmJlMRIwEAYDVQQKDAlrdW5zdG1hYW4xDTALBgNVBAsMBGF1dGgxGjAYBgNVBAMM
EWF1dGgua3Vuc3RtYWFuLmJlMB4XDTE4MDIyODEwMTMwMFoXDTI4MDIyNjEwMTMw
MFowUzELMAkGA1UEBhMCYmUxEjAQBgNVBAoMCWt1bnN0bWFhbjENMAsGA1UECwwE
YXV0aDEhMB8GA1UEAwwYdXNlci00LmF1dGgua3Vuc3RtYWFuLmJlMFkwEwYHKoZI
zj0CAQYIKoZIzj0DAQcDQgAE0TDqWH0nbBUlzX7a8zbWUe2W8OFlIXCYE8Rr+Fs7
ftINNUARy+ozyO8/F1m6PPs8+M34olUVPw7KbgsJCN/Ta6OBqzCBqDApBggqAwQF
BgcIAQQdDBt7ImF0dHJzIjp7Ik5hbWUiOiJ1c2VyLTQifX0wHwYDVR0jBBgwFoAU
JhMhqPXXU02ZUp1MwHGc/zPtA4cwDAYDVR0TAQH/BAIwADAdBgNVHQ4EFgQUHghI
k8QMc79CKvipnnvQOLo04uUwDgYDVR0PAQH/BAQDAgWgMB0GA1UdJQQWMBQGCCsG
AQUFBwMBBggrBgEFBQcDAjAKBggqhkjOPQQDAgNIADBFAiEA8OWCj2jggXgOMGb+
x+f8/TfyfZiB7EfCLJJK0yBuahUCICZIqDgiGL4MrgxVi72ldbslOtGOPQAm12Te
Jn6wPvTq
-----END CERTIFICATE-----
