Certificate:
    Data:
        Version: 3 (0x2)
        Serial Number:
            cc:a1:93:a1:c3:77:e6:c7
        Signature Algorithm: ecdsa-with-SHA1
        Issuer: CN=kunstmaan.be, OU=ca, C=be, O=kunstmaan
        Validity
            Not Before: Feb 27 17:00:07 2018 GMT
            Not After : Feb 22 17:00:07 2038 GMT
        Subject: CN=kunstmaan.be, OU=ca, C=be, O=kunstmaan
        Subject Public Key Info:
            Public Key Algorithm: id-ecPublicKey
            EC Public Key:
                pub: 
                    04:5e:26:d8:79:c4:28:90:f4:f5:83:7d:5b:c3:c3:
                    18:df:9f:b2:14:fd:4d:01:c4:3c:bd:1c:47:38:44:
                    fa:d8:77:4c:ff:d9:91:14:23:74:0a:d9:f4:6b:ee:
                    b6:7d:cd:d3:2d:6b:0a:18:c2:67:22:f7:d5:80:1b:
                    b6:14:35:9e:6a
                ASN1 OID: prime256v1
        X509v3 extensions:
            X509v3 Subject Key Identifier: 
                36:DB:89:FC:56:3F:D3:96:CF:41:F0:4C:F0:DD:36:1E:C3:ED:2E:6A
            X509v3 Basic Constraints: critical
                CA:TRUE
            X509v3 Key Usage: critical
                Digital Signature, Key Encipherment, Certificate Sign, CRL Sign
            X509v3 Extended Key Usage: 
                2.5.29.37.0
    Signature Algorithm: ecdsa-with-SHA1
        30:44:02:20:5e:9d:c1:0f:5a:c6:2f:ab:08:78:d1:b8:ef:e3:
        bc:d1:ce:9c:b3:11:62:94:d8:15:d5:01:77:f9:a6:d4:5b:ff:
        02:20:5e:13:4c:5f:10:93:93:6a:67:4a:a7:5c:42:d7:1c:88:
        e2:32:a6:ab:86:b9:36:f3:4d:c1:c9:96:9d:52:5a:8a
-----BEGIN CERTIFICATE-----
MIIB0TCCAXmgAwIBAgIJAMyhk6HDd+bHMAkGByqGSM49BAEwRTEVMBMGA1UEAwwM
a3Vuc3RtYWFuLmJlMQswCQYDVQQLDAJjYTELMAkGA1UEBhMCYmUxEjAQBgNVBAoM
CWt1bnN0bWFhbjAeFw0xODAyMjcxNzAwMDdaFw0zODAyMjIxNzAwMDdaMEUxFTAT
BgNVBAMMDGt1bnN0bWFhbi5iZTELMAkGA1UECwwCY2ExCzAJBgNVBAYTAmJlMRIw
EAYDVQQKDAlrdW5zdG1hYW4wWTATBgcqhkjOPQIBBggqhkjOPQMBBwNCAAReJth5
xCiQ9PWDfVvDwxjfn7IU/U0BxDy9HEc4RPrYd0z/2ZEUI3QK2fRr7rZ9zdMtawoY
wmci99WAG7YUNZ5qo1MwUTAdBgNVHQ4EFgQUNtuJ/FY/05bPQfBM8N02HsPtLmow
DwYDVR0TAQH/BAUwAwEB/zAOBgNVHQ8BAf8EBAMCAaYwDwYDVR0lBAgwBgYEVR0l
ADAJBgcqhkjOPQQBA0cAMEQCIF6dwQ9axi+rCHjRuO/jvNHOnLMRYpTYFdUBd/mm
1Fv/AiBeE0xfEJOTamdKp1xC1xyI4jKmq4a5NvNNwcmWnVJaig==
-----END CERTIFICATE-----
Certificate:
    Data:
        Version: 3 (0x2)
        Serial Number:
            ce:fa:79:d4:ce:12:2f:e2
        Signature Algorithm: ecdsa-with-SHA1
        Issuer: CN=kunstmaan.be, OU=ca, C=be, O=kunstmaan
        Validity
            Not Before: Feb 27 17:00:11 2018 GMT
            Not After : Feb 25 17:00:11 2028 GMT
        Subject: C=be, O=kunstmaan, OU=auth, CN=auth.kunstmaan.be
        Subject Public Key Info:
            Public Key Algorithm: id-ecPublicKey
            EC Public Key:
                pub: 
                    04:d1:04:66:66:74:9a:ed:b9:ef:63:fb:7b:cc:6f:
                    61:95:01:de:d2:b9:54:c5:75:62:9a:b8:8d:8f:37:
                    43:5e:42:91:be:72:c2:7e:08:df:02:80:5e:85:d3:
                    8d:71:67:7e:76:9c:94:f5:6c:80:75:0b:e4:0e:31:
                    5d:85:d8:75:cd
                ASN1 OID: prime256v1
        X509v3 extensions:
            1.2.3.4.5.6.7.8.1: 
                ..{"attrs":{}}
            X509v3 Authority Key Identifier: 
                keyid:36:DB:89:FC:56:3F:D3:96:CF:41:F0:4C:F0:DD:36:1E:C3:ED:2E:6A

            X509v3 Basic Constraints: critical
                CA:TRUE
            X509v3 Subject Key Identifier: 
                80:63:DD:37:12:8B:E5:B9:3A:BD:96:0D:EC:EE:BF:E3:2C:66:0B:12
            X509v3 Key Usage: critical
                Digital Signature, Key Encipherment, Certificate Sign, CRL Sign
            X509v3 Extended Key Usage: 
                TLS Web Server Authentication, TLS Web Client Authentication
    Signature Algorithm: ecdsa-with-SHA1
        30:45:02:21:00:99:0c:c0:0a:dd:8e:67:0f:48:e4:10:30:59:
        08:98:0e:9f:33:af:a8:bb:73:18:30:77:2e:5d:2b:e7:b4:e0:
        18:02:20:06:5c:e5:9f:20:77:43:cc:01:34:1a:af:a9:4f:c6:
        cc:6c:27:7a:50:1c:e6:fa:9f:3b:65:52:a1:8f:f4:49:10
-----BEGIN CERTIFICATE-----
MIICJjCCAc2gAwIBAgIJAM76edTOEi/iMAkGByqGSM49BAEwRTEVMBMGA1UEAwwM
a3Vuc3RtYWFuLmJlMQswCQYDVQQLDAJjYTELMAkGA1UEBhMCYmUxEjAQBgNVBAoM
CWt1bnN0bWFhbjAeFw0xODAyMjcxNzAwMTFaFw0yODAyMjUxNzAwMTFaMEwxCzAJ
BgNVBAYTAmJlMRIwEAYDVQQKDAlrdW5zdG1hYW4xDTALBgNVBAsMBGF1dGgxGjAY
BgNVBAMMEWF1dGgua3Vuc3RtYWFuLmJlMFkwEwYHKoZIzj0CAQYIKoZIzj0DAQcD
QgAE0QRmZnSa7bnvY/t7zG9hlQHe0rlUxXVimriNjzdDXkKRvnLCfgjfAoBehdON
cWd+dpyU9WyAdQvkDjFdhdh1zaOBnzCBnDAaBggqAwQFBgcIAQQODAx7ImF0dHJz
Ijp7fX0wHwYDVR0jBBgwFoAUNtuJ/FY/05bPQfBM8N02HsPtLmowDwYDVR0TAQH/
BAUwAwEB/zAdBgNVHQ4EFgQUgGPdNxKL5bk6vZYN7O6/4yxmCxIwDgYDVR0PAQH/
BAQDAgGmMB0GA1UdJQQWMBQGCCsGAQUFBwMBBggrBgEFBQcDAjAJBgcqhkjOPQQB
A0gAMEUCIQCZDMAK3Y5nD0jkEDBZCJgOnzOvqLtzGDB3Ll0r57TgGAIgBlzlnyB3
Q8wBNBqvqU/GzGwnelAc5vqfO2VSoY/0SRA=
-----END CERTIFICATE-----
Certificate:
    Data:
        Version: 3 (0x2)
        Serial Number:
            df:8b:8e:25:41:b3:a7:bb
        Signature Algorithm: ecdsa-with-SHA1
        Issuer: C=be, O=kunstmaan, OU=auth, CN=auth.kunstmaan.be
        Validity
            Not Before: Feb 27 17:00:17 2018 GMT
            Not After : Feb 25 17:00:17 2028 GMT
        Subject: C=be, O=kunstmaan, OU=auth, CN=user-4.auth.kunstmaan.be
        Subject Public Key Info:
            Public Key Algorithm: id-ecPublicKey
            EC Public Key:
                pub: 
                    04:db:e3:d2:96:49:f1:d9:7a:3c:70:8c:09:da:64:
                    fb:05:48:bd:12:a2:54:98:fa:00:07:50:41:c3:1b:
                    9f:48:b1:3f:19:fe:9b:c7:7b:18:84:9f:fe:95:bf:
                    38:b1:22:e5:23:7e:8e:0a:c3:55:a4:a3:99:cd:04:
                    35:f8:17:78:c0
                ASN1 OID: prime256v1
        X509v3 extensions:
            1.2.3.4.5.6.7.8.1: 
                ..{"attrs":{"Name":"user-4"}}
            X509v3 Authority Key Identifier: 
                keyid:80:63:DD:37:12:8B:E5:B9:3A:BD:96:0D:EC:EE:BF:E3:2C:66:0B:12

            X509v3 Basic Constraints: critical
                CA:FALSE
            X509v3 Subject Key Identifier: 
                44:FC:BA:F1:D2:9B:92:21:36:F3:32:91:77:E1:50:66:4E:4F:F3:79
            X509v3 Key Usage: critical
                Digital Signature, Key Encipherment
            X509v3 Extended Key Usage: 
                TLS Web Server Authentication, TLS Web Client Authentication
    Signature Algorithm: ecdsa-with-SHA1
        30:44:02:20:15:93:27:78:bb:02:c6:28:6b:a1:93:c2:77:f4:
        21:7c:ad:a7:1c:ec:7e:1b:1e:3d:12:27:ac:fa:bc:47:c2:a5:
        02:20:54:c8:8f:35:e2:5c:94:5b:16:47:9c:fe:dc:a7:d4:9f:
        c0:d9:e6:d2:2b:19:7f:73:ea:db:8f:3b:16:d7:a9:81
-----BEGIN CERTIFICATE-----
MIICPzCCAeegAwIBAgIJAN+LjiVBs6e7MAkGByqGSM49BAEwTDELMAkGA1UEBhMC
YmUxEjAQBgNVBAoMCWt1bnN0bWFhbjENMAsGA1UECwwEYXV0aDEaMBgGA1UEAwwR
YXV0aC5rdW5zdG1hYW4uYmUwHhcNMTgwMjI3MTcwMDE3WhcNMjgwMjI1MTcwMDE3
WjBTMQswCQYDVQQGEwJiZTESMBAGA1UECgwJa3Vuc3RtYWFuMQ0wCwYDVQQLDARh
dXRoMSEwHwYDVQQDDBh1c2VyLTQuYXV0aC5rdW5zdG1hYW4uYmUwWTATBgcqhkjO
PQIBBggqhkjOPQMBBwNCAATb49KWSfHZejxwjAnaZPsFSL0SolSY+gAHUEHDG59I
sT8Z/pvHexiEn/6VvzixIuUjfo4Kw1Wko5nNBDX4F3jAo4GrMIGoMCkGCCoDBAUG
BwgBBB0MG3siYXR0cnMiOnsiTmFtZSI6InVzZXItNCJ9fTAfBgNVHSMEGDAWgBSA
Y903EovluTq9lg3s7r/jLGYLEjAMBgNVHRMBAf8EAjAAMB0GA1UdDgQWBBRE/Lrx
0puSITbzMpF34VBmTk/zeTAOBgNVHQ8BAf8EBAMCBaAwHQYDVR0lBBYwFAYIKwYB
BQUHAwEGCCsGAQUFBwMCMAkGByqGSM49BAEDRwAwRAIgFZMneLsCxihroZPCd/Qh
fK2nHOx+Gx49Eies+rxHwqUCIFTIjzXiXJRbFkec/tyn1J/A2ebSKxl/c+rbjzsW
16mB
-----END CERTIFICATE-----
