Certificate:
    Data:
        Version: 3 (0x2)
        Serial Number:
            98:e5:59:a6:55:3a:a6:7b
    Signature Algorithm: ecdsa-with-SHA256
        Issuer: C=be, O=kunstmaan, OU=org, CN=org.kunstmaan.be
        Validity
            Not Before: Feb 28 10:00:21 2018 GMT
            Not After : Feb 26 10:00:21 2028 GMT
        Subject: C=be, O=kunstmaan, OU=org, CN=kumapeer.org.kunstmaan.be
        Subject Public Key Info:
            Public Key Algorithm: id-ecPublicKey
                Public-Key: (256 bit)
                pub: 
                    04:ea:dd:a4:ea:a4:ed:cc:03:15:f5:79:db:88:86:
                    60:f0:2b:29:3f:10:2d:1d:ab:14:97:9b:44:0b:65:
                    3b:eb:08:62:cb:d0:c8:0f:44:e5:e1:1e:e9:b6:ba:
                    3c:b2:9e:6b:e6:c9:8c:6b:58:2f:f5:cb:a0:2c:dd:
                    4c:3b:c1:60:d5
                ASN1 OID: prime256v1
                NIST CURVE: P-256
        X509v3 extensions:
            1.2.3.4.5.6.7.8.1: 
                ..{"attrs":{}}
            X509v3 Authority Key Identifier: 
                keyid:6B:9C:F9:1B:41:1F:57:6B:39:F6:6F:01:3E:23:65:75:2B:4C:81:D1

            X509v3 Basic Constraints: critical
                CA:FALSE
            X509v3 Subject Key Identifier: 
                6B:EB:B7:E8:14:A7:3C:71:DE:F9:DB:3F:5F:11:24:BE:12:9C:22:0F
            X509v3 Key Usage: critical
                Digital Signature, Key Encipherment
            X509v3 Extended Key Usage: 
                TLS Web Server Authentication, TLS Web Client Authentication
    Signature Algorithm: ecdsa-with-SHA256
         30:45:02:21:00:f4:26:1c:00:d5:55:1e:5d:88:79:09:94:12:
         45:e7:c7:e5:e7:7a:13:5e:6f:90:97:04:12:49:93:5c:10:9b:
         76:02:20:0d:fc:85:d2:2e:91:78:27:ef:a2:df:31:7b:ad:6b:
         a4:8b:4b:e8:6e:07:b9:1f:ed:60:3b:6a:c9:69:22:8d:23
-----BEGIN CERTIFICATE-----
MIICMTCCAdegAwIBAgIJAJjlWaZVOqZ7MAoGCCqGSM49BAMCMEoxCzAJBgNVBAYT
AmJlMRIwEAYDVQQKDAlrdW5zdG1hYW4xDDAKBgNVBAsMA29yZzEZMBcGA1UEAwwQ
b3JnLmt1bnN0bWFhbi5iZTAeFw0xODAyMjgxMDAwMjFaFw0yODAyMjYxMDAwMjFa
MFMxCzAJBgNVBAYTAmJlMRIwEAYDVQQKDAlrdW5zdG1hYW4xDDAKBgNVBAsMA29y
ZzEiMCAGA1UEAwwZa3VtYXBlZXIub3JnLmt1bnN0bWFhbi5iZTBZMBMGByqGSM49
AgEGCCqGSM49AwEHA0IABOrdpOqk7cwDFfV524iGYPArKT8QLR2rFJebRAtlO+sI
YsvQyA9E5eEe6ba6PLKea+bJjGtYL/XLoCzdTDvBYNWjgZwwgZkwGgYIKgMEBQYH
CAEEDgwMeyJhdHRycyI6e319MB8GA1UdIwQYMBaAFGuc+RtBH1drOfZvAT4jZXUr
TIHRMAwGA1UdEwEB/wQCMAAwHQYDVR0OBBYEFGvrt+gUpzxx3vnbP18RJL4SnCIP
MA4GA1UdDwEB/wQEAwIFoDAdBgNVHSUEFjAUBggrBgEFBQcDAQYIKwYBBQUHAwIw
CgYIKoZIzj0EAwIDSAAwRQIhAPQmHADVVR5diHkJlBJF58fl53oTXm+QlwQSSZNc
EJt2AiAN/IXSLpF4J++i3zF7rWuki0vobge5H+1gO2rJaSKNIw==
-----END CERTIFICATE-----
