Certificate:
    Data:
        Version: 3 (0x2)
        Serial Number:
            b4:2b:cf:5d:ba:ab:b2:9d
    Signature Algorithm: ecdsa-with-SHA256
        Issuer: C=be, O=kunstmaan, OU=org, CN=org.kunstmaan.be
        Validity
            Not Before: Feb 28 10:12:55 2018 GMT
            Not After : Feb 26 10:12:55 2028 GMT
        Subject: C=be, O=kunstmaan, OU=org, CN=kumapeer.org.kunstmaan.be
        Subject Public Key Info:
            Public Key Algorithm: id-ecPublicKey
                Public-Key: (256 bit)
                pub: 
                    04:96:ff:fe:60:7f:a1:5f:2d:5a:cc:df:97:bf:0d:
                    3f:82:b1:1b:1f:19:55:63:8a:3d:f6:bf:25:db:a6:
                    b2:35:15:66:81:7c:87:80:6e:80:96:7a:16:ff:23:
                    c9:fd:72:b7:fe:30:1c:85:66:3c:16:45:c0:08:60:
                    bf:db:19:d0:d5
                ASN1 OID: prime256v1
                NIST CURVE: P-256
        X509v3 extensions:
            1.2.3.4.5.6.7.8.1: 
                ..{"attrs":{}}
            X509v3 Authority Key Identifier: 
                keyid:21:26:6E:CC:58:10:2E:BE:D2:15:53:E3:22:BE:F0:04:B7:E5:84:7E

            X509v3 Basic Constraints: critical
                CA:FALSE
            X509v3 Subject Key Identifier: 
                DB:41:95:6C:7C:B9:D7:B8:2A:6A:A7:76:ED:EC:77:3B:41:1A:5F:CE
            X509v3 Key Usage: critical
                Digital Signature, Key Encipherment
            X509v3 Extended Key Usage: 
                TLS Web Server Authentication, TLS Web Client Authentication
    Signature Algorithm: ecdsa-with-SHA256
         30:44:02:20:0e:ab:39:cb:0e:98:b0:a3:4e:64:a4:80:53:77:
         be:5c:b5:6a:ff:84:d4:4e:16:6b:3d:ff:bc:fa:aa:28:00:7e:
         02:20:2d:65:f3:ae:b9:92:e9:b6:17:4e:2c:6b:ad:60:ed:cc:
         86:d2:42:a8:16:e6:bd:37:2a:2c:64:5d:42:62:d0:da
-----BEGIN CERTIFICATE-----
MIICMDCCAdegAwIBAgIJALQrz126q7KdMAoGCCqGSM49BAMCMEoxCzAJBgNVBAYT
AmJlMRIwEAYDVQQKDAlrdW5zdG1hYW4xDDAKBgNVBAsMA29yZzEZMBcGA1UEAwwQ
b3JnLmt1bnN0bWFhbi5iZTAeFw0xODAyMjgxMDEyNTVaFw0yODAyMjYxMDEyNTVa
MFMxCzAJBgNVBAYTAmJlMRIwEAYDVQQKDAlrdW5zdG1hYW4xDDAKBgNVBAsMA29y
ZzEiMCAGA1UEAwwZa3VtYXBlZXIub3JnLmt1bnN0bWFhbi5iZTBZMBMGByqGSM49
AgEGCCqGSM49AwEHA0IABJb//mB/oV8tWszfl78NP4KxGx8ZVWOKPfa/JdumsjUV
ZoF8h4BugJZ6Fv8jyf1yt/4wHIVmPBZFwAhgv9sZ0NWjgZwwgZkwGgYIKgMEBQYH
CAEEDgwMeyJhdHRycyI6e319MB8GA1UdIwQYMBaAFCEmbsxYEC6+0hVT4yK+8AS3
5YR+MAwGA1UdEwEB/wQCMAAwHQYDVR0OBBYEFNtBlWx8ude4Kmqndu3sdztBGl/O
MA4GA1UdDwEB/wQEAwIFoDAdBgNVHSUEFjAUBggrBgEFBQcDAQYIKwYBBQUHAwIw
CgYIKoZIzj0EAwIDRwAwRAIgDqs5yw6YsKNOZKSAU3e+XLVq/4TUThZrPf+8+qoo
AH4CIC1l8665kum2F04sa61g7cyG0kKoFua9NyosZF1CYtDa
-----END CERTIFICATE-----
