Certificate:
    Data:
        Version: 3 (0x2)
        Serial Number:
            b8:f4:95:2b:08:24:d3:f2
        Signature Algorithm: ecdsa-with-SHA1
        Issuer: C=be, O=kunstmaan, OU=org, CN=org.kunstmaan.be
        Validity
            Not Before: Feb 27 17:00:10 2018 GMT
            Not After : Feb 25 17:00:10 2028 GMT
        Subject: C=be, O=kunstmaan, OU=org, CN=kumapeer.org.kunstmaan.be
        Subject Public Key Info:
            Public Key Algorithm: id-ecPublicKey
            EC Public Key:
                pub: 
                    04:d3:cc:b5:29:c5:14:63:4e:fe:7b:69:e0:3d:5a:
                    87:3d:4d:8d:96:4f:93:7d:5a:a4:4f:60:aa:c8:30:
                    3d:05:00:1a:80:86:58:60:0e:a2:34:55:ee:79:9b:
                    4a:86:ee:5b:23:2b:af:26:05:f5:d1:33:8d:e3:85:
                    db:d9:e6:41:03
                ASN1 OID: prime256v1
        X509v3 extensions:
            1.2.3.4.5.6.7.8.1: 
                ..{"attrs":{}}
            X509v3 Authority Key Identifier: 
                keyid:89:9E:98:C2:9C:9A:BF:F0:F0:4E:93:13:CF:D9:90:22:10:CB:5F:FA

            X509v3 Basic Constraints: critical
                CA:FALSE
            X509v3 Subject Key Identifier: 
                AF:C6:4F:35:19:C2:6B:55:43:BB:06:24:43:54:50:3A:D0:A4:14:56
            X509v3 Key Usage: critical
                Digital Signature, Key Encipherment
            X509v3 Extended Key Usage: 
                TLS Web Server Authentication, TLS Web Client Authentication
    Signature Algorithm: ecdsa-with-SHA1
        30:45:02:20:4e:5b:90:1f:cb:a2:41:c2:fa:a1:ac:fc:0d:d0:
        89:0a:7c:ae:9a:c6:7b:4e:fb:47:05:ac:eb:f8:a6:c5:9f:a0:
        02:21:00:ed:05:1e:81:9e:06:b0:bf:a2:d3:72:32:ce:63:84:
        63:d2:27:92:3c:7f:39:77:a0:99:61:6a:97:20:11:ef:9b
-----BEGIN CERTIFICATE-----
MIICLzCCAdagAwIBAgIJALj0lSsIJNPyMAkGByqGSM49BAEwSjELMAkGA1UEBhMC
YmUxEjAQBgNVBAoMCWt1bnN0bWFhbjEMMAoGA1UECwwDb3JnMRkwFwYDVQQDDBBv
cmcua3Vuc3RtYWFuLmJlMB4XDTE4MDIyNzE3MDAxMFoXDTI4MDIyNTE3MDAxMFow
UzELMAkGA1UEBhMCYmUxEjAQBgNVBAoMCWt1bnN0bWFhbjEMMAoGA1UECwwDb3Jn
MSIwIAYDVQQDDBlrdW1hcGVlci5vcmcua3Vuc3RtYWFuLmJlMFkwEwYHKoZIzj0C
AQYIKoZIzj0DAQcDQgAE08y1KcUUY07+e2ngPVqHPU2Nlk+TfVqkT2CqyDA9BQAa
gIZYYA6iNFXueZtKhu5bIyuvJgX10TON44Xb2eZBA6OBnDCBmTAaBggqAwQFBgcI
AQQODAx7ImF0dHJzIjp7fX0wHwYDVR0jBBgwFoAUiZ6Ywpyav/DwTpMTz9mQIhDL
X/owDAYDVR0TAQH/BAIwADAdBgNVHQ4EFgQUr8ZPNRnCa1VDuwYkQ1RQOtCkFFYw
DgYDVR0PAQH/BAQDAgWgMB0GA1UdJQQWMBQGCCsGAQUFBwMBBggrBgEFBQcDAjAJ
BgcqhkjOPQQBA0gAMEUCIE5bkB/LokHC+qGs/A3QiQp8rprGe077RwWs6/imxZ+g
AiEA7QUegZ4GsL+i03IyzmOEY9Inkjx/OXegmWFqlyAR75s=
-----END CERTIFICATE-----
