Certificate:
    Data:
        Version: 3 (0x2)
        Serial Number:
            d1:dc:cc:8d:fe:67:5c:9b
    Signature Algorithm: ecdsa-with-SHA256
        Issuer: C=be, O=kunstmaan, OU=auth, CN=auth.kunstmaan.be
        Validity
            Not Before: Feb 28 10:00:23 2018 GMT
            Not After : Feb 26 10:00:23 2028 GMT
        Subject: C=be, O=kunstmaan, OU=auth, CN=user-1.auth.kunstmaan.be
        Subject Public Key Info:
            Public Key Algorithm: id-ecPublicKey
                Public-Key: (256 bit)
                pub: 
                    04:e5:76:da:1b:5e:ef:4c:8c:74:a5:d7:dc:c7:d6:
                    c8:6b:ac:f1:9f:45:75:a7:64:c3:cc:0b:5a:a1:6a:
                    75:73:17:c7:82:8c:ec:82:99:19:4a:a1:a6:f1:92:
                    a3:42:3a:aa:94:4a:8d:5c:d5:9f:07:47:72:5b:85:
                    31:89:f3:e3:5d
                ASN1 OID: prime256v1
                NIST CURVE: P-256
        X509v3 extensions:
            1.2.3.4.5.6.7.8.1: 
                ..{"attrs":{"Name":"user-1"}}
            X509v3 Authority Key Identifier: 
                keyid:1C:18:8D:F4:04:3A:E9:E5:E6:E1:BD:36:5D:40:98:41:20:AC:6D:FD

            X509v3 Basic Constraints: critical
                CA:FALSE
            X509v3 Subject Key Identifier: 
                72:64:1C:B2:90:0C:90:0C:9A:04:EA:30:19:71:7C:AC:45:A3:55:30
            X509v3 Key Usage: critical
                Digital Signature, Key Encipherment
            X509v3 Extended Key Usage: 
                TLS Web Server Authentication, TLS Web Client Authentication
    Signature Algorithm: ecdsa-with-SHA256
         30:45:02:21:00:c5:fb:ab:65:49:70:1f:59:e2:e9:66:bb:2c:
         31:64:8d:bd:7d:d4:1e:82:02:44:7b:5e:eb:2f:30:57:a4:16:
         28:02:20:79:5c:82:1d:78:98:22:f1:57:94:1e:22:4c:0b:13:
         e7:51:15:cb:4c:84:64:53:f1:f0:e0:e9:0b:ca:32:e0:21
-----BEGIN CERTIFICATE-----
MIICQjCCAeigAwIBAgIJANHczI3+Z1ybMAoGCCqGSM49BAMCMEwxCzAJBgNVBAYT
AmJlMRIwEAYDVQQKDAlrdW5zdG1hYW4xDTALBgNVBAsMBGF1dGgxGjAYBgNVBAMM
EWF1dGgua3Vuc3RtYWFuLmJlMB4XDTE4MDIyODEwMDAyM1oXDTI4MDIyNjEwMDAy
M1owUzELMAkGA1UEBhMCYmUxEjAQBgNVBAoMCWt1bnN0bWFhbjENMAsGA1UECwwE
YXV0aDEhMB8GA1UEAwwYdXNlci0xLmF1dGgua3Vuc3RtYWFuLmJlMFkwEwYHKoZI
zj0CAQYIKoZIzj0DAQcDQgAE5XbaG17vTIx0pdfcx9bIa6zxn0V1p2TDzAtaoWp1
cxfHgozsgpkZSqGm8ZKjQjqqlEqNXNWfB0dyW4UxifPjXaOBqzCBqDApBggqAwQF
BgcIAQQdDBt7ImF0dHJzIjp7Ik5hbWUiOiJ1c2VyLTEifX0wHwYDVR0jBBgwFoAU
HBiN9AQ66eXm4b02XUCYQSCsbf0wDAYDVR0TAQH/BAIwADAdBgNVHQ4EFgQUcmQc
spAMkAyaBOowGXF8rEWjVTAwDgYDVR0PAQH/BAQDAgWgMB0GA1UdJQQWMBQGCCsG
AQUFBwMBBggrBgEFBQcDAjAKBggqhkjOPQQDAgNIADBFAiEAxfurZUlwH1ni6Wa7
LDFkjb191B6CAkR7XusvMFekFigCIHlcgh14mCLxV5QeIkwLE+dRFctMhGRT8fDg
6QvKMuAh
-----END CERTIFICATE-----
