Certificate:
    Data:
        Version: 3 (0x2)
        Serial Number:
            f7:bc:25:03:9e:cc:47:1a
        Signature Algorithm: ecdsa-with-SHA1
        Issuer: C=be, O=kunstmaan, OU=auth, CN=auth.kunstmaan.be
        Validity
            Not Before: Feb 27 17:00:14 2018 GMT
            Not After : Feb 25 17:00:14 2028 GMT
        Subject: C=be, O=kunstmaan, OU=auth, CN=user-1.auth.kunstmaan.be
        Subject Public Key Info:
            Public Key Algorithm: id-ecPublicKey
            EC Public Key:
                pub: 
                    04:9f:c3:d4:44:c7:2b:74:ed:ad:cf:ac:c2:c8:d3:
                    e4:cd:e2:66:33:68:5a:83:71:b5:d1:0b:b4:3a:56:
                    5a:3a:58:24:78:f9:87:f8:d5:d8:3c:ac:f8:18:f7:
                    85:52:ce:c6:c1:73:39:ed:f2:5f:0f:b7:f1:97:8c:
                    f1:e2:2a:de:e9
                ASN1 OID: prime256v1
        X509v3 extensions:
            1.2.3.4.5.6.7.8.1: 
                ..{"attrs":{"Name":"user-1"}}
            X509v3 Authority Key Identifier: 
                keyid:80:63:DD:37:12:8B:E5:B9:3A:BD:96:0D:EC:EE:BF:E3:2C:66:0B:12

            X509v3 Basic Constraints: critical
                CA:FALSE
            X509v3 Subject Key Identifier: 
                A0:FB:5A:BC:32:8E:45:44:25:33:1D:F0:0F:C4:40:B7:90:25:A7:A5
            X509v3 Key Usage: critical
                Digital Signature, Key Encipherment
            X509v3 Extended Key Usage: 
                TLS Web Server Authentication, TLS Web Client Authentication
    Signature Algorithm: ecdsa-with-SHA1
        30:45:02:21:00:b3:63:ee:02:52:d4:7d:ac:d9:e4:ae:86:18:
        34:40:19:c7:81:90:37:32:98:a4:59:d5:e5:cb:0b:a3:3b:11:
        da:02:20:63:37:e6:7f:50:0a:c6:d8:56:23:e4:cc:9b:35:cb:
        6e:d1:03:7e:d1:84:80:5b:90:1b:93:a1:04:5d:78:7f:eb
-----BEGIN CERTIFICATE-----
MIICQDCCAeegAwIBAgIJAPe8JQOezEcaMAkGByqGSM49BAEwTDELMAkGA1UEBhMC
YmUxEjAQBgNVBAoMCWt1bnN0bWFhbjENMAsGA1UECwwEYXV0aDEaMBgGA1UEAwwR
YXV0aC5rdW5zdG1hYW4uYmUwHhcNMTgwMjI3MTcwMDE0WhcNMjgwMjI1MTcwMDE0
WjBTMQswCQYDVQQGEwJiZTESMBAGA1UECgwJa3Vuc3RtYWFuMQ0wCwYDVQQLDARh
dXRoMSEwHwYDVQQDDBh1c2VyLTEuYXV0aC5rdW5zdG1hYW4uYmUwWTATBgcqhkjO
PQIBBggqhkjOPQMBBwNCAASfw9RExyt07a3PrMLI0+TN4mYzaFqDcbXRC7Q6Vlo6
WCR4+Yf41dg8rPgY94VSzsbBcznt8l8Pt/GXjPHiKt7po4GrMIGoMCkGCCoDBAUG
BwgBBB0MG3siYXR0cnMiOnsiTmFtZSI6InVzZXItMSJ9fTAfBgNVHSMEGDAWgBSA
Y903EovluTq9lg3s7r/jLGYLEjAMBgNVHRMBAf8EAjAAMB0GA1UdDgQWBBSg+1q8
Mo5FRCUzHfAPxEC3kCWnpTAOBgNVHQ8BAf8EBAMCBaAwHQYDVR0lBBYwFAYIKwYB
BQUHAwEGCCsGAQUFBwMCMAkGByqGSM49BAEDSAAwRQIhALNj7gJS1H2s2eSuhhg0
QBnHgZA3MpikWdXlywujOxHaAiBjN+Z/UArG2FYj5MybNctu0QN+0YSAW5Abk6EE
XXh/6w==
-----END CERTIFICATE-----
