Certificate:
    Data:
        Version: 3 (0x2)
        Serial Number:
            f9:35:42:96:eb:80:79:f6
    Signature Algorithm: ecdsa-with-SHA256
        Issuer: C=be, O=kunstmaan, OU=auth, CN=auth.kunstmaan.be
        Validity
            Not Before: Feb 28 10:12:57 2018 GMT
            Not After : Feb 26 10:12:57 2028 GMT
        Subject: C=be, O=kunstmaan, OU=auth, CN=user-1.auth.kunstmaan.be
        Subject Public Key Info:
            Public Key Algorithm: id-ecPublicKey
                Public-Key: (256 bit)
                pub: 
                    04:07:98:5c:44:c1:ed:2c:f8:f0:8b:fb:d3:e3:60:
                    45:33:8e:52:c8:8c:88:3e:7e:fe:4d:34:93:f1:0a:
                    75:c2:d5:01:45:40:8c:aa:2f:2d:91:2d:86:b2:c7:
                    38:7e:68:a9:6b:8e:94:92:94:9a:18:45:9a:7b:ad:
                    60:00:5d:66:3b
                ASN1 OID: prime256v1
                NIST CURVE: P-256
        X509v3 extensions:
            1.2.3.4.5.6.7.8.1: 
                ..{"attrs":{"Name":"user-1"}}
            X509v3 Authority Key Identifier: 
                keyid:26:13:21:A8:F5:D7:53:4D:99:52:9D:4C:C0:71:9C:FF:33:ED:03:87

            X509v3 Basic Constraints: critical
                CA:FALSE
            X509v3 Subject Key Identifier: 
                08:85:85:00:47:0D:71:65:D8:D7:80:1C:21:5B:D4:D4:C0:A9:2F:85
            X509v3 Key Usage: critical
                Digital Signature, Key Encipherment
            X509v3 Extended Key Usage: 
                TLS Web Server Authentication, TLS Web Client Authentication
    Signature Algorithm: ecdsa-with-SHA256
         30:44:02:20:69:4b:7c:d8:45:2b:fa:86:93:f0:e9:73:2a:ba:
         86:97:a9:f9:1d:ed:bb:6d:10:57:48:4a:3e:7a:4f:30:a5:af:
         02:20:2b:3b:e0:39:9b:03:9b:66:6e:c3:76:e4:05:e3:1a:a6:
         bf:c0:b7:24:1d:0f:24:99:5e:1c:c6:b8:00:1b:d0:56
-----BEGIN CERTIFICATE-----
MIICQTCCAeigAwIBAgIJAPk1QpbrgHn2MAoGCCqGSM49BAMCMEwxCzAJBgNVBAYT
AmJlMRIwEAYDVQQKDAlrdW5zdG1hYW4xDTALBgNVBAsMBGF1dGgxGjAYBgNVBAMM
EWF1dGgua3Vuc3RtYWFuLmJlMB4XDTE4MDIyODEwMTI1N1oXDTI4MDIyNjEwMTI1
N1owUzELMAkGA1UEBhMCYmUxEjAQBgNVBAoMCWt1bnN0bWFhbjENMAsGA1UECwwE
YXV0aDEhMB8GA1UEAwwYdXNlci0xLmF1dGgua3Vuc3RtYWFuLmJlMFkwEwYHKoZI
zj0CAQYIKoZIzj0DAQcDQgAEB5hcRMHtLPjwi/vT42BFM45SyIyIPn7+TTST8Qp1
wtUBRUCMqi8tkS2Gssc4fmipa46UkpSaGEWae61gAF1mO6OBqzCBqDApBggqAwQF
BgcIAQQdDBt7ImF0dHJzIjp7Ik5hbWUiOiJ1c2VyLTEifX0wHwYDVR0jBBgwFoAU
JhMhqPXXU02ZUp1MwHGc/zPtA4cwDAYDVR0TAQH/BAIwADAdBgNVHQ4EFgQUCIWF
AEcNcWXY14AcIVvU1MCpL4UwDgYDVR0PAQH/BAQDAgWgMB0GA1UdJQQWMBQGCCsG
AQUFBwMBBggrBgEFBQcDAjAKBggqhkjOPQQDAgNHADBEAiBpS3zYRSv6hpPw6XMq
uoaXqfkd7bttEFdISj56TzClrwIgKzvgOZsDm2Zuw3bkBeMapr/AtyQdDySZXhzG
uAAb0FY=
-----END CERTIFICATE-----
