Certificate:
    Data:
        Version: 3 (0x2)
        Serial Number:
            f2:f3:7e:50:67:f4:f9:48
        Signature Algorithm: ecdsa-with-SHA1
        Issuer: C=be, O=kunstmaan, OU=auth, CN=auth.kunstmaan.be
        Validity
            Not Before: Feb 14 16:06:56 2018 GMT
            Not After : Feb 12 16:06:56 2028 GMT
        Subject: C=be, O=kunstmaan, OU=auth, CN=user-1.auth.kunstmaan.be
        Subject Public Key Info:
            Public Key Algorithm: id-ecPublicKey
            EC Public Key:
                pub: 
                    04:c8:8d:6e:30:0a:e6:1f:bd:06:7f:15:b6:37:03:
                    c9:e4:17:0d:90:8d:f2:66:4d:54:ec:86:09:16:55:
                    1a:9f:2c:10:d4:4d:5e:32:5b:d2:d6:5a:73:17:16:
                    17:48:dc:d9:74:5e:b2:6b:2f:d1:77:46:45:ca:f3:
                    ea:99:b3:12:cd
                ASN1 OID: prime256v1
        X509v3 extensions:
            1.2.3.4.5.6.7.8.1: 
                ..{"attrs":{"Name":"user-1"}}
            X509v3 Authority Key Identifier: 
                keyid:23:09:54:6B:09:73:09:3D:45:BA:47:F5:EA:FB:F9:D6:A5:F0:8D:B7

            X509v3 Basic Constraints: critical
                CA:FALSE
            X509v3 Subject Key Identifier: 
                10:1C:95:91:C0:37:38:17:79:F8:91:A7:F5:46:A7:21:63:A8:F7:93
            X509v3 Key Usage: critical
                Digital Signature, Key Encipherment
            X509v3 Extended Key Usage: 
                TLS Web Server Authentication, TLS Web Client Authentication
    Signature Algorithm: ecdsa-with-SHA1
        30:46:02:21:00:a6:82:c7:d6:11:c5:8c:f7:08:a7:5e:64:e7:
        6d:f3:1f:a9:30:20:b5:7e:c6:e3:ab:95:64:66:f1:a4:6b:59:
        db:02:21:00:e0:ef:90:39:2e:a8:fb:d9:fd:db:ce:04:46:e7:
        30:88:11:69:3a:3d:94:d2:c9:b4:7b:b7:35:af:ec:e4:2b:5d
-----BEGIN CERTIFICATE-----
MIICQTCCAeegAwIBAgIJAPLzflBn9PlIMAkGByqGSM49BAEwTDELMAkGA1UEBhMC
YmUxEjAQBgNVBAoMCWt1bnN0bWFhbjENMAsGA1UECwwEYXV0aDEaMBgGA1UEAwwR
YXV0aC5rdW5zdG1hYW4uYmUwHhcNMTgwMjE0MTYwNjU2WhcNMjgwMjEyMTYwNjU2
WjBTMQswCQYDVQQGEwJiZTESMBAGA1UECgwJa3Vuc3RtYWFuMQ0wCwYDVQQLDARh
dXRoMSEwHwYDVQQDDBh1c2VyLTEuYXV0aC5rdW5zdG1hYW4uYmUwWTATBgcqhkjO
PQIBBggqhkjOPQMBBwNCAATIjW4wCuYfvQZ/FbY3A8nkFw2QjfJmTVTshgkWVRqf
LBDUTV4yW9LWWnMXFhdI3Nl0XrJrL9F3RkXK8+qZsxLNo4GrMIGoMCkGCCoDBAUG
BwgBBB0MG3siYXR0cnMiOnsiTmFtZSI6InVzZXItMSJ9fTAfBgNVHSMEGDAWgBQj
CVRrCXMJPUW6R/Xq+/nWpfCNtzAMBgNVHRMBAf8EAjAAMB0GA1UdDgQWBBQQHJWR
wDc4F3n4kaf1RqchY6j3kzAOBgNVHQ8BAf8EBAMCBaAwHQYDVR0lBBYwFAYIKwYB
BQUHAwEGCCsGAQUFBwMCMAkGByqGSM49BAEDSQAwRgIhAKaCx9YRxYz3CKdeZOdt
8x+pMCC1fsbjq5VkZvGka1nbAiEA4O+QOS6o+9n9284ERucwiBFpOj2U0sm0e7c1
r+zkK10=
-----END CERTIFICATE-----
