Certificate:
    Data:
        Version: 3 (0x2)
        Serial Number:
            99:be:61:f3:ac:1a:0e:99
        Signature Algorithm: ecdsa-with-SHA1
        Issuer: CN=kunstmaan.be, OU=tlsca, C=be, O=kunstmaan
        Validity
            Not Before: Feb 14 16:06:54 2018 GMT
            Not After : Feb 12 16:06:54 2028 GMT
        Subject: C=be, O=kunstmaan, OU=auth, CN=auth.kunstmaan.be
        Subject Public Key Info:
            Public Key Algorithm: id-ecPublicKey
            EC Public Key:
                pub: 
                    04:55:8f:5b:75:b5:7d:bc:da:8e:05:9f:0e:de:96:
                    2d:55:1c:0d:91:ce:85:af:ee:7d:00:ca:e6:f1:1f:
                    77:81:12:c9:92:1d:c4:cd:25:fa:7b:e0:ab:e1:ab:
                    5b:aa:0c:e2:5f:78:8b:e1:f0:1c:91:06:70:a1:ed:
                    d5:91:ba:be:cb
                ASN1 OID: prime256v1
        X509v3 extensions:
            1.2.3.4.5.6.7.8.1: 
                ..{"attrs":{}}
            X509v3 Authority Key Identifier: 
                keyid:FB:41:45:09:28:B4:C3:36:94:8F:FC:C5:CF:19:AF:BD:EE:B8:27:90

            X509v3 Basic Constraints: critical
                CA:TRUE
            X509v3 Subject Key Identifier: 
                23:09:54:6B:09:73:09:3D:45:BA:47:F5:EA:FB:F9:D6:A5:F0:8D:B7
            X509v3 Key Usage: critical
                Digital Signature, Key Encipherment, Certificate Sign, CRL Sign
            X509v3 Extended Key Usage: 
                TLS Web Server Authentication, TLS Web Client Authentication
    Signature Algorithm: ecdsa-with-SHA1
        30:45:02:20:1d:d2:8b:f0:51:ad:30:5d:c0:10:69:9e:4d:25:
        bf:8f:27:3e:e3:23:b0:c8:f3:a9:33:e5:38:db:97:80:8c:09:
        02:21:00:dc:40:f9:cb:9a:b7:a0:73:38:29:e6:18:aa:4d:54:
        a6:19:0e:d4:82:bb:65:c0:57:c6:9a:ec:6e:a5:9d:e2:ef
-----BEGIN CERTIFICATE-----
MIICKTCCAdCgAwIBAgIJAJm+YfOsGg6ZMAkGByqGSM49BAEwSDEVMBMGA1UEAwwM
a3Vuc3RtYWFuLmJlMQ4wDAYDVQQLDAV0bHNjYTELMAkGA1UEBhMCYmUxEjAQBgNV
BAoMCWt1bnN0bWFhbjAeFw0xODAyMTQxNjA2NTRaFw0yODAyMTIxNjA2NTRaMEwx
CzAJBgNVBAYTAmJlMRIwEAYDVQQKDAlrdW5zdG1hYW4xDTALBgNVBAsMBGF1dGgx
GjAYBgNVBAMMEWF1dGgua3Vuc3RtYWFuLmJlMFkwEwYHKoZIzj0CAQYIKoZIzj0D
AQcDQgAEVY9bdbV9vNqOBZ8O3pYtVRwNkc6Fr+59AMrm8R93gRLJkh3EzSX6e+Cr
4atbqgziX3iL4fAckQZwoe3Vkbq+y6OBnzCBnDAaBggqAwQFBgcIAQQODAx7ImF0
dHJzIjp7fX0wHwYDVR0jBBgwFoAU+0FFCSi0wzaUj/zFzxmvve64J5AwDwYDVR0T
AQH/BAUwAwEB/zAdBgNVHQ4EFgQUIwlUawlzCT1Fukf16vv51qXwjbcwDgYDVR0P
AQH/BAQDAgGmMB0GA1UdJQQWMBQGCCsGAQUFBwMBBggrBgEFBQcDAjAJBgcqhkjO
PQQBA0gAMEUCIB3Si/BRrTBdwBBpnk0lv48nPuMjsMjzqTPlONuXgIwJAiEA3ED5
y5q3oHM4KeYYqk1UphkO1IK7ZcBXxprsbqWd4u8=
-----END CERTIFICATE-----
