Certificate:
    Data:
        Version: 3 (0x2)
        Serial Number:
            c7:ae:c8:b6:90:2e:27:2d
        Signature Algorithm: ecdsa-with-SHA1
        Issuer: C=be, O=kunstmaan, OU=auth, CN=auth.kunstmaan.be
        Validity
            Not Before: Feb 27 17:00:16 2018 GMT
            Not After : Feb 25 17:00:16 2028 GMT
        Subject: C=be, O=kunstmaan, OU=auth, CN=user-3.auth.kunstmaan.be
        Subject Public Key Info:
            Public Key Algorithm: id-ecPublicKey
            EC Public Key:
                pub: 
                    04:fd:b4:1c:b0:3c:19:bd:23:3e:14:9a:fd:06:96:
                    6b:d8:a0:e5:17:60:e2:40:98:f5:89:8a:eb:78:e9:
                    63:64:78:18:89:e4:94:08:33:8c:d3:2a:e9:e3:2e:
                    a6:78:a9:be:33:20:e7:90:3d:2f:ba:01:a3:fa:d7:
                    9b:9c:c3:5c:e5
                ASN1 OID: prime256v1
        X509v3 extensions:
            1.2.3.4.5.6.7.8.1: 
                ..{"attrs":{"Name":"user-3"}}
            X509v3 Authority Key Identifier: 
                keyid:80:63:DD:37:12:8B:E5:B9:3A:BD:96:0D:EC:EE:BF:E3:2C:66:0B:12

            X509v3 Basic Constraints: critical
                CA:FALSE
            X509v3 Subject Key Identifier: 
                CB:FA:1F:E2:7A:DC:3A:25:F7:3C:07:60:03:C5:BA:B2:0F:55:7C:B1
            X509v3 Key Usage: critical
                Digital Signature, Key Encipherment
            X509v3 Extended Key Usage: 
                TLS Web Server Authentication, TLS Web Client Authentication
    Signature Algorithm: ecdsa-with-SHA1
        30:45:02:20:08:80:84:db:fd:72:62:17:05:10:00:01:a0:c0:
        f5:50:4d:22:81:94:0c:07:cd:75:4f:c7:6e:4e:e3:aa:7e:a0:
        02:21:00:f7:28:ee:1e:68:33:74:6e:01:cf:e0:d8:fe:69:29:
        af:31:7c:f5:5d:58:8a:98:7c:43:ed:29:31:df:85:88:f5
-----BEGIN CERTIFICATE-----
MIICQDCCAeegAwIBAgIJAMeuyLaQLictMAkGByqGSM49BAEwTDELMAkGA1UEBhMC
YmUxEjAQBgNVBAoMCWt1bnN0bWFhbjENMAsGA1UECwwEYXV0aDEaMBgGA1UEAwwR
YXV0aC5rdW5zdG1hYW4uYmUwHhcNMTgwMjI3MTcwMDE2WhcNMjgwMjI1MTcwMDE2
WjBTMQswCQYDVQQGEwJiZTESMBAGA1UECgwJa3Vuc3RtYWFuMQ0wCwYDVQQLDARh
dXRoMSEwHwYDVQQDDBh1c2VyLTMuYXV0aC5rdW5zdG1hYW4uYmUwWTATBgcqhkjO
PQIBBggqhkjOPQMBBwNCAAT9tBywPBm9Iz4Umv0GlmvYoOUXYOJAmPWJiut46WNk
eBiJ5JQIM4zTKunjLqZ4qb4zIOeQPS+6AaP615ucw1zlo4GrMIGoMCkGCCoDBAUG
BwgBBB0MG3siYXR0cnMiOnsiTmFtZSI6InVzZXItMyJ9fTAfBgNVHSMEGDAWgBSA
Y903EovluTq9lg3s7r/jLGYLEjAMBgNVHRMBAf8EAjAAMB0GA1UdDgQWBBTL+h/i
etw6Jfc8B2ADxbqyD1V8sTAOBgNVHQ8BAf8EBAMCBaAwHQYDVR0lBBYwFAYIKwYB
BQUHAwEGCCsGAQUFBwMCMAkGByqGSM49BAEDSAAwRQIgCICE2/1yYhcFEAABoMD1
UE0igZQMB811T8duTuOqfqACIQD3KO4eaDN0bgHP4Nj+aSmvMXz1XViKmHxD7Skx
34WI9Q==
-----END CERTIFICATE-----
