Certificate:
    Data:
        Version: 3 (0x2)
        Serial Number:
            f5:32:2a:b7:4f:56:17:0b
    Signature Algorithm: ecdsa-with-SHA256
        Issuer: C=be, O=kunstmaan, OU=auth, CN=auth.kunstmaan.be
        Validity
            Not Before: Feb 28 10:00:24 2018 GMT
            Not After : Feb 26 10:00:24 2028 GMT
        Subject: C=be, O=kunstmaan, OU=auth, CN=user-3.auth.kunstmaan.be
        Subject Public Key Info:
            Public Key Algorithm: id-ecPublicKey
                Public-Key: (256 bit)
                pub: 
                    04:be:0c:88:18:c4:ee:b4:12:e5:7b:ed:94:af:f3:
                    2d:82:c5:75:a0:e2:e1:99:5e:ca:a9:a0:01:d2:e5:
                    7e:f9:87:08:b2:1f:69:28:02:7a:62:d6:c1:bc:50:
                    1e:05:b1:8d:ab:bd:54:00:7f:5c:55:2d:82:1b:82:
                    78:6f:0c:d6:1c
                ASN1 OID: prime256v1
                NIST CURVE: P-256
        X509v3 extensions:
            1.2.3.4.5.6.7.8.1: 
                ..{"attrs":{"Name":"user-3"}}
            X509v3 Authority Key Identifier: 
                keyid:1C:18:8D:F4:04:3A:E9:E5:E6:E1:BD:36:5D:40:98:41:20:AC:6D:FD

            X509v3 Basic Constraints: critical
                CA:FALSE
            X509v3 Subject Key Identifier: 
                04:5A:60:29:2F:D5:08:28:3E:7A:DA:5C:EB:0C:C6:16:CC:C7:44:90
            X509v3 Key Usage: critical
                Digital Signature, Key Encipherment
            X509v3 Extended Key Usage: 
                TLS Web Server Authentication, TLS Web Client Authentication
    Signature Algorithm: ecdsa-with-SHA256
         30:44:02:20:31:b9:1a:a1:86:68:a7:ca:eb:68:1e:a5:f2:1a:
         c4:6c:09:95:a1:41:34:c0:b2:74:a2:5e:12:ff:37:c7:60:37:
         02:20:3b:86:c8:9c:84:36:a2:57:fb:f8:ac:84:2b:89:cc:79:
         d2:27:bb:61:3e:95:f7:87:04:2b:91:8e:3e:07:8e:c5
-----BEGIN CERTIFICATE-----
MIICQTCCAeigAwIBAgIJAPUyKrdPVhcLMAoGCCqGSM49BAMCMEwxCzAJBgNVBAYT
AmJlMRIwEAYDVQQKDAlrdW5zdG1hYW4xDTALBgNVBAsMBGF1dGgxGjAYBgNVBAMM
EWF1dGgua3Vuc3RtYWFuLmJlMB4XDTE4MDIyODEwMDAyNFoXDTI4MDIyNjEwMDAy
NFowUzELMAkGA1UEBhMCYmUxEjAQBgNVBAoMCWt1bnN0bWFhbjENMAsGA1UECwwE
YXV0aDEhMB8GA1UEAwwYdXNlci0zLmF1dGgua3Vuc3RtYWFuLmJlMFkwEwYHKoZI
zj0CAQYIKoZIzj0DAQcDQgAEvgyIGMTutBLle+2Ur/MtgsV1oOLhmV7KqaAB0uV+
+YcIsh9pKAJ6YtbBvFAeBbGNq71UAH9cVS2CG4J4bwzWHKOBqzCBqDApBggqAwQF
BgcIAQQdDBt7ImF0dHJzIjp7Ik5hbWUiOiJ1c2VyLTMifX0wHwYDVR0jBBgwFoAU
HBiN9AQ66eXm4b02XUCYQSCsbf0wDAYDVR0TAQH/BAIwADAdBgNVHQ4EFgQUBFpg
KS/VCCg+etpc6wzGFszHRJAwDgYDVR0PAQH/BAQDAgWgMB0GA1UdJQQWMBQGCCsG
AQUFBwMBBggrBgEFBQcDAjAKBggqhkjOPQQDAgNHADBEAiAxuRqhhminyutoHqXy
GsRsCZWhQTTAsnSiXhL/N8dgNwIgO4bInIQ2olf7+KyEK4nMedInu2E+lfeHBCuR
jj4HjsU=
-----END CERTIFICATE-----
