Certificate:
    Data:
        Version: 3 (0x2)
        Serial Number:
            95:91:20:d3:a7:98:87:b1
        Signature Algorithm: ecdsa-with-SHA1
        Issuer: C=be, O=kunstmaan, OU=auth, CN=auth.kunstmaan.be
        Validity
            Not Before: Feb 14 16:06:58 2018 GMT
            Not After : Feb 12 16:06:58 2028 GMT
        Subject: C=be, O=kunstmaan, OU=auth, CN=user-3.auth.kunstmaan.be
        Subject Public Key Info:
            Public Key Algorithm: id-ecPublicKey
            EC Public Key:
                pub: 
                    04:74:4e:8d:bd:3d:32:88:97:84:b9:6f:a4:e6:13:
                    8c:44:78:cc:62:39:1c:b8:14:a5:48:74:a8:59:2a:
                    0f:c6:59:51:a0:fe:19:ed:b0:c4:7e:30:01:7a:fd:
                    f6:bc:26:dc:35:71:94:f6:75:48:9c:1f:96:b9:b7:
                    ae:fd:e7:0a:4e
                ASN1 OID: prime256v1
        X509v3 extensions:
            1.2.3.4.5.6.7.8.1: 
                ..{"attrs":{"Name":"user-3"}}
            X509v3 Authority Key Identifier: 
                keyid:23:09:54:6B:09:73:09:3D:45:BA:47:F5:EA:FB:F9:D6:A5:F0:8D:B7

            X509v3 Basic Constraints: critical
                CA:FALSE
            X509v3 Subject Key Identifier: 
                D0:13:D7:1C:15:F1:98:0E:00:94:5F:2E:B0:C4:77:7A:1B:46:A4:43
            X509v3 Key Usage: critical
                Digital Signature, Key Encipherment
            X509v3 Extended Key Usage: 
                TLS Web Server Authentication, TLS Web Client Authentication
    Signature Algorithm: ecdsa-with-SHA1
        30:45:02:20:2e:5a:a4:1a:a0:83:ca:27:7d:1c:38:94:fa:0b:
        f0:84:a9:41:59:35:2c:bf:f6:56:57:0c:e3:f7:15:ad:d1:90:
        02:21:00:82:9f:07:d2:28:5b:cf:4d:90:87:72:09:52:e2:da:
        07:d3:fc:45:57:b8:ea:3c:35:76:cf:70:44:83:34:27:0c
-----BEGIN CERTIFICATE-----
MIICQDCCAeegAwIBAgIJAJWRINOnmIexMAkGByqGSM49BAEwTDELMAkGA1UEBhMC
YmUxEjAQBgNVBAoMCWt1bnN0bWFhbjENMAsGA1UECwwEYXV0aDEaMBgGA1UEAwwR
YXV0aC5rdW5zdG1hYW4uYmUwHhcNMTgwMjE0MTYwNjU4WhcNMjgwMjEyMTYwNjU4
WjBTMQswCQYDVQQGEwJiZTESMBAGA1UECgwJa3Vuc3RtYWFuMQ0wCwYDVQQLDARh
dXRoMSEwHwYDVQQDDBh1c2VyLTMuYXV0aC5rdW5zdG1hYW4uYmUwWTATBgcqhkjO
PQIBBggqhkjOPQMBBwNCAAR0To29PTKIl4S5b6TmE4xEeMxiORy4FKVIdKhZKg/G
WVGg/hntsMR+MAF6/fa8Jtw1cZT2dUicH5a5t6795wpOo4GrMIGoMCkGCCoDBAUG
BwgBBB0MG3siYXR0cnMiOnsiTmFtZSI6InVzZXItMyJ9fTAfBgNVHSMEGDAWgBQj
CVRrCXMJPUW6R/Xq+/nWpfCNtzAMBgNVHRMBAf8EAjAAMB0GA1UdDgQWBBTQE9cc
FfGYDgCUXy6wxHd6G0akQzAOBgNVHQ8BAf8EBAMCBaAwHQYDVR0lBBYwFAYIKwYB
BQUHAwEGCCsGAQUFBwMCMAkGByqGSM49BAEDSAAwRQIgLlqkGqCDyid9HDiU+gvw
hKlBWTUsv/ZWVwzj9xWt0ZACIQCCnwfSKFvPTZCHcglS4toH0/xFV7jqPDV2z3BE
gzQnDA==
-----END CERTIFICATE-----
