Certificate:
    Data:
        Version: 3 (0x2)
        Serial Number:
            81:4b:1a:d6:bf:e5:88:b0
    Signature Algorithm: ecdsa-with-SHA256
        Issuer: C=be, O=kunstmaan, OU=auth, CN=auth.kunstmaan.be
        Validity
            Not Before: Feb 28 10:12:59 2018 GMT
            Not After : Feb 26 10:12:59 2028 GMT
        Subject: C=be, O=kunstmaan, OU=auth, CN=user-3.auth.kunstmaan.be
        Subject Public Key Info:
            Public Key Algorithm: id-ecPublicKey
                Public-Key: (256 bit)
                pub: 
                    04:40:62:e0:5e:65:23:18:63:52:6d:0e:19:34:33:
                    12:45:d3:86:2a:47:93:b9:59:fa:d1:ee:82:db:24:
                    5a:85:a2:bc:df:de:ae:90:02:93:4f:09:43:2e:bf:
                    04:8f:80:85:63:4d:75:b8:22:3b:b9:fe:2f:ea:b7:
                    b3:f9:75:c1:8f
                ASN1 OID: prime256v1
                NIST CURVE: P-256
        X509v3 extensions:
            1.2.3.4.5.6.7.8.1: 
                ..{"attrs":{"Name":"user-3"}}
            X509v3 Authority Key Identifier: 
                keyid:26:13:21:A8:F5:D7:53:4D:99:52:9D:4C:C0:71:9C:FF:33:ED:03:87

            X509v3 Basic Constraints: critical
                CA:FALSE
            X509v3 Subject Key Identifier: 
                22:5F:0D:24:89:57:C8:CF:B7:4C:E7:D7:65:47:2F:E8:C0:F6:23:F5
            X509v3 Key Usage: critical
                Digital Signature, Key Encipherment
            X509v3 Extended Key Usage: 
                TLS Web Server Authentication, TLS Web Client Authentication
    Signature Algorithm: ecdsa-with-SHA256
         30:45:02:20:14:de:ea:38:ac:2f:82:aa:12:d6:ce:77:bc:34:
         71:2b:ca:5f:6f:44:5c:86:dd:28:31:93:24:36:21:80:89:43:
         02:21:00:be:67:ba:5a:38:f8:1e:2a:ff:6f:2b:59:c7:c0:10:
         c0:ca:0e:b5:e3:20:17:dc:b0:84:9f:1b:5f:77:38:7f:bd
-----BEGIN CERTIFICATE-----
MIICQjCCAeigAwIBAgIJAIFLGta/5YiwMAoGCCqGSM49BAMCMEwxCzAJBgNVBAYT
AmJlMRIwEAYDVQQKDAlrdW5zdG1hYW4xDTALBgNVBAsMBGF1dGgxGjAYBgNVBAMM
EWF1dGgua3Vuc3RtYWFuLmJlMB4XDTE4MDIyODEwMTI1OVoXDTI4MDIyNjEwMTI1
OVowUzELMAkGA1UEBhMCYmUxEjAQBgNVBAoMCWt1bnN0bWFhbjENMAsGA1UECwwE
YXV0aDEhMB8GA1UEAwwYdXNlci0zLmF1dGgua3Vuc3RtYWFuLmJlMFkwEwYHKoZI
zj0CAQYIKoZIzj0DAQcDQgAEQGLgXmUjGGNSbQ4ZNDMSRdOGKkeTuVn60e6C2yRa
haK8396ukAKTTwlDLr8Ej4CFY011uCI7uf4v6rez+XXBj6OBqzCBqDApBggqAwQF
BgcIAQQdDBt7ImF0dHJzIjp7Ik5hbWUiOiJ1c2VyLTMifX0wHwYDVR0jBBgwFoAU
JhMhqPXXU02ZUp1MwHGc/zPtA4cwDAYDVR0TAQH/BAIwADAdBgNVHQ4EFgQUIl8N
JIlXyM+3TOfXZUcv6MD2I/UwDgYDVR0PAQH/BAQDAgWgMB0GA1UdJQQWMBQGCCsG
AQUFBwMBBggrBgEFBQcDAjAKBggqhkjOPQQDAgNIADBFAiAU3uo4rC+CqhLWzne8
NHEryl9vRFyG3SgxkyQ2IYCJQwIhAL5nulo4+B4q/28rWcfAEMDKDrXjIBfcsISf
G193OH+9
-----END CERTIFICATE-----
