Certificate:
    Data:
        Version: 3 (0x2)
        Serial Number:
            fe:ed:16:eb:46:7a:b4:d8
        Signature Algorithm: ecdsa-with-SHA1
        Issuer: C=be, O=kunstmaan, OU=auth, CN=auth.kunstmaan.be
        Validity
            Not Before: Feb 14 16:06:57 2018 GMT
            Not After : Feb 12 16:06:57 2028 GMT
        Subject: C=be, O=kunstmaan, OU=auth, CN=user-3.auth.kunstmaan.be
        Subject Public Key Info:
            Public Key Algorithm: id-ecPublicKey
            EC Public Key:
                pub: 
                    04:7d:0f:bc:d7:ef:37:73:61:8c:11:7e:19:c5:df:
                    16:39:bf:38:87:56:12:1d:0f:5b:58:6e:77:1f:68:
                    85:b2:fb:50:f7:f6:b2:21:83:8c:82:c4:46:46:0b:
                    d0:15:40:73:51:80:68:04:67:20:77:32:89:2b:d2:
                    70:70:62:bf:6b
                ASN1 OID: prime256v1
        X509v3 extensions:
            1.2.3.4.5.6.7.8.1: 
                ..{"attrs":{"Name":"user-3"}}
            X509v3 Authority Key Identifier: 
                keyid:95:7B:44:03:D8:97:C6:89:B4:E3:0F:92:5E:B4:3F:F4:96:78:5F:FA

            X509v3 Basic Constraints: critical
                CA:FALSE
            X509v3 Subject Key Identifier: 
                9F:C3:48:8D:49:4D:82:B3:E8:85:60:62:C6:D2:85:E1:B3:80:7A:0F
            X509v3 Key Usage: critical
                Digital Signature
    Signature Algorithm: ecdsa-with-SHA1
        30:45:02:20:17:99:87:d1:7d:b7:bb:23:55:fd:8f:3a:33:f0:
        d6:17:64:3f:a3:0f:13:ce:92:6a:67:37:c7:62:14:c4:4d:21:
        02:21:00:ba:f1:8f:0d:e6:d3:78:0b:1d:6a:b1:df:35:54:09:
        57:5b:3c:ce:d5:bb:78:0a:3e:18:07:9b:3c:66:1a:1a:cc
-----BEGIN CERTIFICATE-----
MIICITCCAcigAwIBAgIJAP7tFutGerTYMAkGByqGSM49BAEwTDELMAkGA1UEBhMC
YmUxEjAQBgNVBAoMCWt1bnN0bWFhbjENMAsGA1UECwwEYXV0aDEaMBgGA1UEAwwR
YXV0aC5rdW5zdG1hYW4uYmUwHhcNMTgwMjE0MTYwNjU3WhcNMjgwMjEyMTYwNjU3
WjBTMQswCQYDVQQGEwJiZTESMBAGA1UECgwJa3Vuc3RtYWFuMQ0wCwYDVQQLDARh
dXRoMSEwHwYDVQQDDBh1c2VyLTMuYXV0aC5rdW5zdG1hYW4uYmUwWTATBgcqhkjO
PQIBBggqhkjOPQMBBwNCAAR9D7zX7zdzYYwRfhnF3xY5vziHVhIdD1tYbncfaIWy
+1D39rIhg4yCxEZGC9AVQHNRgGgEZyB3Mokr0nBwYr9ro4GMMIGJMCkGCCoDBAUG
BwgBBB0MG3siYXR0cnMiOnsiTmFtZSI6InVzZXItMyJ9fTAfBgNVHSMEGDAWgBSV
e0QD2JfGibTjD5JetD/0lnhf+jAMBgNVHRMBAf8EAjAAMB0GA1UdDgQWBBSfw0iN
SU2Cs+iFYGLG0oXhs4B6DzAOBgNVHQ8BAf8EBAMCB4AwCQYHKoZIzj0EAQNIADBF
AiAXmYfRfbe7I1X9jzoz8NYXZD+jDxPOkmpnN8diFMRNIQIhALrxjw3m03gLHWqx
3zVUCVdbPM7Vu3gKPhgHmzxmGhrM
-----END CERTIFICATE-----
