Certificate:
    Data:
        Version: 3 (0x2)
        Serial Number:
            b0:aa:c5:dc:b2:a0:df:c1
        Signature Algorithm: ecdsa-with-SHA1
        Issuer: C=be, O=kunstmaan, OU=auth, CN=auth.kunstmaan.be
        Validity
            Not Before: Feb 27 17:00:15 2018 GMT
            Not After : Feb 25 17:00:15 2028 GMT
        Subject: C=be, O=kunstmaan, OU=auth, CN=user-3.auth.kunstmaan.be
        Subject Public Key Info:
            Public Key Algorithm: id-ecPublicKey
            EC Public Key:
                pub: 
                    04:e3:1e:cc:5c:4c:f7:55:a4:30:19:41:90:15:0f:
                    06:e4:e6:3b:18:42:bc:86:15:ec:d0:c2:d1:5e:55:
                    d9:49:7b:ae:82:a4:45:99:a1:2e:c1:40:04:b9:7a:
                    e1:ce:8d:7a:93:c6:d6:29:80:c6:cb:48:ca:97:56:
                    64:43:43:1b:26
                ASN1 OID: prime256v1
        X509v3 extensions:
            1.2.3.4.5.6.7.8.1: 
                ..{"attrs":{"Name":"user-3"}}
            X509v3 Authority Key Identifier: 
                keyid:6F:AD:99:6F:D6:A2:4F:17:3A:06:FC:48:B8:1E:62:FA:5A:7D:84:05

            X509v3 Basic Constraints: critical
                CA:FALSE
            X509v3 Subject Key Identifier: 
                31:1B:BA:E6:BA:E9:D1:11:08:44:A5:A7:89:40:CA:82:A7:68:98:48
            X509v3 Key Usage: critical
                Digital Signature
    Signature Algorithm: ecdsa-with-SHA1
        30:46:02:21:00:b9:a6:fb:43:fe:11:96:34:d1:c6:7e:f9:ef:
        f8:6c:b5:1f:13:f1:5c:27:d1:04:96:1e:f9:d7:3a:34:a4:61:
        6e:02:21:00:e8:d5:2a:3b:fa:6d:22:0b:9f:d1:6c:74:be:41:
        00:de:5e:99:ad:2f:c1:57:7f:f2:36:eb:1b:dd:fb:a3:41:ee
-----BEGIN CERTIFICATE-----
MIICIjCCAcigAwIBAgIJALCqxdyyoN/BMAkGByqGSM49BAEwTDELMAkGA1UEBhMC
YmUxEjAQBgNVBAoMCWt1bnN0bWFhbjENMAsGA1UECwwEYXV0aDEaMBgGA1UEAwwR
YXV0aC5rdW5zdG1hYW4uYmUwHhcNMTgwMjI3MTcwMDE1WhcNMjgwMjI1MTcwMDE1
WjBTMQswCQYDVQQGEwJiZTESMBAGA1UECgwJa3Vuc3RtYWFuMQ0wCwYDVQQLDARh
dXRoMSEwHwYDVQQDDBh1c2VyLTMuYXV0aC5rdW5zdG1hYW4uYmUwWTATBgcqhkjO
PQIBBggqhkjOPQMBBwNCAATjHsxcTPdVpDAZQZAVDwbk5jsYQryGFezQwtFeVdlJ
e66CpEWZoS7BQAS5euHOjXqTxtYpgMbLSMqXVmRDQxsmo4GMMIGJMCkGCCoDBAUG
BwgBBB0MG3siYXR0cnMiOnsiTmFtZSI6InVzZXItMyJ9fTAfBgNVHSMEGDAWgBRv
rZlv1qJPFzoG/Ei4HmL6Wn2EBTAMBgNVHRMBAf8EAjAAMB0GA1UdDgQWBBQxG7rm
uunREQhEpaeJQMqCp2iYSDAOBgNVHQ8BAf8EBAMCB4AwCQYHKoZIzj0EAQNJADBG
AiEAuab7Q/4RljTRxn757/hstR8T8Vwn0QSWHvnXOjSkYW4CIQDo1So7+m0iC5/R
bHS+QQDeXpmtL8FXf/I26xvd+6NB7g==
-----END CERTIFICATE-----
