Certificate:
    Data:
        Version: 3 (0x2)
        Serial Number:
            ff:18:27:3d:30:ae:96:af
    Signature Algorithm: ecdsa-with-SHA256
        Issuer: C=be, O=kunstmaan, OU=auth, CN=auth.kunstmaan.be
        Validity
            Not Before: Feb 28 10:00:22 2018 GMT
            Not After : Feb 26 10:00:22 2028 GMT
        Subject: C=be, O=kunstmaan, OU=auth, CN=admin-auth.auth.kunstmaan.be
        Subject Public Key Info:
            Public Key Algorithm: id-ecPublicKey
                Public-Key: (256 bit)
                pub: 
                    04:a5:21:73:34:a4:d4:49:7e:4b:3a:15:8e:03:2a:
                    c3:e8:01:8e:b9:fd:10:30:27:b3:21:70:98:7d:d3:
                    86:ef:f0:b1:89:9c:a6:79:29:da:ce:29:82:05:c2:
                    75:31:ce:5d:1c:1d:04:d6:c0:09:0d:64:8c:84:39:
                    c6:b8:c4:17:bf
                ASN1 OID: prime256v1
                NIST CURVE: P-256
        X509v3 extensions:
            1.2.3.4.5.6.7.8.1: 
                ..{"attrs":{}}
            X509v3 Authority Key Identifier: 
                keyid:4F:07:11:85:0F:5E:2C:C2:9E:49:87:6E:A2:7B:D6:CD:49:52:17:F9

            X509v3 Basic Constraints: critical
                CA:FALSE
            X509v3 Subject Key Identifier: 
                28:69:DA:55:A4:41:99:C3:41:5D:78:79:36:3B:37:51:3C:D0:2B:6F
            X509v3 Key Usage: critical
                Digital Signature
    Signature Algorithm: ecdsa-with-SHA256
         30:45:02:21:00:80:5c:3b:80:53:37:78:27:51:8b:d4:9b:13:
         c9:d6:06:a8:79:66:37:5e:80:60:1e:c2:eb:f4:ca:0e:53:9f:
         ad:02:20:69:27:d8:2d:f3:66:96:d0:f8:38:54:8b:cd:9b:32:
         db:6f:13:dd:77:da:94:4b:18:58:dd:d4:e5:0a:13:76:c7
-----BEGIN CERTIFICATE-----
MIICFjCCAbygAwIBAgIJAP8YJz0wrpavMAoGCCqGSM49BAMCMEwxCzAJBgNVBAYT
AmJlMRIwEAYDVQQKDAlrdW5zdG1hYW4xDTALBgNVBAsMBGF1dGgxGjAYBgNVBAMM
EWF1dGgua3Vuc3RtYWFuLmJlMB4XDTE4MDIyODEwMDAyMloXDTI4MDIyNjEwMDAy
MlowVzELMAkGA1UEBhMCYmUxEjAQBgNVBAoMCWt1bnN0bWFhbjENMAsGA1UECwwE
YXV0aDElMCMGA1UEAwwcYWRtaW4tYXV0aC5hdXRoLmt1bnN0bWFhbi5iZTBZMBMG
ByqGSM49AgEGCCqGSM49AwEHA0IABKUhczSk1El+SzoVjgMqw+gBjrn9EDAnsyFw
mH3Thu/wsYmcpnkp2s4pggXCdTHOXRwdBNbACQ1kjIQ5xrjEF7+jfDB6MBoGCCoD
BAUGBwgBBA4MDHsiYXR0cnMiOnt9fTAfBgNVHSMEGDAWgBRPBxGFD14swp5Jh26i
e9bNSVIX+TAMBgNVHRMBAf8EAjAAMB0GA1UdDgQWBBQoadpVpEGZw0FdeHk2OzdR
PNArbzAOBgNVHQ8BAf8EBAMCB4AwCgYIKoZIzj0EAwIDSAAwRQIhAIBcO4BTN3gn
UYvUmxPJ1gaoeWY3XoBgHsLr9MoOU5+tAiBpJ9gt82aW0Pg4VIvNmzLbbxPdd9qU
SxhY3dTlChN2xw==
-----END CERTIFICATE-----
