Certificate:
    Data:
        Version: 3 (0x2)
        Serial Number:
            e0:54:8c:c1:d2:86:93:73
        Signature Algorithm: ecdsa-with-SHA1
        Issuer: C=be, O=kunstmaan, OU=auth, CN=auth.kunstmaan.be
        Validity
            Not Before: Feb 27 17:00:12 2018 GMT
            Not After : Feb 25 17:00:12 2028 GMT
        Subject: C=be, O=kunstmaan, OU=auth, CN=admin-auth.auth.kunstmaan.be
        Subject Public Key Info:
            Public Key Algorithm: id-ecPublicKey
            EC Public Key:
                pub: 
                    04:6d:f3:70:bf:b7:84:58:58:f3:86:5c:ff:80:4e:
                    b8:30:a7:45:dc:a7:07:74:13:ab:51:0a:08:6d:05:
                    59:6b:0f:f4:8f:9a:34:c7:43:a2:98:13:12:9f:f7:
                    d9:b0:69:31:48:aa:d8:ef:d8:a2:58:11:b3:92:88:
                    50:d5:e3:75:4e
                ASN1 OID: prime256v1
        X509v3 extensions:
            1.2.3.4.5.6.7.8.1: 
                ..{"attrs":{}}
            X509v3 Authority Key Identifier: 
                keyid:6F:AD:99:6F:D6:A2:4F:17:3A:06:FC:48:B8:1E:62:FA:5A:7D:84:05

            X509v3 Basic Constraints: critical
                CA:FALSE
            X509v3 Subject Key Identifier: 
                DD:C0:2F:AB:05:4F:63:94:1F:A6:AC:31:59:9E:80:4F:90:3C:46:C7
            X509v3 Key Usage: critical
                Digital Signature
    Signature Algorithm: ecdsa-with-SHA1
        30:45:02:20:3b:f4:17:3e:4e:64:ed:a9:4d:42:b5:b9:cf:ec:
        09:8c:45:5a:0d:4e:ec:1d:9d:a4:4c:36:58:43:af:24:47:db:
        02:21:00:96:72:bd:f1:42:7e:2a:62:6e:43:3e:6e:ca:28:9a:
        eb:27:f8:d3:38:9e:bb:f5:6a:78:e4:9e:fc:98:4d:d7:63
-----BEGIN CERTIFICATE-----
MIICFDCCAbugAwIBAgIJAOBUjMHShpNzMAkGByqGSM49BAEwTDELMAkGA1UEBhMC
YmUxEjAQBgNVBAoMCWt1bnN0bWFhbjENMAsGA1UECwwEYXV0aDEaMBgGA1UEAwwR
YXV0aC5rdW5zdG1hYW4uYmUwHhcNMTgwMjI3MTcwMDEyWhcNMjgwMjI1MTcwMDEy
WjBXMQswCQYDVQQGEwJiZTESMBAGA1UECgwJa3Vuc3RtYWFuMQ0wCwYDVQQLDARh
dXRoMSUwIwYDVQQDDBxhZG1pbi1hdXRoLmF1dGgua3Vuc3RtYWFuLmJlMFkwEwYH
KoZIzj0CAQYIKoZIzj0DAQcDQgAEbfNwv7eEWFjzhlz/gE64MKdF3KcHdBOrUQoI
bQVZaw/0j5o0x0OimBMSn/fZsGkxSKrY79iiWBGzkohQ1eN1TqN8MHowGgYIKgME
BQYHCAEEDgwMeyJhdHRycyI6e319MB8GA1UdIwQYMBaAFG+tmW/Wok8XOgb8SLge
YvpafYQFMAwGA1UdEwEB/wQCMAAwHQYDVR0OBBYEFN3AL6sFT2OUH6asMVmegE+Q
PEbHMA4GA1UdDwEB/wQEAwIHgDAJBgcqhkjOPQQBA0gAMEUCIDv0Fz5OZO2pTUK1
uc/sCYxFWg1O7B2dpEw2WEOvJEfbAiEAlnK98UJ+KmJuQz5uyiia6yf40zieu/Vq
eOSe/JhN12M=
-----END CERTIFICATE-----
