Certificate:
    Data:
        Version: 3 (0x2)
        Serial Number:
            8c:f3:2a:69:f6:86:62:ed
    Signature Algorithm: ecdsa-with-SHA256
        Issuer: CN=kunstmaan.be, OU=ca, C=be, O=kunstmaan
        Validity
            Not Before: Feb 28 10:12:52 2018 GMT
            Not After : Feb 23 10:12:52 2038 GMT
        Subject: CN=kunstmaan.be, OU=ca, C=be, O=kunstmaan
        Subject Public Key Info:
            Public Key Algorithm: id-ecPublicKey
                Public-Key: (256 bit)
                pub: 
                    04:02:a1:be:09:b2:3d:b5:b8:a4:79:79:63:d5:72:
                    83:db:4d:e7:0a:15:ac:b5:43:b5:58:48:2e:a4:b1:
                    bd:b5:b5:97:4b:ca:7a:73:bd:58:3f:d9:7b:12:8e:
                    1f:71:9f:1e:51:f9:5d:a1:fd:42:c3:4b:39:f3:34:
                    80:3f:f0:3e:b7
                ASN1 OID: prime256v1
                NIST CURVE: P-256
        X509v3 extensions:
            X509v3 Subject Key Identifier: 
                5B:94:1B:FA:3D:97:08:38:D0:52:B7:C6:20:15:62:CB:C6:D1:D3:5D
            X509v3 Basic Constraints: critical
                CA:TRUE
            X509v3 Key Usage: critical
                Digital Signature, Key Encipherment, Certificate Sign, CRL Sign
            X509v3 Extended Key Usage: 
                Any Extended Key Usage
    Signature Algorithm: ecdsa-with-SHA256
         30:46:02:21:00:af:95:be:b4:d4:61:50:70:9b:3e:27:7a:b9:
         84:48:af:f0:09:1a:eb:a4:4f:6c:fc:49:bd:d0:67:bb:cd:fb:
         34:02:21:00:e2:10:b6:83:fd:30:d8:65:19:73:54:b6:fb:48:
         90:d6:55:fc:c6:bf:4b:24:ae:62:fd:fc:7e:36:c0:78:b6:b9
-----BEGIN CERTIFICATE-----
MIIB1TCCAXqgAwIBAgIJAIzzKmn2hmLtMAoGCCqGSM49BAMCMEUxFTATBgNVBAMM
DGt1bnN0bWFhbi5iZTELMAkGA1UECwwCY2ExCzAJBgNVBAYTAmJlMRIwEAYDVQQK
DAlrdW5zdG1hYW4wHhcNMTgwMjI4MTAxMjUyWhcNMzgwMjIzMTAxMjUyWjBFMRUw
EwYDVQQDDAxrdW5zdG1hYW4uYmUxCzAJBgNVBAsMAmNhMQswCQYDVQQGEwJiZTES
MBAGA1UECgwJa3Vuc3RtYWFuMFkwEwYHKoZIzj0CAQYIKoZIzj0DAQcDQgAEAqG+
CbI9tbikeXlj1XKD203nChWstUO1WEgupLG9tbWXS8p6c71YP9l7Eo4fcZ8eUfld
of1Cw0s58zSAP/A+t6NTMFEwHQYDVR0OBBYEFFuUG/o9lwg40FK3xiAVYsvG0dNd
MA8GA1UdEwEB/wQFMAMBAf8wDgYDVR0PAQH/BAQDAgGmMA8GA1UdJQQIMAYGBFUd
JQAwCgYIKoZIzj0EAwIDSQAwRgIhAK+VvrTUYVBwmz4nermESK/wCRrrpE9s/Em9
0Ge7zfs0AiEA4hC2g/0w2GUZc1S2+0iQ1lX8xr9LJK5i/fx+NsB4trk=
-----END CERTIFICATE-----
Certificate:
    Data:
        Version: 3 (0x2)
        Serial Number:
            c8:e5:ce:9b:f1:2f:c4:d0
    Signature Algorithm: ecdsa-with-SHA256
        Issuer: CN=kunstmaan.be, OU=ca, C=be, O=kunstmaan
        Validity
            Not Before: Feb 28 10:12:55 2018 GMT
            Not After : Feb 26 10:12:55 2028 GMT
        Subject: C=be, O=kunstmaan, OU=auth, CN=auth.kunstmaan.be
        Subject Public Key Info:
            Public Key Algorithm: id-ecPublicKey
                Public-Key: (256 bit)
                pub: 
                    04:eb:8e:e3:3a:57:6b:8f:3d:f2:1d:f8:87:f2:dd:
                    0f:4f:48:ff:71:d5:56:b0:81:88:22:bb:6b:0b:f6:
                    46:37:2b:24:7c:7c:15:69:79:37:4b:1b:06:82:ce:
                    bb:92:0b:b4:18:0b:3e:e3:88:25:f4:65:c5:69:2f:
                    9b:4f:7a:fd:eb
                ASN1 OID: prime256v1
                NIST CURVE: P-256
        X509v3 extensions:
            1.2.3.4.5.6.7.8.1: 
                ..{"attrs":{}}
            X509v3 Authority Key Identifier: 
                keyid:5B:94:1B:FA:3D:97:08:38:D0:52:B7:C6:20:15:62:CB:C6:D1:D3:5D

            X509v3 Basic Constraints: critical
                CA:TRUE
            X509v3 Subject Key Identifier: 
                4E:7E:C4:68:4C:C2:7D:5B:D1:C7:FF:CE:FE:D6:5C:43:51:95:B0:A9
            X509v3 Extended Key Usage: 
                Any Extended Key Usage
            X509v3 Key Usage: critical
                Digital Signature, Key Encipherment, Certificate Sign, CRL Sign
    Signature Algorithm: ecdsa-with-SHA256
         30:46:02:21:00:9a:7f:ca:3e:7c:07:d4:3e:9b:5c:8c:86:89:
         e2:5c:9b:a8:2c:b0:77:2b:10:88:50:77:f0:e4:17:fa:14:f5:
         2e:02:21:00:ec:ea:b7:a4:c3:e2:46:18:be:7a:f4:d7:3b:5b:
         02:9e:c5:94:4b:50:c2:4b:98:5d:44:21:50:c1:04:99:29:f0
-----BEGIN CERTIFICATE-----
MIICGzCCAcCgAwIBAgIJAMjlzpvxL8TQMAoGCCqGSM49BAMCMEUxFTATBgNVBAMM
DGt1bnN0bWFhbi5iZTELMAkGA1UECwwCY2ExCzAJBgNVBAYTAmJlMRIwEAYDVQQK
DAlrdW5zdG1hYW4wHhcNMTgwMjI4MTAxMjU1WhcNMjgwMjI2MTAxMjU1WjBMMQsw
CQYDVQQGEwJiZTESMBAGA1UECgwJa3Vuc3RtYWFuMQ0wCwYDVQQLDARhdXRoMRow
GAYDVQQDDBFhdXRoLmt1bnN0bWFhbi5iZTBZMBMGByqGSM49AgEGCCqGSM49AwEH
A0IABOuO4zpXa4898h34h/LdD09I/3HVVrCBiCK7awv2RjcrJHx8FWl5N0sbBoLO
u5ILtBgLPuOIJfRlxWkvm096/eujgZEwgY4wGgYIKgMEBQYHCAEEDgwMeyJhdHRy
cyI6e319MB8GA1UdIwQYMBaAFFuUG/o9lwg40FK3xiAVYsvG0dNdMA8GA1UdEwEB
/wQFMAMBAf8wHQYDVR0OBBYEFE5+xGhMwn1b0cf/zv7WXENRlbCpMA8GA1UdJQQI
MAYGBFUdJQAwDgYDVR0PAQH/BAQDAgGmMAoGCCqGSM49BAMCA0kAMEYCIQCaf8o+
fAfUPptcjIaJ4lybqCywdysQiFB38OQX+hT1LgIhAOzqt6TD4kYYvnr01ztbAp7F
lEtQwkuYXUQhUMEEmSnw
-----END CERTIFICATE-----
Certificate:
    Data:
        Version: 3 (0x2)
        Serial Number:
            82:4d:35:43:00:5f:bb:00
    Signature Algorithm: ecdsa-with-SHA256
        Issuer: C=be, O=kunstmaan, OU=auth, CN=auth.kunstmaan.be
        Validity
            Not Before: Feb 28 10:12:56 2018 GMT
            Not After : Feb 26 10:12:56 2028 GMT
        Subject: C=be, O=kunstmaan, OU=auth, CN=admin-auth.auth.kunstmaan.be
        Subject Public Key Info:
            Public Key Algorithm: id-ecPublicKey
                Public-Key: (256 bit)
                pub: 
                    04:e6:73:e2:4e:2c:45:c4:9a:b0:1e:5c:97:ef:66:
                    f7:7e:90:4a:ff:04:25:32:87:40:d5:24:48:f6:f3:
                    d5:0f:2a:ce:59:ef:91:f1:78:08:72:37:37:f2:b7:
                    c1:b2:7b:f4:e1:3a:c3:20:85:ca:5e:1c:7d:ba:87:
                    ea:8e:8e:2b:d4
                ASN1 OID: prime256v1
                NIST CURVE: P-256
        X509v3 extensions:
            1.2.3.4.5.6.7.8.1: 
                ..{"attrs":{}}
            X509v3 Authority Key Identifier: 
                keyid:4E:7E:C4:68:4C:C2:7D:5B:D1:C7:FF:CE:FE:D6:5C:43:51:95:B0:A9

            X509v3 Basic Constraints: critical
                CA:FALSE
            X509v3 Subject Key Identifier: 
                9F:58:C1:54:CA:66:6D:7D:07:B8:1E:A7:63:A0:15:15:55:85:63:B9
            X509v3 Key Usage: critical
                Digital Signature
    Signature Algorithm: ecdsa-with-SHA256
         30:46:02:21:00:c3:b7:95:e0:07:a3:54:00:f1:2b:34:4c:5d:
         c9:45:07:52:fa:2b:78:42:a3:0b:4d:ba:88:ff:e9:3e:ee:7c:
         70:02:21:00:c7:c5:27:bf:f0:fc:60:5e:9f:97:68:43:6f:2a:
         36:c3:bf:a5:d0:63:be:0b:ad:62:8d:b6:51:6e:21:8d:da:e1
-----BEGIN CERTIFICATE-----
MIICFzCCAbygAwIBAgIJAIJNNUMAX7sAMAoGCCqGSM49BAMCMEwxCzAJBgNVBAYT
AmJlMRIwEAYDVQQKDAlrdW5zdG1hYW4xDTALBgNVBAsMBGF1dGgxGjAYBgNVBAMM
EWF1dGgua3Vuc3RtYWFuLmJlMB4XDTE4MDIyODEwMTI1NloXDTI4MDIyNjEwMTI1
NlowVzELMAkGA1UEBhMCYmUxEjAQBgNVBAoMCWt1bnN0bWFhbjENMAsGA1UECwwE
YXV0aDElMCMGA1UEAwwcYWRtaW4tYXV0aC5hdXRoLmt1bnN0bWFhbi5iZTBZMBMG
ByqGSM49AgEGCCqGSM49AwEHA0IABOZz4k4sRcSasB5cl+9m936QSv8EJTKHQNUk
SPbz1Q8qzlnvkfF4CHI3N/K3wbJ79OE6wyCFyl4cfbqH6o6OK9SjfDB6MBoGCCoD
BAUGBwgBBA4MDHsiYXR0cnMiOnt9fTAfBgNVHSMEGDAWgBROfsRoTMJ9W9HH/87+
1lxDUZWwqTAMBgNVHRMBAf8EAjAAMB0GA1UdDgQWBBSfWMFUymZtfQe4HqdjoBUV
VYVjuTAOBgNVHQ8BAf8EBAMCB4AwCgYIKoZIzj0EAwIDSQAwRgIhAMO3leAHo1QA
8Ss0TF3JRQdS+it4QqMLTbqI/+k+7nxwAiEAx8Unv/D8YF6fl2hDbyo2w7+l0GO+
C61ijbZRbiGN2uE=
-----END CERTIFICATE-----
