Certificate:
    Data:
        Version: 3 (0x2)
        Serial Number:
            cc:a1:93:a1:c3:77:e6:c7
        Signature Algorithm: ecdsa-with-SHA1
        Issuer: CN=kunstmaan.be, OU=ca, C=be, O=kunstmaan
        Validity
            Not Before: Feb 27 17:00:07 2018 GMT
            Not After : Feb 22 17:00:07 2038 GMT
        Subject: CN=kunstmaan.be, OU=ca, C=be, O=kunstmaan
        Subject Public Key Info:
            Public Key Algorithm: id-ecPublicKey
            EC Public Key:
                pub: 
                    04:5e:26:d8:79:c4:28:90:f4:f5:83:7d:5b:c3:c3:
                    18:df:9f:b2:14:fd:4d:01:c4:3c:bd:1c:47:38:44:
                    fa:d8:77:4c:ff:d9:91:14:23:74:0a:d9:f4:6b:ee:
                    b6:7d:cd:d3:2d:6b:0a:18:c2:67:22:f7:d5:80:1b:
                    b6:14:35:9e:6a
                ASN1 OID: prime256v1
        X509v3 extensions:
            X509v3 Subject Key Identifier: 
                36:DB:89:FC:56:3F:D3:96:CF:41:F0:4C:F0:DD:36:1E:C3:ED:2E:6A
            X509v3 Basic Constraints: critical
                CA:TRUE
            X509v3 Key Usage: critical
                Digital Signature, Key Encipherment, Certificate Sign, CRL Sign
            X509v3 Extended Key Usage: 
                2.5.29.37.0
    Signature Algorithm: ecdsa-with-SHA1
        30:44:02:20:5e:9d:c1:0f:5a:c6:2f:ab:08:78:d1:b8:ef:e3:
        bc:d1:ce:9c:b3:11:62:94:d8:15:d5:01:77:f9:a6:d4:5b:ff:
        02:20:5e:13:4c:5f:10:93:93:6a:67:4a:a7:5c:42:d7:1c:88:
        e2:32:a6:ab:86:b9:36:f3:4d:c1:c9:96:9d:52:5a:8a
-----BEGIN CERTIFICATE-----
MIIB0TCCAXmgAwIBAgIJAMyhk6HDd+bHMAkGByqGSM49BAEwRTEVMBMGA1UEAwwM
a3Vuc3RtYWFuLmJlMQswCQYDVQQLDAJjYTELMAkGA1UEBhMCYmUxEjAQBgNVBAoM
CWt1bnN0bWFhbjAeFw0xODAyMjcxNzAwMDdaFw0zODAyMjIxNzAwMDdaMEUxFTAT
BgNVBAMMDGt1bnN0bWFhbi5iZTELMAkGA1UECwwCY2ExCzAJBgNVBAYTAmJlMRIw
EAYDVQQKDAlrdW5zdG1hYW4wWTATBgcqhkjOPQIBBggqhkjOPQMBBwNCAAReJth5
xCiQ9PWDfVvDwxjfn7IU/U0BxDy9HEc4RPrYd0z/2ZEUI3QK2fRr7rZ9zdMtawoY
wmci99WAG7YUNZ5qo1MwUTAdBgNVHQ4EFgQUNtuJ/FY/05bPQfBM8N02HsPtLmow
DwYDVR0TAQH/BAUwAwEB/zAOBgNVHQ8BAf8EBAMCAaYwDwYDVR0lBAgwBgYEVR0l
ADAJBgcqhkjOPQQBA0cAMEQCIF6dwQ9axi+rCHjRuO/jvNHOnLMRYpTYFdUBd/mm
1Fv/AiBeE0xfEJOTamdKp1xC1xyI4jKmq4a5NvNNwcmWnVJaig==
-----END CERTIFICATE-----
Certificate:
    Data:
        Version: 3 (0x2)
        Serial Number:
            b5:d0:f7:45:f9:7f:a9:15
        Signature Algorithm: ecdsa-with-SHA1
        Issuer: CN=kunstmaan.be, OU=ca, C=be, O=kunstmaan
        Validity
            Not Before: Feb 27 17:00:11 2018 GMT
            Not After : Feb 25 17:00:11 2028 GMT
        Subject: C=be, O=kunstmaan, OU=auth, CN=auth.kunstmaan.be
        Subject Public Key Info:
            Public Key Algorithm: id-ecPublicKey
            EC Public Key:
                pub: 
                    04:8b:d9:09:b7:f5:c9:79:90:2a:21:d8:a1:4e:08:
                    76:68:90:c8:a1:21:bf:16:74:f9:48:8b:8a:95:19:
                    89:40:c7:71:cd:a1:80:fc:87:17:58:fd:4b:37:80:
                    21:83:08:e8:a1:d6:75:1a:79:21:35:92:1e:e1:ef:
                    bc:e6:89:3e:bf
                ASN1 OID: prime256v1
        X509v3 extensions:
            1.2.3.4.5.6.7.8.1: 
                ..{"attrs":{}}
            X509v3 Authority Key Identifier: 
                keyid:36:DB:89:FC:56:3F:D3:96:CF:41:F0:4C:F0:DD:36:1E:C3:ED:2E:6A

            X509v3 Basic Constraints: critical
                CA:TRUE
            X509v3 Subject Key Identifier: 
                6F:AD:99:6F:D6:A2:4F:17:3A:06:FC:48:B8:1E:62:FA:5A:7D:84:05
            X509v3 Extended Key Usage: 
                2.5.29.37.0
            X509v3 Key Usage: critical
                Digital Signature, Key Encipherment, Certificate Sign, CRL Sign
    Signature Algorithm: ecdsa-with-SHA1
        30:45:02:20:0d:51:c4:c3:f3:58:f4:4b:a0:80:2d:40:f6:67:
        99:03:22:5c:e2:8f:06:17:df:a9:66:0f:cd:13:1d:5b:3e:a8:
        02:21:00:8c:64:65:5c:ad:92:cb:22:94:b5:3d:47:72:de:c1:
        44:11:5a:88:6a:78:7d:2f:06:84:4a:08:42:7c:61:8e:49
-----BEGIN CERTIFICATE-----
MIICGDCCAb+gAwIBAgIJALXQ90X5f6kVMAkGByqGSM49BAEwRTEVMBMGA1UEAwwM
a3Vuc3RtYWFuLmJlMQswCQYDVQQLDAJjYTELMAkGA1UEBhMCYmUxEjAQBgNVBAoM
CWt1bnN0bWFhbjAeFw0xODAyMjcxNzAwMTFaFw0yODAyMjUxNzAwMTFaMEwxCzAJ
BgNVBAYTAmJlMRIwEAYDVQQKDAlrdW5zdG1hYW4xDTALBgNVBAsMBGF1dGgxGjAY
BgNVBAMMEWF1dGgua3Vuc3RtYWFuLmJlMFkwEwYHKoZIzj0CAQYIKoZIzj0DAQcD
QgAEi9kJt/XJeZAqIdihTgh2aJDIoSG/FnT5SIuKlRmJQMdxzaGA/IcXWP1LN4Ah
gwjoodZ1GnkhNZIe4e+85ok+v6OBkTCBjjAaBggqAwQFBgcIAQQODAx7ImF0dHJz
Ijp7fX0wHwYDVR0jBBgwFoAUNtuJ/FY/05bPQfBM8N02HsPtLmowDwYDVR0TAQH/
BAUwAwEB/zAdBgNVHQ4EFgQUb62Zb9aiTxc6BvxIuB5i+lp9hAUwDwYDVR0lBAgw
BgYEVR0lADAOBgNVHQ8BAf8EBAMCAaYwCQYHKoZIzj0EAQNIADBFAiANUcTD81j0
S6CALUD2Z5kDIlzijwYX36lmD80THVs+qAIhAIxkZVytkssilLU9R3LewUQRWohq
eH0vBoRKCEJ8YY5J
-----END CERTIFICATE-----
Certificate:
    Data:
        Version: 3 (0x2)
        Serial Number:
            e0:54:8c:c1:d2:86:93:73
        Signature Algorithm: ecdsa-with-SHA1
        Issuer: C=be, O=kunstmaan, OU=auth, CN=auth.kunstmaan.be
        Validity
            Not Before: Feb 27 17:00:12 2018 GMT
            Not After : Feb 25 17:00:12 2028 GMT
        Subject: C=be, O=kunstmaan, OU=auth, CN=admin-auth.auth.kunstmaan.be
        Subject Public Key Info:
            Public Key Algorithm: id-ecPublicKey
            EC Public Key:
                pub: 
                    04:6d:f3:70:bf:b7:84:58:58:f3:86:5c:ff:80:4e:
                    b8:30:a7:45:dc:a7:07:74:13:ab:51:0a:08:6d:05:
                    59:6b:0f:f4:8f:9a:34:c7:43:a2:98:13:12:9f:f7:
                    d9:b0:69:31:48:aa:d8:ef:d8:a2:58:11:b3:92:88:
                    50:d5:e3:75:4e
                ASN1 OID: prime256v1
        X509v3 extensions:
            1.2.3.4.5.6.7.8.1: 
                ..{"attrs":{}}
            X509v3 Authority Key Identifier: 
                keyid:6F:AD:99:6F:D6:A2:4F:17:3A:06:FC:48:B8:1E:62:FA:5A:7D:84:05

            X509v3 Basic Constraints: critical
                CA:FALSE
            X509v3 Subject Key Identifier: 
                DD:C0:2F:AB:05:4F:63:94:1F:A6:AC:31:59:9E:80:4F:90:3C:46:C7
            X509v3 Key Usage: critical
                Digital Signature
    Signature Algorithm: ecdsa-with-SHA1
        30:45:02:20:3b:f4:17:3e:4e:64:ed:a9:4d:42:b5:b9:cf:ec:
        09:8c:45:5a:0d:4e:ec:1d:9d:a4:4c:36:58:43:af:24:47:db:
        02:21:00:96:72:bd:f1:42:7e:2a:62:6e:43:3e:6e:ca:28:9a:
        eb:27:f8:d3:38:9e:bb:f5:6a:78:e4:9e:fc:98:4d:d7:63
-----BEGIN CERTIFICATE-----
MIICFDCCAbugAwIBAgIJAOBUjMHShpNzMAkGByqGSM49BAEwTDELMAkGA1UEBhMC
YmUxEjAQBgNVBAoMCWt1bnN0bWFhbjENMAsGA1UECwwEYXV0aDEaMBgGA1UEAwwR
YXV0aC5rdW5zdG1hYW4uYmUwHhcNMTgwMjI3MTcwMDEyWhcNMjgwMjI1MTcwMDEy
WjBXMQswCQYDVQQGEwJiZTESMBAGA1UECgwJa3Vuc3RtYWFuMQ0wCwYDVQQLDARh
dXRoMSUwIwYDVQQDDBxhZG1pbi1hdXRoLmF1dGgua3Vuc3RtYWFuLmJlMFkwEwYH
KoZIzj0CAQYIKoZIzj0DAQcDQgAEbfNwv7eEWFjzhlz/gE64MKdF3KcHdBOrUQoI
bQVZaw/0j5o0x0OimBMSn/fZsGkxSKrY79iiWBGzkohQ1eN1TqN8MHowGgYIKgME
BQYHCAEEDgwMeyJhdHRycyI6e319MB8GA1UdIwQYMBaAFG+tmW/Wok8XOgb8SLge
YvpafYQFMAwGA1UdEwEB/wQCMAAwHQYDVR0OBBYEFN3AL6sFT2OUH6asMVmegE+Q
PEbHMA4GA1UdDwEB/wQEAwIHgDAJBgcqhkjOPQQBA0gAMEUCIDv0Fz5OZO2pTUK1
uc/sCYxFWg1O7B2dpEw2WEOvJEfbAiEAlnK98UJ+KmJuQz5uyiia6yf40zieu/Vq
eOSe/JhN12M=
-----END CERTIFICATE-----
