Certificate:
    Data:
        Version: 3 (0x2)
        Serial Number:
            95:13:c6:e3:9c:f5:b0:be
        Signature Algorithm: ecdsa-with-SHA1
        Issuer: CN=kunstmaan.be, OU=ca, C=be, O=kunstmaan
        Validity
            Not Before: Feb 14 16:06:50 2018 GMT
            Not After : Feb  9 16:06:50 2038 GMT
        Subject: CN=kunstmaan.be, OU=ca, C=be, O=kunstmaan
        Subject Public Key Info:
            Public Key Algorithm: id-ecPublicKey
            EC Public Key:
                pub: 
                    04:21:bf:17:51:61:e7:51:2c:39:72:5f:f6:f6:1d:
                    04:8c:85:b4:61:2a:8a:8d:06:1e:4d:77:06:89:0e:
                    a4:d9:59:d0:97:14:97:10:e8:b9:70:23:38:1e:19:
                    c0:1e:ec:09:b5:ea:7a:bf:07:6b:17:25:cc:02:6d:
                    29:dc:bf:87:18
                ASN1 OID: prime256v1
        X509v3 extensions:
            X509v3 Subject Key Identifier: 
                B3:71:D9:27:14:0A:24:03:AC:50:A4:6F:0E:C0:BC:80:C9:B4:37:2F
            X509v3 Basic Constraints: critical
                CA:TRUE
            X509v3 Key Usage: critical
                Digital Signature, Key Encipherment, Certificate Sign, CRL Sign
            X509v3 Extended Key Usage: 
                2.5.29.37.0
    Signature Algorithm: ecdsa-with-SHA1
        30:44:02:20:78:14:b5:bb:de:4f:16:ea:56:93:f2:45:93:45:
        65:b5:42:53:6c:b7:d6:1c:82:70:0a:2a:b2:a4:c7:56:34:c3:
        02:20:59:6d:49:5f:ee:6f:7f:26:28:90:f8:65:f2:41:ad:f0:
        26:40:b7:cd:e2:7d:38:02:8a:26:b7:2d:8e:ce:c0:b3
-----BEGIN CERTIFICATE-----
MIIB0TCCAXmgAwIBAgIJAJUTxuOc9bC+MAkGByqGSM49BAEwRTEVMBMGA1UEAwwM
a3Vuc3RtYWFuLmJlMQswCQYDVQQLDAJjYTELMAkGA1UEBhMCYmUxEjAQBgNVBAoM
CWt1bnN0bWFhbjAeFw0xODAyMTQxNjA2NTBaFw0zODAyMDkxNjA2NTBaMEUxFTAT
BgNVBAMMDGt1bnN0bWFhbi5iZTELMAkGA1UECwwCY2ExCzAJBgNVBAYTAmJlMRIw
EAYDVQQKDAlrdW5zdG1hYW4wWTATBgcqhkjOPQIBBggqhkjOPQMBBwNCAAQhvxdR
YedRLDlyX/b2HQSMhbRhKoqNBh5NdwaJDqTZWdCXFJcQ6LlwIzgeGcAe7Am16nq/
B2sXJcwCbSncv4cYo1MwUTAdBgNVHQ4EFgQUs3HZJxQKJAOsUKRvDsC8gMm0Ny8w
DwYDVR0TAQH/BAUwAwEB/zAOBgNVHQ8BAf8EBAMCAaYwDwYDVR0lBAgwBgYEVR0l
ADAJBgcqhkjOPQQBA0cAMEQCIHgUtbveTxbqVpPyRZNFZbVCU2y31hyCcAoqsqTH
VjTDAiBZbUlf7m9/JiiQ+GXyQa3wJkC3zeJ9OAKKJrctjs7Asw==
-----END CERTIFICATE-----
Certificate:
    Data:
        Version: 3 (0x2)
        Serial Number:
            b2:5a:1f:65:3b:3c:ad:41
        Signature Algorithm: ecdsa-with-SHA1
        Issuer: CN=kunstmaan.be, OU=ca, C=be, O=kunstmaan
        Validity
            Not Before: Feb 14 16:06:54 2018 GMT
            Not After : Feb 12 16:06:54 2028 GMT
        Subject: C=be, O=kunstmaan, OU=auth, CN=auth.kunstmaan.be
        Subject Public Key Info:
            Public Key Algorithm: id-ecPublicKey
            EC Public Key:
                pub: 
                    04:0f:8e:d3:c2:9f:bd:01:b8:63:92:cf:23:b4:d3:
                    fd:54:1b:b4:42:ff:39:44:5c:72:22:53:de:72:2f:
                    1a:2e:c7:19:55:1a:ac:91:81:2f:f5:26:a9:84:5a:
                    70:31:ee:c6:78:38:1b:6a:b1:29:aa:df:45:46:63:
                    50:56:64:e1:df
                ASN1 OID: prime256v1
        X509v3 extensions:
            1.2.3.4.5.6.7.8.1: 
                ..{"attrs":{}}
            X509v3 Authority Key Identifier: 
                keyid:B3:71:D9:27:14:0A:24:03:AC:50:A4:6F:0E:C0:BC:80:C9:B4:37:2F

            X509v3 Basic Constraints: critical
                CA:TRUE
            X509v3 Subject Key Identifier: 
                95:7B:44:03:D8:97:C6:89:B4:E3:0F:92:5E:B4:3F:F4:96:78:5F:FA
            X509v3 Extended Key Usage: 
                2.5.29.37.0
            X509v3 Key Usage: critical
                Digital Signature, Key Encipherment, Certificate Sign, CRL Sign
    Signature Algorithm: ecdsa-with-SHA1
        30:44:02:20:63:f4:9b:ea:7f:be:df:ae:3b:8a:35:d8:df:e1:
        2d:49:a1:52:59:2f:bd:3a:13:44:86:61:9d:07:e9:21:f7:b3:
        02:20:31:50:1d:2f:43:78:f7:fd:44:b7:28:4e:0a:77:1e:2a:
        70:39:19:64:35:06:4c:37:f0:97:a8:6d:0f:3a:b9:14
-----BEGIN CERTIFICATE-----
MIICFzCCAb+gAwIBAgIJALJaH2U7PK1BMAkGByqGSM49BAEwRTEVMBMGA1UEAwwM
a3Vuc3RtYWFuLmJlMQswCQYDVQQLDAJjYTELMAkGA1UEBhMCYmUxEjAQBgNVBAoM
CWt1bnN0bWFhbjAeFw0xODAyMTQxNjA2NTRaFw0yODAyMTIxNjA2NTRaMEwxCzAJ
BgNVBAYTAmJlMRIwEAYDVQQKDAlrdW5zdG1hYW4xDTALBgNVBAsMBGF1dGgxGjAY
BgNVBAMMEWF1dGgua3Vuc3RtYWFuLmJlMFkwEwYHKoZIzj0CAQYIKoZIzj0DAQcD
QgAED47Twp+9Abhjks8jtNP9VBu0Qv85RFxyIlPeci8aLscZVRqskYEv9SaphFpw
Me7GeDgbarEpqt9FRmNQVmTh36OBkTCBjjAaBggqAwQFBgcIAQQODAx7ImF0dHJz
Ijp7fX0wHwYDVR0jBBgwFoAUs3HZJxQKJAOsUKRvDsC8gMm0Ny8wDwYDVR0TAQH/
BAUwAwEB/zAdBgNVHQ4EFgQUlXtEA9iXxom04w+SXrQ/9JZ4X/owDwYDVR0lBAgw
BgYEVR0lADAOBgNVHQ8BAf8EBAMCAaYwCQYHKoZIzj0EAQNHADBEAiBj9Jvqf77f
rjuKNdjf4S1JoVJZL706E0SGYZ0H6SH3swIgMVAdL0N49/1EtyhOCnceKnA5GWQ1
Bkw38JeobQ86uRQ=
-----END CERTIFICATE-----
Certificate:
    Data:
        Version: 3 (0x2)
        Serial Number:
            8e:d7:10:66:0f:93:5d:0f
        Signature Algorithm: ecdsa-with-SHA1
        Issuer: C=be, O=kunstmaan, OU=auth, CN=auth.kunstmaan.be
        Validity
            Not Before: Feb 14 16:06:54 2018 GMT
            Not After : Feb 12 16:06:54 2028 GMT
        Subject: C=be, O=kunstmaan, OU=auth, CN=admin-auth.auth.kunstmaan.be
        Subject Public Key Info:
            Public Key Algorithm: id-ecPublicKey
            EC Public Key:
                pub: 
                    04:66:31:99:54:5e:e3:c4:5c:c3:b0:4d:d3:68:ed:
                    59:27:29:f1:35:48:f6:08:76:87:48:d0:d1:91:8a:
                    1f:44:a3:62:a1:78:31:17:7f:bf:71:c0:27:d1:7f:
                    95:b2:10:8b:d2:24:2a:3f:d3:ec:17:00:26:43:b7:
                    5e:57:c1:fd:b0
                ASN1 OID: prime256v1
        X509v3 extensions:
            1.2.3.4.5.6.7.8.1: 
                ..{"attrs":{}}
            X509v3 Authority Key Identifier: 
                keyid:95:7B:44:03:D8:97:C6:89:B4:E3:0F:92:5E:B4:3F:F4:96:78:5F:FA

            X509v3 Basic Constraints: critical
                CA:FALSE
            X509v3 Subject Key Identifier: 
                4E:30:FB:6E:93:08:06:7D:24:22:BC:3C:9D:C0:FF:13:6A:BF:59:7B
            X509v3 Key Usage: critical
                Digital Signature
    Signature Algorithm: ecdsa-with-SHA1
        30:44:02:20:43:56:67:2a:c4:88:4f:81:3e:65:4f:1a:6e:01:
        8c:d4:4f:82:f2:02:d3:6c:01:33:20:24:12:af:d9:b0:24:29:
        02:20:77:30:18:d9:b4:76:81:2a:79:89:de:3d:c1:03:a2:ea:
        d5:14:00:3b:cc:c9:a5:72:80:6d:fe:fc:62:3d:0c:27
-----BEGIN CERTIFICATE-----
MIICEzCCAbugAwIBAgIJAI7XEGYPk10PMAkGByqGSM49BAEwTDELMAkGA1UEBhMC
YmUxEjAQBgNVBAoMCWt1bnN0bWFhbjENMAsGA1UECwwEYXV0aDEaMBgGA1UEAwwR
YXV0aC5rdW5zdG1hYW4uYmUwHhcNMTgwMjE0MTYwNjU0WhcNMjgwMjEyMTYwNjU0
WjBXMQswCQYDVQQGEwJiZTESMBAGA1UECgwJa3Vuc3RtYWFuMQ0wCwYDVQQLDARh
dXRoMSUwIwYDVQQDDBxhZG1pbi1hdXRoLmF1dGgua3Vuc3RtYWFuLmJlMFkwEwYH
KoZIzj0CAQYIKoZIzj0DAQcDQgAEZjGZVF7jxFzDsE3TaO1ZJynxNUj2CHaHSNDR
kYofRKNioXgxF3+/ccAn0X+VshCL0iQqP9PsFwAmQ7deV8H9sKN8MHowGgYIKgME
BQYHCAEEDgwMeyJhdHRycyI6e319MB8GA1UdIwQYMBaAFJV7RAPYl8aJtOMPkl60
P/SWeF/6MAwGA1UdEwEB/wQCMAAwHQYDVR0OBBYEFE4w+26TCAZ9JCK8PJ3A/xNq
v1l7MA4GA1UdDwEB/wQEAwIHgDAJBgcqhkjOPQQBA0cAMEQCIENWZyrEiE+BPmVP
Gm4BjNRPgvIC02wBMyAkEq/ZsCQpAiB3MBjZtHaBKnmJ3j3BA6Lq1RQAO8zJpXKA
bf78Yj0MJw==
-----END CERTIFICATE-----
