Certificate:
    Data:
        Version: 3 (0x2)
        Serial Number:
            cc:44:73:bc:cb:8c:00:37
        Signature Algorithm: ecdsa-with-SHA1
        Issuer: CN=kunstmaan.be, OU=tlsca, C=be, O=kunstmaan
        Validity
            Not Before: Feb 14 16:06:50 2018 GMT
            Not After : Feb  9 16:06:50 2038 GMT
        Subject: CN=kunstmaan.be, OU=tlsca, C=be, O=kunstmaan
        Subject Public Key Info:
            Public Key Algorithm: id-ecPublicKey
            EC Public Key:
                pub: 
                    04:07:06:30:3b:7b:1e:6f:56:71:7c:a1:ea:18:37:
                    8c:45:4a:33:d4:fe:31:ae:88:09:a8:c9:e9:bb:c2:
                    33:f4:3c:52:c7:e5:8d:ce:78:a7:6e:30:cb:3a:0e:
                    44:01:6d:de:51:9a:3d:ac:74:f7:61:a5:a5:b9:0d:
                    d4:c2:99:eb:6a
                ASN1 OID: prime256v1
        X509v3 extensions:
            X509v3 Subject Key Identifier: 
                FB:41:45:09:28:B4:C3:36:94:8F:FC:C5:CF:19:AF:BD:EE:B8:27:90
            X509v3 Basic Constraints: critical
                CA:TRUE
            X509v3 Key Usage: critical
                Digital Signature, Key Encipherment, Certificate Sign, CRL Sign
            X509v3 Extended Key Usage: 
                2.5.29.37.0
    Signature Algorithm: ecdsa-with-SHA1
        30:45:02:20:0c:76:49:e0:65:f4:4b:db:c7:9e:b5:ce:cb:e0:
        04:38:18:b3:aa:5d:cb:65:88:48:94:a9:f1:fb:44:5b:14:34:
        02:21:00:97:c7:17:cf:bd:73:c9:5e:b9:02:8d:9b:28:fc:0b:
        69:42:59:d4:7a:05:47:7b:28:73:80:39:95:6e:13:91:9a
-----BEGIN CERTIFICATE-----
MIIB2DCCAX+gAwIBAgIJAMxEc7zLjAA3MAkGByqGSM49BAEwSDEVMBMGA1UEAwwM
a3Vuc3RtYWFuLmJlMQ4wDAYDVQQLDAV0bHNjYTELMAkGA1UEBhMCYmUxEjAQBgNV
BAoMCWt1bnN0bWFhbjAeFw0xODAyMTQxNjA2NTBaFw0zODAyMDkxNjA2NTBaMEgx
FTATBgNVBAMMDGt1bnN0bWFhbi5iZTEOMAwGA1UECwwFdGxzY2ExCzAJBgNVBAYT
AmJlMRIwEAYDVQQKDAlrdW5zdG1hYW4wWTATBgcqhkjOPQIBBggqhkjOPQMBBwNC
AAQHBjA7ex5vVnF8oeoYN4xFSjPU/jGuiAmoyem7wjP0PFLH5Y3OeKduMMs6DkQB
bd5Rmj2sdPdhpaW5DdTCmetqo1MwUTAdBgNVHQ4EFgQU+0FFCSi0wzaUj/zFzxmv
ve64J5AwDwYDVR0TAQH/BAUwAwEB/zAOBgNVHQ8BAf8EBAMCAaYwDwYDVR0lBAgw
BgYEVR0lADAJBgcqhkjOPQQBA0gAMEUCIAx2SeBl9Evbx561zsvgBDgYs6pdy2WI
SJSp8ftEWxQ0AiEAl8cXz71zyV65Ao2bKPwLaUJZ1HoFR3soc4A5lW4TkZo=
-----END CERTIFICATE-----
Certificate:
    Data:
        Version: 3 (0x2)
        Serial Number:
            99:be:61:f3:ac:1a:0e:99
        Signature Algorithm: ecdsa-with-SHA1
        Issuer: CN=kunstmaan.be, OU=tlsca, C=be, O=kunstmaan
        Validity
            Not Before: Feb 14 16:06:54 2018 GMT
            Not After : Feb 12 16:06:54 2028 GMT
        Subject: C=be, O=kunstmaan, OU=auth, CN=auth.kunstmaan.be
        Subject Public Key Info:
            Public Key Algorithm: id-ecPublicKey
            EC Public Key:
                pub: 
                    04:55:8f:5b:75:b5:7d:bc:da:8e:05:9f:0e:de:96:
                    2d:55:1c:0d:91:ce:85:af:ee:7d:00:ca:e6:f1:1f:
                    77:81:12:c9:92:1d:c4:cd:25:fa:7b:e0:ab:e1:ab:
                    5b:aa:0c:e2:5f:78:8b:e1:f0:1c:91:06:70:a1:ed:
                    d5:91:ba:be:cb
                ASN1 OID: prime256v1
        X509v3 extensions:
            1.2.3.4.5.6.7.8.1: 
                ..{"attrs":{}}
            X509v3 Authority Key Identifier: 
                keyid:FB:41:45:09:28:B4:C3:36:94:8F:FC:C5:CF:19:AF:BD:EE:B8:27:90

            X509v3 Basic Constraints: critical
                CA:TRUE
            X509v3 Subject Key Identifier: 
                23:09:54:6B:09:73:09:3D:45:BA:47:F5:EA:FB:F9:D6:A5:F0:8D:B7
            X509v3 Key Usage: critical
                Digital Signature, Key Encipherment, Certificate Sign, CRL Sign
            X509v3 Extended Key Usage: 
                TLS Web Server Authentication, TLS Web Client Authentication
    Signature Algorithm: ecdsa-with-SHA1
        30:45:02:20:1d:d2:8b:f0:51:ad:30:5d:c0:10:69:9e:4d:25:
        bf:8f:27:3e:e3:23:b0:c8:f3:a9:33:e5:38:db:97:80:8c:09:
        02:21:00:dc:40:f9:cb:9a:b7:a0:73:38:29:e6:18:aa:4d:54:
        a6:19:0e:d4:82:bb:65:c0:57:c6:9a:ec:6e:a5:9d:e2:ef
-----BEGIN CERTIFICATE-----
MIICKTCCAdCgAwIBAgIJAJm+YfOsGg6ZMAkGByqGSM49BAEwSDEVMBMGA1UEAwwM
a3Vuc3RtYWFuLmJlMQ4wDAYDVQQLDAV0bHNjYTELMAkGA1UEBhMCYmUxEjAQBgNV
BAoMCWt1bnN0bWFhbjAeFw0xODAyMTQxNjA2NTRaFw0yODAyMTIxNjA2NTRaMEwx
CzAJBgNVBAYTAmJlMRIwEAYDVQQKDAlrdW5zdG1hYW4xDTALBgNVBAsMBGF1dGgx
GjAYBgNVBAMMEWF1dGgua3Vuc3RtYWFuLmJlMFkwEwYHKoZIzj0CAQYIKoZIzj0D
AQcDQgAEVY9bdbV9vNqOBZ8O3pYtVRwNkc6Fr+59AMrm8R93gRLJkh3EzSX6e+Cr
4atbqgziX3iL4fAckQZwoe3Vkbq+y6OBnzCBnDAaBggqAwQFBgcIAQQODAx7ImF0
dHJzIjp7fX0wHwYDVR0jBBgwFoAU+0FFCSi0wzaUj/zFzxmvve64J5AwDwYDVR0T
AQH/BAUwAwEB/zAdBgNVHQ4EFgQUIwlUawlzCT1Fukf16vv51qXwjbcwDgYDVR0P
AQH/BAQDAgGmMB0GA1UdJQQWMBQGCCsGAQUFBwMBBggrBgEFBQcDAjAJBgcqhkjO
PQQBA0gAMEUCIB3Si/BRrTBdwBBpnk0lv48nPuMjsMjzqTPlONuXgIwJAiEA3ED5
y5q3oHM4KeYYqk1UphkO1IK7ZcBXxprsbqWd4u8=
-----END CERTIFICATE-----
Certificate:
    Data:
        Version: 3 (0x2)
        Serial Number:
            ab:d3:1c:4a:cc:85:1d:4f
        Signature Algorithm: ecdsa-with-SHA1
        Issuer: C=be, O=kunstmaan, OU=auth, CN=auth.kunstmaan.be
        Validity
            Not Before: Feb 14 16:06:55 2018 GMT
            Not After : Feb 12 16:06:55 2028 GMT
        Subject: C=be, O=kunstmaan, OU=auth, CN=admin-auth.auth.kunstmaan.be
        Subject Public Key Info:
            Public Key Algorithm: id-ecPublicKey
            EC Public Key:
                pub: 
                    04:b5:af:e6:30:43:a3:15:7c:2c:16:92:54:cf:e6:
                    54:60:13:93:61:3c:19:fb:1c:94:ca:13:38:ff:36:
                    b7:d5:5e:33:fb:8a:02:65:d3:dc:b9:06:16:c9:e4:
                    9b:14:8c:08:86:51:20:27:2c:0f:cb:f1:79:da:3c:
                    d5:59:92:c6:5f
                ASN1 OID: prime256v1
        X509v3 extensions:
            1.2.3.4.5.6.7.8.1: 
                ..{"attrs":{}}
            X509v3 Authority Key Identifier: 
                keyid:23:09:54:6B:09:73:09:3D:45:BA:47:F5:EA:FB:F9:D6:A5:F0:8D:B7

            X509v3 Basic Constraints: critical
                CA:FALSE
            X509v3 Subject Key Identifier: 
                0F:37:C4:00:BE:0D:51:14:12:93:F9:2B:C5:E4:4F:FE:B0:D1:FC:B3
            X509v3 Key Usage: critical
                Digital Signature, Key Encipherment
            X509v3 Extended Key Usage: 
                TLS Web Server Authentication, TLS Web Client Authentication
    Signature Algorithm: ecdsa-with-SHA1
        30:45:02:20:52:49:a6:5a:b1:62:89:2b:6e:05:03:b6:dd:cd:
        bd:5d:c3:b6:a2:c8:49:f3:ae:1d:6f:ce:96:e9:89:b3:e4:32:
        02:21:00:ed:a6:bd:08:e0:49:ee:b9:c4:21:fc:21:95:52:7e:
        f2:23:21:18:bc:31:fd:7a:9c:aa:f8:a6:90:04:29:8c:33
-----BEGIN CERTIFICATE-----
MIICNTCCAdygAwIBAgIJAKvTHErMhR1PMAkGByqGSM49BAEwTDELMAkGA1UEBhMC
YmUxEjAQBgNVBAoMCWt1bnN0bWFhbjENMAsGA1UECwwEYXV0aDEaMBgGA1UEAwwR
YXV0aC5rdW5zdG1hYW4uYmUwHhcNMTgwMjE0MTYwNjU1WhcNMjgwMjEyMTYwNjU1
WjBXMQswCQYDVQQGEwJiZTESMBAGA1UECgwJa3Vuc3RtYWFuMQ0wCwYDVQQLDARh
dXRoMSUwIwYDVQQDDBxhZG1pbi1hdXRoLmF1dGgua3Vuc3RtYWFuLmJlMFkwEwYH
KoZIzj0CAQYIKoZIzj0DAQcDQgAEta/mMEOjFXwsFpJUz+ZUYBOTYTwZ+xyUyhM4
/za31V4z+4oCZdPcuQYWyeSbFIwIhlEgJywPy/F52jzVWZLGX6OBnDCBmTAaBggq
AwQFBgcIAQQODAx7ImF0dHJzIjp7fX0wHwYDVR0jBBgwFoAUIwlUawlzCT1Fukf1
6vv51qXwjbcwDAYDVR0TAQH/BAIwADAdBgNVHQ4EFgQUDzfEAL4NURQSk/krxeRP
/rDR/LMwDgYDVR0PAQH/BAQDAgWgMB0GA1UdJQQWMBQGCCsGAQUFBwMBBggrBgEF
BQcDAjAJBgcqhkjOPQQBA0gAMEUCIFJJplqxYokrbgUDtt3NvV3DtqLISfOuHW/O
lumJs+QyAiEA7aa9COBJ7rnEIfwhlVJ+8iMhGLwx/XqcqvimkAQpjDM=
-----END CERTIFICATE-----
