Certificate:
    Data:
        Version: 3 (0x2)
        Serial Number:
            b2:5a:1f:65:3b:3c:ad:41
        Signature Algorithm: ecdsa-with-SHA1
        Issuer: CN=kunstmaan.be, OU=ca, C=be, O=kunstmaan
        Validity
            Not Before: Feb 14 16:06:54 2018 GMT
            Not After : Feb 12 16:06:54 2028 GMT
        Subject: C=be, O=kunstmaan, OU=auth, CN=auth.kunstmaan.be
        Subject Public Key Info:
            Public Key Algorithm: id-ecPublicKey
            EC Public Key:
                pub: 
                    04:0f:8e:d3:c2:9f:bd:01:b8:63:92:cf:23:b4:d3:
                    fd:54:1b:b4:42:ff:39:44:5c:72:22:53:de:72:2f:
                    1a:2e:c7:19:55:1a:ac:91:81:2f:f5:26:a9:84:5a:
                    70:31:ee:c6:78:38:1b:6a:b1:29:aa:df:45:46:63:
                    50:56:64:e1:df
                ASN1 OID: prime256v1
        X509v3 extensions:
            1.2.3.4.5.6.7.8.1: 
                ..{"attrs":{}}
            X509v3 Authority Key Identifier: 
                keyid:B3:71:D9:27:14:0A:24:03:AC:50:A4:6F:0E:C0:BC:80:C9:B4:37:2F

            X509v3 Basic Constraints: critical
                CA:TRUE
            X509v3 Subject Key Identifier: 
                95:7B:44:03:D8:97:C6:89:B4:E3:0F:92:5E:B4:3F:F4:96:78:5F:FA
            X509v3 Extended Key Usage: 
                2.5.29.37.0
            X509v3 Key Usage: critical
                Digital Signature, Key Encipherment, Certificate Sign, CRL Sign
    Signature Algorithm: ecdsa-with-SHA1
        30:44:02:20:63:f4:9b:ea:7f:be:df:ae:3b:8a:35:d8:df:e1:
        2d:49:a1:52:59:2f:bd:3a:13:44:86:61:9d:07:e9:21:f7:b3:
        02:20:31:50:1d:2f:43:78:f7:fd:44:b7:28:4e:0a:77:1e:2a:
        70:39:19:64:35:06:4c:37:f0:97:a8:6d:0f:3a:b9:14
-----BEGIN CERTIFICATE-----
MIICFzCCAb+gAwIBAgIJALJaH2U7PK1BMAkGByqGSM49BAEwRTEVMBMGA1UEAwwM
a3Vuc3RtYWFuLmJlMQswCQYDVQQLDAJjYTELMAkGA1UEBhMCYmUxEjAQBgNVBAoM
CWt1bnN0bWFhbjAeFw0xODAyMTQxNjA2NTRaFw0yODAyMTIxNjA2NTRaMEwxCzAJ
BgNVBAYTAmJlMRIwEAYDVQQKDAlrdW5zdG1hYW4xDTALBgNVBAsMBGF1dGgxGjAY
BgNVBAMMEWF1dGgua3Vuc3RtYWFuLmJlMFkwEwYHKoZIzj0CAQYIKoZIzj0DAQcD
QgAED47Twp+9Abhjks8jtNP9VBu0Qv85RFxyIlPeci8aLscZVRqskYEv9SaphFpw
Me7GeDgbarEpqt9FRmNQVmTh36OBkTCBjjAaBggqAwQFBgcIAQQODAx7ImF0dHJz
Ijp7fX0wHwYDVR0jBBgwFoAUs3HZJxQKJAOsUKRvDsC8gMm0Ny8wDwYDVR0TAQH/
BAUwAwEB/zAdBgNVHQ4EFgQUlXtEA9iXxom04w+SXrQ/9JZ4X/owDwYDVR0lBAgw
BgYEVR0lADAOBgNVHQ8BAf8EBAMCAaYwCQYHKoZIzj0EAQNHADBEAiBj9Jvqf77f
rjuKNdjf4S1JoVJZL706E0SGYZ0H6SH3swIgMVAdL0N49/1EtyhOCnceKnA5GWQ1
Bkw38JeobQ86uRQ=
-----END CERTIFICATE-----
