Certificate:
    Data:
        Version: 3 (0x2)
        Serial Number:
            ee:c8:a7:f1:5e:5e:1e:ce
        Signature Algorithm: ecdsa-with-SHA1
        Issuer: C=be, O=kunstmaan, OU=auth, CN=auth.kunstmaan.be
        Validity
            Not Before: Feb 14 16:06:59 2018 GMT
            Not After : Feb 12 16:06:59 2028 GMT
        Subject: C=be, O=kunstmaan, OU=auth, CN=user-5.auth.kunstmaan.be
        Subject Public Key Info:
            Public Key Algorithm: id-ecPublicKey
            EC Public Key:
                pub: 
                    04:7d:c1:88:4d:bd:e9:36:2a:ed:68:36:0b:b9:6a:
                    d3:a3:c7:71:1c:32:0e:71:7a:bf:8d:06:0c:e3:d2:
                    a7:6f:50:d7:64:75:1a:7b:1b:c2:b5:b3:b8:a5:a6:
                    21:58:35:b7:e8:2c:39:f3:e0:ed:93:5a:19:fb:3c:
                    58:6a:40:48:ba
                ASN1 OID: prime256v1
        X509v3 extensions:
            1.2.3.4.5.6.7.8.1: 
                ..{"attrs":{"Name":"user-5"}}
            X509v3 Authority Key Identifier: 
                keyid:95:7B:44:03:D8:97:C6:89:B4:E3:0F:92:5E:B4:3F:F4:96:78:5F:FA

            X509v3 Basic Constraints: critical
                CA:FALSE
            X509v3 Subject Key Identifier: 
                16:01:F7:2D:14:B9:B7:E8:DE:5B:D7:3A:D5:02:6D:AB:89:07:F9:BB
            X509v3 Key Usage: critical
                Digital Signature
    Signature Algorithm: ecdsa-with-SHA1
        30:45:02:21:00:8a:23:fe:b6:c6:e8:d7:d2:8c:83:d0:19:33:
        b6:4e:c3:9f:83:e6:8c:04:03:88:20:69:6f:00:fe:0d:7b:97:
        71:02:20:16:bb:83:d4:90:8e:8b:16:1c:be:60:10:c6:3c:dd:
        44:be:09:8c:5b:de:43:5a:df:33:73:43:d6:a3:8b:64:3b
-----BEGIN CERTIFICATE-----
MIICITCCAcigAwIBAgIJAO7Ip/FeXh7OMAkGByqGSM49BAEwTDELMAkGA1UEBhMC
YmUxEjAQBgNVBAoMCWt1bnN0bWFhbjENMAsGA1UECwwEYXV0aDEaMBgGA1UEAwwR
YXV0aC5rdW5zdG1hYW4uYmUwHhcNMTgwMjE0MTYwNjU5WhcNMjgwMjEyMTYwNjU5
WjBTMQswCQYDVQQGEwJiZTESMBAGA1UECgwJa3Vuc3RtYWFuMQ0wCwYDVQQLDARh
dXRoMSEwHwYDVQQDDBh1c2VyLTUuYXV0aC5rdW5zdG1hYW4uYmUwWTATBgcqhkjO
PQIBBggqhkjOPQMBBwNCAAR9wYhNvek2Ku1oNgu5atOjx3EcMg5xer+NBgzj0qdv
UNdkdRp7G8K1s7ilpiFYNbfoLDnz4O2TWhn7PFhqQEi6o4GMMIGJMCkGCCoDBAUG
BwgBBB0MG3siYXR0cnMiOnsiTmFtZSI6InVzZXItNSJ9fTAfBgNVHSMEGDAWgBSV
e0QD2JfGibTjD5JetD/0lnhf+jAMBgNVHRMBAf8EAjAAMB0GA1UdDgQWBBQWAfct
FLm36N5b1zrVAm2riQf5uzAOBgNVHQ8BAf8EBAMCB4AwCQYHKoZIzj0EAQNIADBF
AiEAiiP+tsbo19KMg9AZM7ZOw5+D5owEA4ggaW8A/g17l3ECIBa7g9SQjosWHL5g
EMY83US+CYxb3kNa3zNzQ9aji2Q7
-----END CERTIFICATE-----
