Certificate:
    Data:
        Version: 3 (0x2)
        Serial Number:
            90:c4:1d:73:65:ee:ec:73
        Signature Algorithm: ecdsa-with-SHA1
        Issuer: C=be, O=kunstmaan, OU=auth, CN=auth.kunstmaan.be
        Validity
            Not Before: Feb 27 17:00:17 2018 GMT
            Not After : Feb 25 17:00:17 2028 GMT
        Subject: C=be, O=kunstmaan, OU=auth, CN=user-5.auth.kunstmaan.be
        Subject Public Key Info:
            Public Key Algorithm: id-ecPublicKey
            EC Public Key:
                pub: 
                    04:15:4a:19:94:b5:26:e0:48:a4:33:36:5e:be:43:
                    12:9f:f8:aa:0a:f0:97:6e:49:a6:08:eb:37:89:bd:
                    f8:5d:cf:20:11:50:01:fb:38:f7:d4:de:4d:c2:c5:
                    97:28:96:4a:10:bf:e3:6a:1d:48:d1:3d:1a:5f:86:
                    47:52:a8:45:79
                ASN1 OID: prime256v1
        X509v3 extensions:
            1.2.3.4.5.6.7.8.1: 
                ..{"attrs":{"Name":"user-5"}}
            X509v3 Authority Key Identifier: 
                keyid:6F:AD:99:6F:D6:A2:4F:17:3A:06:FC:48:B8:1E:62:FA:5A:7D:84:05

            X509v3 Basic Constraints: critical
                CA:FALSE
            X509v3 Subject Key Identifier: 
                A4:0D:92:9D:5D:68:FA:95:A0:54:08:E2:20:1E:A9:F3:F6:A4:74:5B
            X509v3 Key Usage: critical
                Digital Signature
    Signature Algorithm: ecdsa-with-SHA1
        30:46:02:21:00:a3:8c:b4:58:d8:9e:36:08:ec:dd:92:50:91:
        73:2b:44:e5:e5:ad:7f:42:c0:4d:61:9a:5e:0d:a3:a6:e7:e2:
        d7:02:21:00:8c:2a:0c:5e:9c:89:ff:9f:a3:73:b8:87:fa:17:
        68:30:26:88:e0:ad:31:74:1a:af:c5:02:b6:b8:c5:64:18:53
-----BEGIN CERTIFICATE-----
MIICIjCCAcigAwIBAgIJAJDEHXNl7uxzMAkGByqGSM49BAEwTDELMAkGA1UEBhMC
YmUxEjAQBgNVBAoMCWt1bnN0bWFhbjENMAsGA1UECwwEYXV0aDEaMBgGA1UEAwwR
YXV0aC5rdW5zdG1hYW4uYmUwHhcNMTgwMjI3MTcwMDE3WhcNMjgwMjI1MTcwMDE3
WjBTMQswCQYDVQQGEwJiZTESMBAGA1UECgwJa3Vuc3RtYWFuMQ0wCwYDVQQLDARh
dXRoMSEwHwYDVQQDDBh1c2VyLTUuYXV0aC5rdW5zdG1hYW4uYmUwWTATBgcqhkjO
PQIBBggqhkjOPQMBBwNCAAQVShmUtSbgSKQzNl6+QxKf+KoK8JduSaYI6zeJvfhd
zyARUAH7OPfU3k3CxZcolkoQv+NqHUjRPRpfhkdSqEV5o4GMMIGJMCkGCCoDBAUG
BwgBBB0MG3siYXR0cnMiOnsiTmFtZSI6InVzZXItNSJ9fTAfBgNVHSMEGDAWgBRv
rZlv1qJPFzoG/Ei4HmL6Wn2EBTAMBgNVHRMBAf8EAjAAMB0GA1UdDgQWBBSkDZKd
XWj6laBUCOIgHqnz9qR0WzAOBgNVHQ8BAf8EBAMCB4AwCQYHKoZIzj0EAQNJADBG
AiEAo4y0WNieNgjs3ZJQkXMrROXlrX9CwE1hml4No6bn4tcCIQCMKgxenIn/n6Nz
uIf6F2gwJojgrTF0Gq/FAra4xWQYUw==
-----END CERTIFICATE-----
