Certificate:
    Data:
        Version: 3 (0x2)
        Serial Number:
            f7:9d:a8:2f:a4:0b:16:90
        Signature Algorithm: ecdsa-with-SHA1
        Issuer: CN=kunstmaan.be, OU=ca, C=be, O=kunstmaan
        Validity
            Not Before: Feb 14 16:06:53 2018 GMT
            Not After : Feb 12 16:06:53 2028 GMT
        Subject: C=be, O=kunstmaan, OU=kumapeer, CN=kumapeer.kunstmaan.be
        Subject Public Key Info:
            Public Key Algorithm: id-ecPublicKey
            EC Public Key:
                pub: 
                    04:54:ab:a1:40:fe:8a:7d:e5:fa:97:78:6f:eb:91:
                    c5:99:98:b1:cf:6d:3e:28:49:9b:3a:7a:eb:fc:1d:
                    83:9a:94:ce:d5:0c:d3:fe:b8:75:c2:f8:c3:ae:d6:
                    92:eb:5e:5b:12:ed:34:a4:db:92:bb:ae:7c:dc:87:
                    86:22:81:6d:62
                ASN1 OID: prime256v1
        X509v3 extensions:
            1.2.3.4.5.6.7.8.1: 
                ..{"attrs":{}}
            X509v3 Authority Key Identifier: 
                keyid:B3:71:D9:27:14:0A:24:03:AC:50:A4:6F:0E:C0:BC:80:C9:B4:37:2F

            X509v3 Basic Constraints: critical
                CA:FALSE
            X509v3 Subject Key Identifier: 
                E2:91:D6:C1:47:1F:1A:DF:A6:87:B4:29:3E:B7:91:58:9F:50:33:34
            X509v3 Key Usage: critical
                Digital Signature
    Signature Algorithm: ecdsa-with-SHA1
        30:45:02:20:04:a8:38:ed:55:29:d1:9a:8a:93:69:e2:e4:3b:
        f1:4f:b9:a0:ff:e4:19:db:8e:ea:00:fb:18:76:14:7d:c3:61:
        02:21:00:c4:77:4b:a3:a8:3d:15:a9:ba:17:d9:bc:7d:e8:38:
        fc:d1:85:25:e0:1e:ef:79:b2:80:23:a1:53:17:17:87:3f
-----BEGIN CERTIFICATE-----
MIICCjCCAbGgAwIBAgIJAPedqC+kCxaQMAkGByqGSM49BAEwRTEVMBMGA1UEAwwM
a3Vuc3RtYWFuLmJlMQswCQYDVQQLDAJjYTELMAkGA1UEBhMCYmUxEjAQBgNVBAoM
CWt1bnN0bWFhbjAeFw0xODAyMTQxNjA2NTNaFw0yODAyMTIxNjA2NTNaMFQxCzAJ
BgNVBAYTAmJlMRIwEAYDVQQKDAlrdW5zdG1hYW4xETAPBgNVBAsMCGt1bWFwZWVy
MR4wHAYDVQQDDBVrdW1hcGVlci5rdW5zdG1hYW4uYmUwWTATBgcqhkjOPQIBBggq
hkjOPQMBBwNCAARUq6FA/op95fqXeG/rkcWZmLHPbT4oSZs6euv8HYOalM7VDNP+
uHXC+MOu1pLrXlsS7TSk25K7rnzch4YigW1io3wwejAaBggqAwQFBgcIAQQODAx7
ImF0dHJzIjp7fX0wHwYDVR0jBBgwFoAUs3HZJxQKJAOsUKRvDsC8gMm0Ny8wDAYD
VR0TAQH/BAIwADAdBgNVHQ4EFgQU4pHWwUcfGt+mh7QpPreRWJ9QMzQwDgYDVR0P
AQH/BAQDAgeAMAkGByqGSM49BAEDSAAwRQIgBKg47VUp0ZqKk2ni5DvxT7mg/+QZ
247qAPsYdhR9w2ECIQDEd0ujqD0VqboX2bx96Dj80YUl4B7vebKAI6FTFxeHPw==
-----END CERTIFICATE-----
