Certificate:
    Data:
        Version: 3 (0x2)
        Serial Number:
            8c:f3:2a:69:f6:86:62:ed
    Signature Algorithm: ecdsa-with-SHA256
        Issuer: CN=kunstmaan.be, OU=ca, C=be, O=kunstmaan
        Validity
            Not Before: Feb 28 10:12:52 2018 GMT
            Not After : Feb 23 10:12:52 2038 GMT
        Subject: CN=kunstmaan.be, OU=ca, C=be, O=kunstmaan
        Subject Public Key Info:
            Public Key Algorithm: id-ecPublicKey
                Public-Key: (256 bit)
                pub: 
                    04:02:a1:be:09:b2:3d:b5:b8:a4:79:79:63:d5:72:
                    83:db:4d:e7:0a:15:ac:b5:43:b5:58:48:2e:a4:b1:
                    bd:b5:b5:97:4b:ca:7a:73:bd:58:3f:d9:7b:12:8e:
                    1f:71:9f:1e:51:f9:5d:a1:fd:42:c3:4b:39:f3:34:
                    80:3f:f0:3e:b7
                ASN1 OID: prime256v1
                NIST CURVE: P-256
        X509v3 extensions:
            X509v3 Subject Key Identifier: 
                5B:94:1B:FA:3D:97:08:38:D0:52:B7:C6:20:15:62:CB:C6:D1:D3:5D
            X509v3 Basic Constraints: critical
                CA:TRUE
            X509v3 Key Usage: critical
                Digital Signature, Key Encipherment, Certificate Sign, CRL Sign
            X509v3 Extended Key Usage: 
                Any Extended Key Usage
    Signature Algorithm: ecdsa-with-SHA256
         30:46:02:21:00:af:95:be:b4:d4:61:50:70:9b:3e:27:7a:b9:
         84:48:af:f0:09:1a:eb:a4:4f:6c:fc:49:bd:d0:67:bb:cd:fb:
         34:02:21:00:e2:10:b6:83:fd:30:d8:65:19:73:54:b6:fb:48:
         90:d6:55:fc:c6:bf:4b:24:ae:62:fd:fc:7e:36:c0:78:b6:b9
-----BEGIN CERTIFICATE-----
MIIB1TCCAXqgAwIBAgIJAIzzKmn2hmLtMAoGCCqGSM49BAMCMEUxFTATBgNVBAMM
DGt1bnN0bWFhbi5iZTELMAkGA1UECwwCY2ExCzAJBgNVBAYTAmJlMRIwEAYDVQQK
DAlrdW5zdG1hYW4wHhcNMTgwMjI4MTAxMjUyWhcNMzgwMjIzMTAxMjUyWjBFMRUw
EwYDVQQDDAxrdW5zdG1hYW4uYmUxCzAJBgNVBAsMAmNhMQswCQYDVQQGEwJiZTES
MBAGA1UECgwJa3Vuc3RtYWFuMFkwEwYHKoZIzj0CAQYIKoZIzj0DAQcDQgAEAqG+
CbI9tbikeXlj1XKD203nChWstUO1WEgupLG9tbWXS8p6c71YP9l7Eo4fcZ8eUfld
of1Cw0s58zSAP/A+t6NTMFEwHQYDVR0OBBYEFFuUG/o9lwg40FK3xiAVYsvG0dNd
MA8GA1UdEwEB/wQFMAMBAf8wDgYDVR0PAQH/BAQDAgGmMA8GA1UdJQQIMAYGBFUd
JQAwCgYIKoZIzj0EAwIDSQAwRgIhAK+VvrTUYVBwmz4nermESK/wCRrrpE9s/Em9
0Ge7zfs0AiEA4hC2g/0w2GUZc1S2+0iQ1lX8xr9LJK5i/fx+NsB4trk=
-----END CERTIFICATE-----
Certificate:
    Data:
        Version: 3 (0x2)
        Serial Number:
            e3:94:5f:0a:d2:26:be:7c
    Signature Algorithm: ecdsa-with-SHA256
        Issuer: CN=kunstmaan.be, OU=ca, C=be, O=kunstmaan
        Validity
            Not Before: Feb 28 10:12:52 2018 GMT
            Not After : Feb 26 10:12:52 2028 GMT
        Subject: C=be, O=kunstmaan, OU=org, CN=org.kunstmaan.be
        Subject Public Key Info:
            Public Key Algorithm: id-ecPublicKey
                Public-Key: (256 bit)
                pub: 
                    04:43:a6:2d:cd:5f:fc:f0:66:e1:7e:60:f7:32:8b:
                    81:dc:dc:86:82:6b:f2:a9:d9:a9:a2:48:fb:8f:5e:
                    68:aa:41:b9:f5:28:c4:b0:1c:6a:5e:55:84:e1:89:
                    d1:43:9c:46:5c:22:e5:49:95:d3:22:1f:07:0b:1a:
                    13:f6:5b:7e:e4
                ASN1 OID: prime256v1
                NIST CURVE: P-256
        X509v3 extensions:
            1.2.3.4.5.6.7.8.1: 
                ..{"attrs":{}}
            X509v3 Authority Key Identifier: 
                keyid:5B:94:1B:FA:3D:97:08:38:D0:52:B7:C6:20:15:62:CB:C6:D1:D3:5D

            X509v3 Basic Constraints: critical
                CA:TRUE
            X509v3 Subject Key Identifier: 
                21:26:6E:CC:58:10:2E:BE:D2:15:53:E3:22:BE:F0:04:B7:E5:84:7E
            X509v3 Key Usage: critical
                Digital Signature, Key Encipherment, Certificate Sign, CRL Sign
            X509v3 Extended Key Usage: 
                TLS Web Server Authentication, TLS Web Client Authentication
    Signature Algorithm: ecdsa-with-SHA256
         30:46:02:21:00:f6:4c:49:06:22:a7:de:10:1e:71:fc:d7:c7:
         65:06:31:e4:55:5f:e2:f5:ba:f8:f5:d9:2a:8d:c2:d7:8e:bb:
         1e:02:21:00:b4:05:9f:fe:cb:04:88:f7:93:8e:be:82:0c:c8:
         4f:45:12:5f:bd:bb:be:2e:f4:9f:22:90:97:e2:84:25:5d:f1
-----BEGIN CERTIFICATE-----
MIICJzCCAcygAwIBAgIJAOOUXwrSJr58MAoGCCqGSM49BAMCMEUxFTATBgNVBAMM
DGt1bnN0bWFhbi5iZTELMAkGA1UECwwCY2ExCzAJBgNVBAYTAmJlMRIwEAYDVQQK
DAlrdW5zdG1hYW4wHhcNMTgwMjI4MTAxMjUyWhcNMjgwMjI2MTAxMjUyWjBKMQsw
CQYDVQQGEwJiZTESMBAGA1UECgwJa3Vuc3RtYWFuMQwwCgYDVQQLDANvcmcxGTAX
BgNVBAMMEG9yZy5rdW5zdG1hYW4uYmUwWTATBgcqhkjOPQIBBggqhkjOPQMBBwNC
AARDpi3NX/zwZuF+YPcyi4Hc3IaCa/Kp2amiSPuPXmiqQbn1KMSwHGpeVYThidFD
nEZcIuVJldMiHwcLGhP2W37ko4GfMIGcMBoGCCoDBAUGBwgBBA4MDHsiYXR0cnMi
Ont9fTAfBgNVHSMEGDAWgBRblBv6PZcIONBSt8YgFWLLxtHTXTAPBgNVHRMBAf8E
BTADAQH/MB0GA1UdDgQWBBQhJm7MWBAuvtIVU+MivvAEt+WEfjAOBgNVHQ8BAf8E
BAMCAaYwHQYDVR0lBBYwFAYIKwYBBQUHAwEGCCsGAQUFBwMCMAoGCCqGSM49BAMC
A0kAMEYCIQD2TEkGIqfeEB5x/NfHZQYx5FVf4vW6+PXZKo3C1467HgIhALQFn/7L
BIj3k46+ggzIT0USX727vi70nyKQl+KEJV3x
-----END CERTIFICATE-----
Certificate:
    Data:
        Version: 3 (0x2)
        Serial Number:
            a9:db:09:2c:7c:38:0d:0b
    Signature Algorithm: ecdsa-with-SHA256
        Issuer: C=be, O=kunstmaan, OU=org, CN=org.kunstmaan.be
        Validity
            Not Before: Feb 28 10:12:53 2018 GMT
            Not After : Feb 26 10:12:53 2028 GMT
        Subject: C=be, O=kunstmaan, OU=org, CN=admin-kuma.org.kunstmaan.be
        Subject Public Key Info:
            Public Key Algorithm: id-ecPublicKey
                Public-Key: (256 bit)
                pub: 
                    04:da:17:b5:34:1a:a5:f4:ab:29:5e:5a:c9:b3:fe:
                    c9:e2:fd:18:ff:a3:78:2d:94:d4:67:d1:f5:17:f0:
                    f3:a8:ed:f5:95:9d:7b:d7:cb:13:f1:c3:f2:10:b4:
                    99:71:37:55:ab:f4:90:8c:59:61:c1:87:e1:9d:db:
                    44:0c:fb:aa:68
                ASN1 OID: prime256v1
                NIST CURVE: P-256
        X509v3 extensions:
            1.2.3.4.5.6.7.8.1: 
                ..{"attrs":{}}
            X509v3 Authority Key Identifier: 
                keyid:21:26:6E:CC:58:10:2E:BE:D2:15:53:E3:22:BE:F0:04:B7:E5:84:7E

            X509v3 Basic Constraints: critical
                CA:FALSE
            X509v3 Subject Key Identifier: 
                16:B9:CE:6D:6F:EE:B6:1F:EC:02:4C:CA:11:EC:80:BB:38:F9:EE:AF
            X509v3 Key Usage: critical
                Digital Signature, Key Encipherment
            X509v3 Extended Key Usage: 
                TLS Web Server Authentication, TLS Web Client Authentication
    Signature Algorithm: ecdsa-with-SHA256
         30:44:02:20:19:ad:c1:c4:62:f8:ea:f4:e4:5b:fc:96:c1:3d:
         b8:ab:52:f3:f3:25:54:c5:a3:e7:2a:a8:c0:cd:83:63:85:6f:
         02:20:4b:db:b6:43:82:01:96:98:01:1a:8b:c8:d3:4c:6e:b7:
         7c:ce:3d:b3:f9:cd:dc:cf:ae:1d:98:5d:b8:ff:3f:47
-----BEGIN CERTIFICATE-----
MIICMjCCAdmgAwIBAgIJAKnbCSx8OA0LMAoGCCqGSM49BAMCMEoxCzAJBgNVBAYT
AmJlMRIwEAYDVQQKDAlrdW5zdG1hYW4xDDAKBgNVBAsMA29yZzEZMBcGA1UEAwwQ
b3JnLmt1bnN0bWFhbi5iZTAeFw0xODAyMjgxMDEyNTNaFw0yODAyMjYxMDEyNTNa
MFUxCzAJBgNVBAYTAmJlMRIwEAYDVQQKDAlrdW5zdG1hYW4xDDAKBgNVBAsMA29y
ZzEkMCIGA1UEAwwbYWRtaW4ta3VtYS5vcmcua3Vuc3RtYWFuLmJlMFkwEwYHKoZI
zj0CAQYIKoZIzj0DAQcDQgAE2he1NBql9KspXlrJs/7J4v0Y/6N4LZTUZ9H1F/Dz
qO31lZ1718sT8cPyELSZcTdVq/SQjFlhwYfhndtEDPuqaKOBnDCBmTAaBggqAwQF
BgcIAQQODAx7ImF0dHJzIjp7fX0wHwYDVR0jBBgwFoAUISZuzFgQLr7SFVPjIr7w
BLflhH4wDAYDVR0TAQH/BAIwADAdBgNVHQ4EFgQUFrnObW/uth/sAkzKEeyAuzj5
7q8wDgYDVR0PAQH/BAQDAgWgMB0GA1UdJQQWMBQGCCsGAQUFBwMBBggrBgEFBQcD
AjAKBggqhkjOPQQDAgNHADBEAiAZrcHEYvjq9ORb/JbBPbirUvPzJVTFo+cqqMDN
g2OFbwIgS9u2Q4IBlpgBGovI00xut3zOPbP5zdzPrh2YXbj/P0c=
-----END CERTIFICATE-----
