Certificate:
    Data:
        Version: 3 (0x2)
        Serial Number:
            97:ce:63:b2:c1:a4:ae:1a
        Signature Algorithm: ecdsa-with-SHA1
        Issuer: C=be, O=kunstmaan, OU=auth, CN=auth.kunstmaan.be
        Validity
            Not Before: Feb 27 17:00:18 2018 GMT
            Not After : Feb 25 17:00:18 2028 GMT
        Subject: C=be, O=kunstmaan, OU=auth, CN=user-5.auth.kunstmaan.be
        Subject Public Key Info:
            Public Key Algorithm: id-ecPublicKey
            EC Public Key:
                pub: 
                    04:1d:b8:a3:c4:68:d8:20:11:db:a6:a6:bc:ef:5d:
                    e8:37:80:7a:27:f7:8a:3f:12:45:12:d5:ee:83:1a:
                    ac:8d:1b:d1:84:f6:9a:b4:a7:37:f7:d1:e9:1f:9c:
                    bf:2b:09:b8:d3:7d:cb:32:5f:66:f0:71:1c:5d:e1:
                    12:35:51:c0:33
                ASN1 OID: prime256v1
        X509v3 extensions:
            1.2.3.4.5.6.7.8.1: 
                ..{"attrs":{"Name":"user-5"}}
            X509v3 Authority Key Identifier: 
                keyid:80:63:DD:37:12:8B:E5:B9:3A:BD:96:0D:EC:EE:BF:E3:2C:66:0B:12

            X509v3 Basic Constraints: critical
                CA:FALSE
            X509v3 Subject Key Identifier: 
                22:91:5D:4C:E2:E8:95:37:D4:16:AE:34:D1:5B:01:3C:75:81:5C:48
            X509v3 Key Usage: critical
                Digital Signature, Key Encipherment
            X509v3 Extended Key Usage: 
                TLS Web Server Authentication, TLS Web Client Authentication
    Signature Algorithm: ecdsa-with-SHA1
        30:45:02:21:00:d0:90:e5:88:fa:f7:ed:cc:96:48:05:d1:3b:
        df:c8:bd:15:4a:ca:d6:af:55:ee:46:12:73:7e:43:be:7d:34:
        3a:02:20:43:e0:d6:f6:31:c8:63:15:1f:24:86:8d:73:75:20:
        05:b4:59:64:ea:39:76:53:d9:c2:b9:b7:5e:a5:b3:21:43
-----BEGIN CERTIFICATE-----
MIICQDCCAeegAwIBAgIJAJfOY7LBpK4aMAkGByqGSM49BAEwTDELMAkGA1UEBhMC
YmUxEjAQBgNVBAoMCWt1bnN0bWFhbjENMAsGA1UECwwEYXV0aDEaMBgGA1UEAwwR
YXV0aC5rdW5zdG1hYW4uYmUwHhcNMTgwMjI3MTcwMDE4WhcNMjgwMjI1MTcwMDE4
WjBTMQswCQYDVQQGEwJiZTESMBAGA1UECgwJa3Vuc3RtYWFuMQ0wCwYDVQQLDARh
dXRoMSEwHwYDVQQDDBh1c2VyLTUuYXV0aC5rdW5zdG1hYW4uYmUwWTATBgcqhkjO
PQIBBggqhkjOPQMBBwNCAAQduKPEaNggEdumprzvXeg3gHon94o/EkUS1e6DGqyN
G9GE9pq0pzf30ekfnL8rCbjTfcsyX2bwcRxd4RI1UcAzo4GrMIGoMCkGCCoDBAUG
BwgBBB0MG3siYXR0cnMiOnsiTmFtZSI6InVzZXItNSJ9fTAfBgNVHSMEGDAWgBSA
Y903EovluTq9lg3s7r/jLGYLEjAMBgNVHRMBAf8EAjAAMB0GA1UdDgQWBBQikV1M
4uiVN9QWrjTRWwE8dYFcSDAOBgNVHQ8BAf8EBAMCBaAwHQYDVR0lBBYwFAYIKwYB
BQUHAwEGCCsGAQUFBwMCMAkGByqGSM49BAEDSAAwRQIhANCQ5Yj69+3MlkgF0Tvf
yL0VSsrWr1XuRhJzfkO+fTQ6AiBD4Nb2MchjFR8kho1zdSAFtFlk6jl2U9nCubde
pbMhQw==
-----END CERTIFICATE-----
