Certificate:
    Data:
        Version: 3 (0x2)
        Serial Number:
            f9:17:b9:d6:35:51:85:d5
    Signature Algorithm: ecdsa-with-SHA256
        Issuer: C=be, O=kunstmaan, OU=auth, CN=auth.kunstmaan.be
        Validity
            Not Before: Feb 28 10:13:00 2018 GMT
            Not After : Feb 26 10:13:00 2028 GMT
        Subject: C=be, O=kunstmaan, OU=auth, CN=user-5.auth.kunstmaan.be
        Subject Public Key Info:
            Public Key Algorithm: id-ecPublicKey
                Public-Key: (256 bit)
                pub: 
                    04:ed:92:ae:76:fc:5c:65:c1:af:a9:4e:4f:9e:d6:
                    2f:c7:6f:7b:c2:3e:af:fd:b6:93:21:58:b2:dd:0f:
                    b4:f3:fb:44:65:be:b2:c6:ff:64:a6:fe:a0:80:b5:
                    c2:1b:43:ee:59:20:ea:12:f8:cf:9f:a3:b6:4d:46:
                    57:fd:69:74:bb
                ASN1 OID: prime256v1
                NIST CURVE: P-256
        X509v3 extensions:
            1.2.3.4.5.6.7.8.1: 
                ..{"attrs":{"Name":"user-5"}}
            X509v3 Authority Key Identifier: 
                keyid:26:13:21:A8:F5:D7:53:4D:99:52:9D:4C:C0:71:9C:FF:33:ED:03:87

            X509v3 Basic Constraints: critical
                CA:FALSE
            X509v3 Subject Key Identifier: 
                D1:69:05:FB:4F:E1:5A:D4:90:8F:E0:B7:6C:80:64:10:59:28:37:F2
            X509v3 Key Usage: critical
                Digital Signature, Key Encipherment
            X509v3 Extended Key Usage: 
                TLS Web Server Authentication, TLS Web Client Authentication
    Signature Algorithm: ecdsa-with-SHA256
         30:44:02:20:46:8d:89:6b:78:9e:48:77:bf:cf:c4:f3:1b:a0:
         0c:3d:f8:6a:37:92:9c:9b:79:26:09:05:f5:1b:f5:4a:1f:b4:
         02:20:55:4f:76:f7:91:14:b8:d9:4c:a1:23:1e:f1:ff:96:1b:
         fa:58:f9:3c:59:63:ac:82:30:83:e1:42:09:95:4c:82
-----BEGIN CERTIFICATE-----
MIICQTCCAeigAwIBAgIJAPkXudY1UYXVMAoGCCqGSM49BAMCMEwxCzAJBgNVBAYT
AmJlMRIwEAYDVQQKDAlrdW5zdG1hYW4xDTALBgNVBAsMBGF1dGgxGjAYBgNVBAMM
EWF1dGgua3Vuc3RtYWFuLmJlMB4XDTE4MDIyODEwMTMwMFoXDTI4MDIyNjEwMTMw
MFowUzELMAkGA1UEBhMCYmUxEjAQBgNVBAoMCWt1bnN0bWFhbjENMAsGA1UECwwE
YXV0aDEhMB8GA1UEAwwYdXNlci01LmF1dGgua3Vuc3RtYWFuLmJlMFkwEwYHKoZI
zj0CAQYIKoZIzj0DAQcDQgAE7ZKudvxcZcGvqU5PntYvx297wj6v/baTIViy3Q+0
8/tEZb6yxv9kpv6ggLXCG0PuWSDqEvjPn6O2TUZX/Wl0u6OBqzCBqDApBggqAwQF
BgcIAQQdDBt7ImF0dHJzIjp7Ik5hbWUiOiJ1c2VyLTUifX0wHwYDVR0jBBgwFoAU
JhMhqPXXU02ZUp1MwHGc/zPtA4cwDAYDVR0TAQH/BAIwADAdBgNVHQ4EFgQU0WkF
+0/hWtSQj+C3bIBkEFkoN/IwDgYDVR0PAQH/BAQDAgWgMB0GA1UdJQQWMBQGCCsG
AQUFBwMBBggrBgEFBQcDAjAKBggqhkjOPQQDAgNHADBEAiBGjYlreJ5Id7/PxPMb
oAw9+Go3kpybeSYJBfUb9UoftAIgVU9295EUuNlMoSMe8f+WG/pY+TxZY6yCMIPh
QgmVTII=
-----END CERTIFICATE-----
