Certificate:
    Data:
        Version: 3 (0x2)
        Serial Number:
            fa:86:58:d0:20:f0:b4:d2
    Signature Algorithm: ecdsa-with-SHA256
        Issuer: C=be, O=kunstmaan, OU=auth, CN=auth.kunstmaan.be
        Validity
            Not Before: Feb 28 10:00:26 2018 GMT
            Not After : Feb 26 10:00:26 2028 GMT
        Subject: C=be, O=kunstmaan, OU=auth, CN=user-5.auth.kunstmaan.be
        Subject Public Key Info:
            Public Key Algorithm: id-ecPublicKey
                Public-Key: (256 bit)
                pub: 
                    04:0b:7a:8f:16:79:ee:ed:42:20:44:3e:4b:07:05:
                    df:60:f9:01:8e:0b:40:cb:41:ac:37:fc:08:9f:3a:
                    2f:74:b1:2b:d0:4f:f3:39:99:cc:91:b4:64:5a:e0:
                    57:a2:42:b8:47:3f:f1:4a:df:2d:ca:a1:7a:45:58:
                    f5:8d:f3:9b:a3
                ASN1 OID: prime256v1
                NIST CURVE: P-256
        X509v3 extensions:
            1.2.3.4.5.6.7.8.1: 
                ..{"attrs":{"Name":"user-5"}}
            X509v3 Authority Key Identifier: 
                keyid:1C:18:8D:F4:04:3A:E9:E5:E6:E1:BD:36:5D:40:98:41:20:AC:6D:FD

            X509v3 Basic Constraints: critical
                CA:FALSE
            X509v3 Subject Key Identifier: 
                B8:9D:0A:6E:DE:D7:B4:1C:DE:1C:C1:38:FC:15:F0:A3:10:C1:5A:31
            X509v3 Key Usage: critical
                Digital Signature, Key Encipherment
            X509v3 Extended Key Usage: 
                TLS Web Server Authentication, TLS Web Client Authentication
    Signature Algorithm: ecdsa-with-SHA256
         30:44:02:20:16:70:23:2e:3b:15:d9:fc:7b:d0:30:d1:02:27:
         58:db:49:82:d8:38:f2:4d:49:c7:91:13:2f:82:21:ba:98:a0:
         02:20:20:cf:11:ef:bd:73:6a:42:11:85:3e:52:fe:27:89:cc:
         29:f9:30:13:1d:7f:3e:7b:b9:3f:60:e7:b7:30:99:3b
-----BEGIN CERTIFICATE-----
MIICQTCCAeigAwIBAgIJAPqGWNAg8LTSMAoGCCqGSM49BAMCMEwxCzAJBgNVBAYT
AmJlMRIwEAYDVQQKDAlrdW5zdG1hYW4xDTALBgNVBAsMBGF1dGgxGjAYBgNVBAMM
EWF1dGgua3Vuc3RtYWFuLmJlMB4XDTE4MDIyODEwMDAyNloXDTI4MDIyNjEwMDAy
NlowUzELMAkGA1UEBhMCYmUxEjAQBgNVBAoMCWt1bnN0bWFhbjENMAsGA1UECwwE
YXV0aDEhMB8GA1UEAwwYdXNlci01LmF1dGgua3Vuc3RtYWFuLmJlMFkwEwYHKoZI
zj0CAQYIKoZIzj0DAQcDQgAEC3qPFnnu7UIgRD5LBwXfYPkBjgtAy0GsN/wInzov
dLEr0E/zOZnMkbRkWuBXokK4Rz/xSt8tyqF6RVj1jfObo6OBqzCBqDApBggqAwQF
BgcIAQQdDBt7ImF0dHJzIjp7Ik5hbWUiOiJ1c2VyLTUifX0wHwYDVR0jBBgwFoAU
HBiN9AQ66eXm4b02XUCYQSCsbf0wDAYDVR0TAQH/BAIwADAdBgNVHQ4EFgQUuJ0K
bt7XtBzeHME4/BXwoxDBWjEwDgYDVR0PAQH/BAQDAgWgMB0GA1UdJQQWMBQGCCsG
AQUFBwMBBggrBgEFBQcDAjAKBggqhkjOPQQDAgNHADBEAiAWcCMuOxXZ/HvQMNEC
J1jbSYLYOPJNSceREy+CIbqYoAIgIM8R771zakIRhT5S/ieJzCn5MBMdfz57uT9g
57cwmTs=
-----END CERTIFICATE-----
