Certificate:
    Data:
        Version: 3 (0x2)
        Serial Number:
            93:b2:10:00:2c:d7:36:c3
        Signature Algorithm: ecdsa-with-SHA1
        Issuer: C=be, O=kunstmaan, OU=auth, CN=auth.kunstmaan.be
        Validity
            Not Before: Feb 14 16:07:00 2018 GMT
            Not After : Feb 12 16:07:00 2028 GMT
        Subject: C=be, O=kunstmaan, OU=auth, CN=user-5.auth.kunstmaan.be
        Subject Public Key Info:
            Public Key Algorithm: id-ecPublicKey
            EC Public Key:
                pub: 
                    04:73:58:c9:cb:e5:ef:37:b3:68:e6:70:80:4f:65:
                    ba:04:f2:0c:86:e2:c7:ad:83:a4:9c:e4:6b:ee:84:
                    f2:93:78:76:0a:16:4b:1e:b9:53:32:ff:3a:f2:de:
                    00:11:fd:cb:45:45:66:f4:ea:7b:14:42:ed:2c:e2:
                    bd:b4:18:f6:86
                ASN1 OID: prime256v1
        X509v3 extensions:
            1.2.3.4.5.6.7.8.1: 
                ..{"attrs":{"Name":"user-5"}}
            X509v3 Authority Key Identifier: 
                keyid:23:09:54:6B:09:73:09:3D:45:BA:47:F5:EA:FB:F9:D6:A5:F0:8D:B7

            X509v3 Basic Constraints: critical
                CA:FALSE
            X509v3 Subject Key Identifier: 
                D3:AB:23:07:33:04:18:3C:41:00:A6:79:BB:DA:BC:D7:63:AF:BF:1F
            X509v3 Key Usage: critical
                Digital Signature, Key Encipherment
            X509v3 Extended Key Usage: 
                TLS Web Server Authentication, TLS Web Client Authentication
    Signature Algorithm: ecdsa-with-SHA1
        30:44:02:20:29:f6:c6:61:07:60:79:7a:36:af:d2:8a:57:15:
        16:de:32:26:5b:c3:25:d1:d0:74:bf:1a:ef:cb:5d:11:c8:c4:
        02:20:4f:eb:95:89:ae:68:06:6d:02:50:d6:5a:93:46:aa:68:
        b6:42:d6:87:c6:f0:6c:c2:43:1e:57:8b:39:ec:e1:e5
-----BEGIN CERTIFICATE-----
MIICPzCCAeegAwIBAgIJAJOyEAAs1zbDMAkGByqGSM49BAEwTDELMAkGA1UEBhMC
YmUxEjAQBgNVBAoMCWt1bnN0bWFhbjENMAsGA1UECwwEYXV0aDEaMBgGA1UEAwwR
YXV0aC5rdW5zdG1hYW4uYmUwHhcNMTgwMjE0MTYwNzAwWhcNMjgwMjEyMTYwNzAw
WjBTMQswCQYDVQQGEwJiZTESMBAGA1UECgwJa3Vuc3RtYWFuMQ0wCwYDVQQLDARh
dXRoMSEwHwYDVQQDDBh1c2VyLTUuYXV0aC5rdW5zdG1hYW4uYmUwWTATBgcqhkjO
PQIBBggqhkjOPQMBBwNCAARzWMnL5e83s2jmcIBPZboE8gyG4setg6Sc5GvuhPKT
eHYKFkseuVMy/zry3gAR/ctFRWb06nsUQu0s4r20GPaGo4GrMIGoMCkGCCoDBAUG
BwgBBB0MG3siYXR0cnMiOnsiTmFtZSI6InVzZXItNSJ9fTAfBgNVHSMEGDAWgBQj
CVRrCXMJPUW6R/Xq+/nWpfCNtzAMBgNVHRMBAf8EAjAAMB0GA1UdDgQWBBTTqyMH
MwQYPEEApnm72rzXY6+/HzAOBgNVHQ8BAf8EBAMCBaAwHQYDVR0lBBYwFAYIKwYB
BQUHAwEGCCsGAQUFBwMCMAkGByqGSM49BAEDRwAwRAIgKfbGYQdgeXo2r9KKVxUW
3jImW8Ml0dB0vxrvy10RyMQCIE/rlYmuaAZtAlDWWpNGqmi2QtaHxvBswkMeV4s5
7OHl
-----END CERTIFICATE-----
