Certificate:
    Data:
        Version: 3 (0x2)
        Serial Number:
            8e:e6:74:5b:fe:61:95:30
    Signature Algorithm: ecdsa-with-SHA256
        Issuer: C=be, O=kunstmaan, OU=org, CN=org.kunstmaan.be
        Validity
            Not Before: Feb 28 10:12:54 2018 GMT
            Not After : Feb 26 10:12:54 2028 GMT
        Subject: C=be, O=kunstmaan, OU=org, CN=kumapeer.org.kunstmaan.be
        Subject Public Key Info:
            Public Key Algorithm: id-ecPublicKey
                Public-Key: (256 bit)
                pub: 
                    04:16:64:26:de:e7:be:d4:51:2f:02:a4:84:1e:a8:
                    56:d2:07:b0:b0:ce:ca:c9:aa:0e:95:37:6b:b4:15:
                    19:d2:b0:0b:20:56:39:23:e4:4e:c7:90:71:c8:3f:
                    26:59:3b:a0:a6:79:d4:ba:4b:b7:7f:5e:e2:3a:7c:
                    77:32:91:39:c5
                ASN1 OID: prime256v1
                NIST CURVE: P-256
        X509v3 extensions:
            1.2.3.4.5.6.7.8.1: 
                ..{"attrs":{}}
            X509v3 Authority Key Identifier: 
                keyid:F2:4F:2D:2C:11:24:10:11:AF:8E:8B:F6:EA:F4:7E:58:1B:A0:B8:E2

            X509v3 Basic Constraints: critical
                CA:FALSE
            X509v3 Subject Key Identifier: 
                21:D5:0D:2B:65:36:62:83:74:44:85:BF:79:AD:2B:10:53:0B:28:62
            X509v3 Key Usage: critical
                Digital Signature
    Signature Algorithm: ecdsa-with-SHA256
         30:45:02:20:34:a0:38:5a:24:b1:9d:a2:01:fd:38:f6:87:63:
         77:f0:8c:a5:0a:9c:ef:fc:a8:c4:6b:58:5e:26:b3:3c:37:a7:
         02:21:00:cf:cd:5c:8f:fd:ab:4d:fc:e5:22:d4:10:34:45:78:
         dd:aa:7f:27:7e:d5:85:cb:e8:39:bb:bc:ea:1d:3f:9b:31
-----BEGIN CERTIFICATE-----
MIICEDCCAbagAwIBAgIJAI7mdFv+YZUwMAoGCCqGSM49BAMCMEoxCzAJBgNVBAYT
AmJlMRIwEAYDVQQKDAlrdW5zdG1hYW4xDDAKBgNVBAsMA29yZzEZMBcGA1UEAwwQ
b3JnLmt1bnN0bWFhbi5iZTAeFw0xODAyMjgxMDEyNTRaFw0yODAyMjYxMDEyNTRa
MFMxCzAJBgNVBAYTAmJlMRIwEAYDVQQKDAlrdW5zdG1hYW4xDDAKBgNVBAsMA29y
ZzEiMCAGA1UEAwwZa3VtYXBlZXIub3JnLmt1bnN0bWFhbi5iZTBZMBMGByqGSM49
AgEGCCqGSM49AwEHA0IABBZkJt7nvtRRLwKkhB6oVtIHsLDOysmqDpU3a7QVGdKw
CyBWOSPkTseQccg/Jlk7oKZ51LpLt39e4jp8dzKROcWjfDB6MBoGCCoDBAUGBwgB
BA4MDHsiYXR0cnMiOnt9fTAfBgNVHSMEGDAWgBTyTy0sESQQEa+Oi/bq9H5YG6C4
4jAMBgNVHRMBAf8EAjAAMB0GA1UdDgQWBBQh1Q0rZTZig3REhb95rSsQUwsoYjAO
BgNVHQ8BAf8EBAMCB4AwCgYIKoZIzj0EAwIDSAAwRQIgNKA4WiSxnaIB/Tj2h2N3
8IylCpzv/KjEa1heJrM8N6cCIQDPzVyP/atN/OUi1BA0RXjdqn8nftWFy+g5u7zq
HT+bMQ==
-----END CERTIFICATE-----
