Certificate:
    Data:
        Version: 3 (0x2)
        Serial Number:
            ec:79:fe:46:cc:fb:57:cb
    Signature Algorithm: ecdsa-with-SHA256
        Issuer: C=be, O=kunstmaan, OU=org, CN=org.kunstmaan.be
        Validity
            Not Before: Feb 28 10:00:20 2018 GMT
            Not After : Feb 26 10:00:20 2028 GMT
        Subject: C=be, O=kunstmaan, OU=org, CN=orderer.org.kunstmaan.be
        Subject Public Key Info:
            Public Key Algorithm: id-ecPublicKey
                Public-Key: (256 bit)
                pub: 
                    04:c3:ec:9c:bc:0d:04:6c:3d:39:54:ba:52:7f:c1:
                    5d:7b:a8:48:50:a2:6b:92:c0:dc:85:c9:35:55:7c:
                    a5:8f:8d:1d:12:ab:b6:75:ba:25:50:c5:54:2d:08:
                    d8:a4:e7:dc:9b:3e:0f:8b:35:0c:50:fb:65:61:45:
                    6d:0a:83:01:53
                ASN1 OID: prime256v1
                NIST CURVE: P-256
        X509v3 extensions:
            1.2.3.4.5.6.7.8.1: 
                ..{"attrs":{}}
            X509v3 Authority Key Identifier: 
                keyid:83:E2:97:23:04:83:A2:25:9C:B1:F2:12:BF:DA:36:8E:3F:36:7B:FF

            X509v3 Basic Constraints: critical
                CA:FALSE
            X509v3 Subject Key Identifier: 
                03:BC:70:1C:7B:49:66:F8:A7:CF:8E:A9:8F:43:E9:32:B5:90:C7:98
            X509v3 Key Usage: critical
                Digital Signature
    Signature Algorithm: ecdsa-with-SHA256
         30:44:02:20:5b:c0:5c:17:6f:52:37:d5:58:b9:fe:71:18:01:
         55:04:04:d6:d0:c9:34:8e:ff:11:07:d8:23:3e:f2:d8:ef:ab:
         02:20:40:19:af:d2:40:dc:03:f7:c5:72:bd:58:cc:2f:5b:40:
         d2:84:63:6e:e3:44:77:2f:78:9d:50:fd:84:aa:cb:72
-----BEGIN CERTIFICATE-----
MIICDjCCAbWgAwIBAgIJAOx5/kbM+1fLMAoGCCqGSM49BAMCMEoxCzAJBgNVBAYT
AmJlMRIwEAYDVQQKDAlrdW5zdG1hYW4xDDAKBgNVBAsMA29yZzEZMBcGA1UEAwwQ
b3JnLmt1bnN0bWFhbi5iZTAeFw0xODAyMjgxMDAwMjBaFw0yODAyMjYxMDAwMjBa
MFIxCzAJBgNVBAYTAmJlMRIwEAYDVQQKDAlrdW5zdG1hYW4xDDAKBgNVBAsMA29y
ZzEhMB8GA1UEAwwYb3JkZXJlci5vcmcua3Vuc3RtYWFuLmJlMFkwEwYHKoZIzj0C
AQYIKoZIzj0DAQcDQgAEw+ycvA0EbD05VLpSf8Fde6hIUKJrksDchck1VXylj40d
Equ2dbolUMVULQjYpOfcmz4PizUMUPtlYUVtCoMBU6N8MHowGgYIKgMEBQYHCAEE
DgwMeyJhdHRycyI6e319MB8GA1UdIwQYMBaAFIPilyMEg6IlnLHyEr/aNo4/Nnv/
MAwGA1UdEwEB/wQCMAAwHQYDVR0OBBYEFAO8cBx7SWb4p8+OqY9D6TK1kMeYMA4G
A1UdDwEB/wQEAwIHgDAKBggqhkjOPQQDAgNHADBEAiBbwFwXb1I31Vi5/nEYAVUE
BNbQyTSO/xEH2CM+8tjvqwIgQBmv0kDcA/fFcr1YzC9bQNKEY27jRHcveJ1Q/YSq
y3I=
-----END CERTIFICATE-----
