Certificate:
    Data:
        Version: 3 (0x2)
        Serial Number:
            cc:a1:93:a1:c3:77:e6:c7
        Signature Algorithm: ecdsa-with-SHA1
        Issuer: CN=kunstmaan.be, OU=ca, C=be, O=kunstmaan
        Validity
            Not Before: Feb 27 17:00:07 2018 GMT
            Not After : Feb 22 17:00:07 2038 GMT
        Subject: CN=kunstmaan.be, OU=ca, C=be, O=kunstmaan
        Subject Public Key Info:
            Public Key Algorithm: id-ecPublicKey
            EC Public Key:
                pub: 
                    04:5e:26:d8:79:c4:28:90:f4:f5:83:7d:5b:c3:c3:
                    18:df:9f:b2:14:fd:4d:01:c4:3c:bd:1c:47:38:44:
                    fa:d8:77:4c:ff:d9:91:14:23:74:0a:d9:f4:6b:ee:
                    b6:7d:cd:d3:2d:6b:0a:18:c2:67:22:f7:d5:80:1b:
                    b6:14:35:9e:6a
                ASN1 OID: prime256v1
        X509v3 extensions:
            X509v3 Subject Key Identifier: 
                36:DB:89:FC:56:3F:D3:96:CF:41:F0:4C:F0:DD:36:1E:C3:ED:2E:6A
            X509v3 Basic Constraints: critical
                CA:TRUE
            X509v3 Key Usage: critical
                Digital Signature, Key Encipherment, Certificate Sign, CRL Sign
            X509v3 Extended Key Usage: 
                2.5.29.37.0
    Signature Algorithm: ecdsa-with-SHA1
        30:44:02:20:5e:9d:c1:0f:5a:c6:2f:ab:08:78:d1:b8:ef:e3:
        bc:d1:ce:9c:b3:11:62:94:d8:15:d5:01:77:f9:a6:d4:5b:ff:
        02:20:5e:13:4c:5f:10:93:93:6a:67:4a:a7:5c:42:d7:1c:88:
        e2:32:a6:ab:86:b9:36:f3:4d:c1:c9:96:9d:52:5a:8a
-----BEGIN CERTIFICATE-----
MIIB0TCCAXmgAwIBAgIJAMyhk6HDd+bHMAkGByqGSM49BAEwRTEVMBMGA1UEAwwM
a3Vuc3RtYWFuLmJlMQswCQYDVQQLDAJjYTELMAkGA1UEBhMCYmUxEjAQBgNVBAoM
CWt1bnN0bWFhbjAeFw0xODAyMjcxNzAwMDdaFw0zODAyMjIxNzAwMDdaMEUxFTAT
BgNVBAMMDGt1bnN0bWFhbi5iZTELMAkGA1UECwwCY2ExCzAJBgNVBAYTAmJlMRIw
EAYDVQQKDAlrdW5zdG1hYW4wWTATBgcqhkjOPQIBBggqhkjOPQMBBwNCAAReJth5
xCiQ9PWDfVvDwxjfn7IU/U0BxDy9HEc4RPrYd0z/2ZEUI3QK2fRr7rZ9zdMtawoY
wmci99WAG7YUNZ5qo1MwUTAdBgNVHQ4EFgQUNtuJ/FY/05bPQfBM8N02HsPtLmow
DwYDVR0TAQH/BAUwAwEB/zAOBgNVHQ8BAf8EBAMCAaYwDwYDVR0lBAgwBgYEVR0l
ADAJBgcqhkjOPQQBA0cAMEQCIF6dwQ9axi+rCHjRuO/jvNHOnLMRYpTYFdUBd/mm
1Fv/AiBeE0xfEJOTamdKp1xC1xyI4jKmq4a5NvNNwcmWnVJaig==
-----END CERTIFICATE-----
Certificate:
    Data:
        Version: 3 (0x2)
        Serial Number:
            d3:e7:79:9a:5f:fb:ae:8f
        Signature Algorithm: ecdsa-with-SHA1
        Issuer: CN=kunstmaan.be, OU=ca, C=be, O=kunstmaan
        Validity
            Not Before: Feb 27 17:00:07 2018 GMT
            Not After : Feb 25 17:00:07 2028 GMT
        Subject: C=be, O=kunstmaan, OU=org, CN=org.kunstmaan.be
        Subject Public Key Info:
            Public Key Algorithm: id-ecPublicKey
            EC Public Key:
                pub: 
                    04:2e:60:4f:21:d0:4d:ff:b9:e3:c6:b9:82:5d:65:
                    03:62:70:aa:31:4d:d5:60:01:27:ee:11:18:0e:43:
                    75:7f:0b:de:17:2f:33:ea:db:c0:ab:15:51:9f:bb:
                    cc:a7:3b:a0:c2:6a:f2:43:50:3c:0f:1e:c2:75:14:
                    73:0f:22:52:ea
                ASN1 OID: prime256v1
        X509v3 extensions:
            1.2.3.4.5.6.7.8.1: 
                ..{"attrs":{}}
            X509v3 Authority Key Identifier: 
                keyid:36:DB:89:FC:56:3F:D3:96:CF:41:F0:4C:F0:DD:36:1E:C3:ED:2E:6A

            X509v3 Basic Constraints: critical
                CA:TRUE
            X509v3 Subject Key Identifier: 
                27:45:73:9B:F8:8F:FB:E3:22:62:CA:C3:10:13:26:32:28:A6:34:B2
            X509v3 Extended Key Usage: 
                2.5.29.37.0
            X509v3 Key Usage: critical
                Digital Signature, Key Encipherment, Certificate Sign, CRL Sign
    Signature Algorithm: ecdsa-with-SHA1
        30:46:02:21:00:91:eb:59:c4:bd:87:7b:1a:50:11:c4:ce:0d:
        a9:47:3e:09:ba:f4:ec:e5:96:a1:24:6b:52:ab:71:1b:29:9e:
        4b:02:21:00:bf:3c:88:10:e1:96:a6:51:cb:bb:f1:85:e3:51:
        63:51:66:46:d3:88:61:1d:8f:07:c6:9e:27:11:95:7a:d7:8c
-----BEGIN CERTIFICATE-----
MIICFzCCAb2gAwIBAgIJANPneZpf+66PMAkGByqGSM49BAEwRTEVMBMGA1UEAwwM
a3Vuc3RtYWFuLmJlMQswCQYDVQQLDAJjYTELMAkGA1UEBhMCYmUxEjAQBgNVBAoM
CWt1bnN0bWFhbjAeFw0xODAyMjcxNzAwMDdaFw0yODAyMjUxNzAwMDdaMEoxCzAJ
BgNVBAYTAmJlMRIwEAYDVQQKDAlrdW5zdG1hYW4xDDAKBgNVBAsMA29yZzEZMBcG
A1UEAwwQb3JnLmt1bnN0bWFhbi5iZTBZMBMGByqGSM49AgEGCCqGSM49AwEHA0IA
BC5gTyHQTf+548a5gl1lA2JwqjFN1WABJ+4RGA5DdX8L3hcvM+rbwKsVUZ+7zKc7
oMJq8kNQPA8ewnUUcw8iUuqjgZEwgY4wGgYIKgMEBQYHCAEEDgwMeyJhdHRycyI6
e319MB8GA1UdIwQYMBaAFDbbifxWP9OWz0HwTPDdNh7D7S5qMA8GA1UdEwEB/wQF
MAMBAf8wHQYDVR0OBBYEFCdFc5v4j/vjImLKwxATJjIopjSyMA8GA1UdJQQIMAYG
BFUdJQAwDgYDVR0PAQH/BAQDAgGmMAkGByqGSM49BAEDSQAwRgIhAJHrWcS9h3sa
UBHEzg2pRz4JuvTs5ZahJGtSq3EbKZ5LAiEAvzyIEOGWplHLu/GF41FjUWZG04hh
HY8Hxp4nEZV614w=
-----END CERTIFICATE-----
Certificate:
    Data:
        Version: 3 (0x2)
        Serial Number:
            bc:17:73:2a:55:7b:5d:83
        Signature Algorithm: ecdsa-with-SHA1
        Issuer: C=be, O=kunstmaan, OU=org, CN=org.kunstmaan.be
        Validity
            Not Before: Feb 27 17:00:09 2018 GMT
            Not After : Feb 25 17:00:09 2028 GMT
        Subject: C=be, O=kunstmaan, OU=org, CN=kumapeer.org.kunstmaan.be
        Subject Public Key Info:
            Public Key Algorithm: id-ecPublicKey
            EC Public Key:
                pub: 
                    04:12:c2:50:cc:bd:01:a7:d9:1b:2e:67:07:a0:a8:
                    0d:7e:d7:ae:f4:1f:90:36:25:26:bc:da:c8:84:ce:
                    c8:70:bd:59:d0:c8:42:6b:91:7f:42:9c:f4:e4:1c:
                    75:00:71:c4:2d:fa:ab:ba:1f:d4:bb:23:23:c6:5c:
                    92:8c:2d:7e:7a
                ASN1 OID: prime256v1
        X509v3 extensions:
            1.2.3.4.5.6.7.8.1: 
                ..{"attrs":{}}
            X509v3 Authority Key Identifier: 
                keyid:27:45:73:9B:F8:8F:FB:E3:22:62:CA:C3:10:13:26:32:28:A6:34:B2

            X509v3 Basic Constraints: critical
                CA:FALSE
            X509v3 Subject Key Identifier: 
                F6:C5:36:DD:45:55:14:9A:C6:0F:FB:48:65:93:A0:58:C1:6C:D0:62
            X509v3 Key Usage: critical
                Digital Signature
    Signature Algorithm: ecdsa-with-SHA1
        30:44:02:20:1a:56:15:41:7e:f5:b5:3e:61:d5:73:61:f9:c7:
        be:fe:49:db:ed:23:24:66:5f:ae:e0:30:59:83:74:53:d4:3e:
        02:20:60:41:fb:81:b9:d8:09:29:8e:b6:61:e2:49:f3:d7:19:
        d1:bc:cb:88:f8:a4:0d:a2:73:b7:d4:21:93:da:c0:4a
-----BEGIN CERTIFICATE-----
MIICDTCCAbWgAwIBAgIJALwXcypVe12DMAkGByqGSM49BAEwSjELMAkGA1UEBhMC
YmUxEjAQBgNVBAoMCWt1bnN0bWFhbjEMMAoGA1UECwwDb3JnMRkwFwYDVQQDDBBv
cmcua3Vuc3RtYWFuLmJlMB4XDTE4MDIyNzE3MDAwOVoXDTI4MDIyNTE3MDAwOVow
UzELMAkGA1UEBhMCYmUxEjAQBgNVBAoMCWt1bnN0bWFhbjEMMAoGA1UECwwDb3Jn
MSIwIAYDVQQDDBlrdW1hcGVlci5vcmcua3Vuc3RtYWFuLmJlMFkwEwYHKoZIzj0C
AQYIKoZIzj0DAQcDQgAEEsJQzL0Bp9kbLmcHoKgNfteu9B+QNiUmvNrIhM7IcL1Z
0MhCa5F/Qpz05Bx1AHHELfqruh/UuyMjxlySjC1+eqN8MHowGgYIKgMEBQYHCAEE
DgwMeyJhdHRycyI6e319MB8GA1UdIwQYMBaAFCdFc5v4j/vjImLKwxATJjIopjSy
MAwGA1UdEwEB/wQCMAAwHQYDVR0OBBYEFPbFNt1FVRSaxg/7SGWToFjBbNBiMA4G
A1UdDwEB/wQEAwIHgDAJBgcqhkjOPQQBA0cAMEQCIBpWFUF+9bU+YdVzYfnHvv5J
2+0jJGZfruAwWYN0U9Q+AiBgQfuBudgJKY62YeJJ89cZ0bzLiPikDaJzt9Qhk9rA
Sg==
-----END CERTIFICATE-----
