Certificate:
    Data:
        Version: 3 (0x2)
        Serial Number:
            d5:d2:5d:c1:4b:05:6b:ec
    Signature Algorithm: ecdsa-with-SHA256
        Issuer: CN=kunstmaan.be, OU=ca, C=be, O=kunstmaan
        Validity
            Not Before: Feb 28 10:00:18 2018 GMT
            Not After : Feb 23 10:00:18 2038 GMT
        Subject: CN=kunstmaan.be, OU=ca, C=be, O=kunstmaan
        Subject Public Key Info:
            Public Key Algorithm: id-ecPublicKey
                Public-Key: (256 bit)
                pub: 
                    04:71:71:b5:92:68:ff:b5:77:76:c8:06:2c:dc:b8:
                    6f:ca:7f:b9:09:81:56:0d:3f:f7:01:09:7b:e0:4d:
                    20:e8:ac:a7:e2:f8:9e:b2:4f:3f:0f:89:df:bd:fb:
                    18:75:23:9c:b2:e3:5f:71:00:8f:af:4c:94:8d:b4:
                    fb:02:31:34:b0
                ASN1 OID: prime256v1
                NIST CURVE: P-256
        X509v3 extensions:
            X509v3 Subject Key Identifier: 
                FF:BF:2D:2F:F8:AB:7D:BE:D5:06:D2:71:53:11:5C:08:E0:74:58:1D
            X509v3 Basic Constraints: critical
                CA:TRUE
            X509v3 Key Usage: critical
                Digital Signature, Key Encipherment, Certificate Sign, CRL Sign
            X509v3 Extended Key Usage: 
                Any Extended Key Usage
    Signature Algorithm: ecdsa-with-SHA256
         30:45:02:20:7f:d1:b8:26:6b:86:b0:55:b9:aa:f5:55:c4:6d:
         97:c3:19:0a:1a:12:7c:75:74:46:a9:63:5b:91:e9:6b:ce:3a:
         02:21:00:f4:43:ac:15:02:b9:27:10:f9:9a:b2:e1:2b:ed:fd:
         64:03:e9:a4:87:90:c7:a7:a4:29:fd:62:27:38:6b:09:01
-----BEGIN CERTIFICATE-----
MIIB1DCCAXqgAwIBAgIJANXSXcFLBWvsMAoGCCqGSM49BAMCMEUxFTATBgNVBAMM
DGt1bnN0bWFhbi5iZTELMAkGA1UECwwCY2ExCzAJBgNVBAYTAmJlMRIwEAYDVQQK
DAlrdW5zdG1hYW4wHhcNMTgwMjI4MTAwMDE4WhcNMzgwMjIzMTAwMDE4WjBFMRUw
EwYDVQQDDAxrdW5zdG1hYW4uYmUxCzAJBgNVBAsMAmNhMQswCQYDVQQGEwJiZTES
MBAGA1UECgwJa3Vuc3RtYWFuMFkwEwYHKoZIzj0CAQYIKoZIzj0DAQcDQgAEcXG1
kmj/tXd2yAYs3Lhvyn+5CYFWDT/3AQl74E0g6Kyn4viesk8/D4nfvfsYdSOcsuNf
cQCPr0yUjbT7AjE0sKNTMFEwHQYDVR0OBBYEFP+/LS/4q32+1QbScVMRXAjgdFgd
MA8GA1UdEwEB/wQFMAMBAf8wDgYDVR0PAQH/BAQDAgGmMA8GA1UdJQQIMAYGBFUd
JQAwCgYIKoZIzj0EAwIDSAAwRQIgf9G4JmuGsFW5qvVVxG2XwxkKGhJ8dXRGqWNb
kelrzjoCIQD0Q6wVArknEPmasuEr7f1kA+mkh5DHp6Qp/WInOGsJAQ==
-----END CERTIFICATE-----
Certificate:
    Data:
        Version: 3 (0x2)
        Serial Number:
            bc:38:8f:5a:bc:9c:b2:dc
    Signature Algorithm: ecdsa-with-SHA256
        Issuer: CN=kunstmaan.be, OU=ca, C=be, O=kunstmaan
        Validity
            Not Before: Feb 28 10:00:19 2018 GMT
            Not After : Feb 26 10:00:19 2028 GMT
        Subject: C=be, O=kunstmaan, OU=org, CN=org.kunstmaan.be
        Subject Public Key Info:
            Public Key Algorithm: id-ecPublicKey
                Public-Key: (256 bit)
                pub: 
                    04:1e:1a:8b:77:f7:0b:e6:cb:2b:99:12:d2:d6:4b:
                    eb:99:aa:4c:9e:72:b3:51:30:37:dc:ed:da:7c:ce:
                    2e:9d:24:af:b1:5d:f7:6c:f6:ca:f8:61:d5:21:14:
                    b1:27:c7:6c:53:13:5d:46:13:47:d2:19:9e:80:69:
                    a6:3e:a4:48:38
                ASN1 OID: prime256v1
                NIST CURVE: P-256
        X509v3 extensions:
            1.2.3.4.5.6.7.8.1: 
                ..{"attrs":{}}
            X509v3 Authority Key Identifier: 
                keyid:FF:BF:2D:2F:F8:AB:7D:BE:D5:06:D2:71:53:11:5C:08:E0:74:58:1D

            X509v3 Basic Constraints: critical
                CA:TRUE
            X509v3 Subject Key Identifier: 
                6B:9C:F9:1B:41:1F:57:6B:39:F6:6F:01:3E:23:65:75:2B:4C:81:D1
            X509v3 Key Usage: critical
                Digital Signature, Key Encipherment, Certificate Sign, CRL Sign
            X509v3 Extended Key Usage: 
                TLS Web Server Authentication, TLS Web Client Authentication
    Signature Algorithm: ecdsa-with-SHA256
         30:45:02:21:00:e3:0e:85:ce:f5:34:1b:d3:3b:35:c9:e0:9f:
         d8:f7:c5:0f:e3:98:a0:a7:5d:d6:b6:fe:6b:f5:c4:3b:13:66:
         19:02:20:3f:9a:6a:18:7f:52:51:42:96:41:94:96:b1:dc:8f:
         ff:f9:28:8f:be:c8:8b:23:43:c9:99:af:95:da:f4:35:73
-----BEGIN CERTIFICATE-----
MIICJjCCAcygAwIBAgIJALw4j1q8nLLcMAoGCCqGSM49BAMCMEUxFTATBgNVBAMM
DGt1bnN0bWFhbi5iZTELMAkGA1UECwwCY2ExCzAJBgNVBAYTAmJlMRIwEAYDVQQK
DAlrdW5zdG1hYW4wHhcNMTgwMjI4MTAwMDE5WhcNMjgwMjI2MTAwMDE5WjBKMQsw
CQYDVQQGEwJiZTESMBAGA1UECgwJa3Vuc3RtYWFuMQwwCgYDVQQLDANvcmcxGTAX
BgNVBAMMEG9yZy5rdW5zdG1hYW4uYmUwWTATBgcqhkjOPQIBBggqhkjOPQMBBwNC
AAQeGot39wvmyyuZEtLWS+uZqkyecrNRMDfc7dp8zi6dJK+xXfds9sr4YdUhFLEn
x2xTE11GE0fSGZ6AaaY+pEg4o4GfMIGcMBoGCCoDBAUGBwgBBA4MDHsiYXR0cnMi
Ont9fTAfBgNVHSMEGDAWgBT/vy0v+Kt9vtUG0nFTEVwI4HRYHTAPBgNVHRMBAf8E
BTADAQH/MB0GA1UdDgQWBBRrnPkbQR9Xazn2bwE+I2V1K0yB0TAOBgNVHQ8BAf8E
BAMCAaYwHQYDVR0lBBYwFAYIKwYBBQUHAwEGCCsGAQUFBwMCMAoGCCqGSM49BAMC
A0gAMEUCIQDjDoXO9TQb0zs1yeCf2PfFD+OYoKdd1rb+a/XEOxNmGQIgP5pqGH9S
UUKWQZSWsdyP//koj77IiyNDyZmvldr0NXM=
-----END CERTIFICATE-----
Certificate:
    Data:
        Version: 3 (0x2)
        Serial Number:
            98:e5:59:a6:55:3a:a6:7b
    Signature Algorithm: ecdsa-with-SHA256
        Issuer: C=be, O=kunstmaan, OU=org, CN=org.kunstmaan.be
        Validity
            Not Before: Feb 28 10:00:21 2018 GMT
            Not After : Feb 26 10:00:21 2028 GMT
        Subject: C=be, O=kunstmaan, OU=org, CN=kumapeer.org.kunstmaan.be
        Subject Public Key Info:
            Public Key Algorithm: id-ecPublicKey
                Public-Key: (256 bit)
                pub: 
                    04:ea:dd:a4:ea:a4:ed:cc:03:15:f5:79:db:88:86:
                    60:f0:2b:29:3f:10:2d:1d:ab:14:97:9b:44:0b:65:
                    3b:eb:08:62:cb:d0:c8:0f:44:e5:e1:1e:e9:b6:ba:
                    3c:b2:9e:6b:e6:c9:8c:6b:58:2f:f5:cb:a0:2c:dd:
                    4c:3b:c1:60:d5
                ASN1 OID: prime256v1
                NIST CURVE: P-256
        X509v3 extensions:
            1.2.3.4.5.6.7.8.1: 
                ..{"attrs":{}}
            X509v3 Authority Key Identifier: 
                keyid:6B:9C:F9:1B:41:1F:57:6B:39:F6:6F:01:3E:23:65:75:2B:4C:81:D1

            X509v3 Basic Constraints: critical
                CA:FALSE
            X509v3 Subject Key Identifier: 
                6B:EB:B7:E8:14:A7:3C:71:DE:F9:DB:3F:5F:11:24:BE:12:9C:22:0F
            X509v3 Key Usage: critical
                Digital Signature, Key Encipherment
            X509v3 Extended Key Usage: 
                TLS Web Server Authentication, TLS Web Client Authentication
    Signature Algorithm: ecdsa-with-SHA256
         30:45:02:21:00:f4:26:1c:00:d5:55:1e:5d:88:79:09:94:12:
         45:e7:c7:e5:e7:7a:13:5e:6f:90:97:04:12:49:93:5c:10:9b:
         76:02:20:0d:fc:85:d2:2e:91:78:27:ef:a2:df:31:7b:ad:6b:
         a4:8b:4b:e8:6e:07:b9:1f:ed:60:3b:6a:c9:69:22:8d:23
-----BEGIN CERTIFICATE-----
MIICMTCCAdegAwIBAgIJAJjlWaZVOqZ7MAoGCCqGSM49BAMCMEoxCzAJBgNVBAYT
AmJlMRIwEAYDVQQKDAlrdW5zdG1hYW4xDDAKBgNVBAsMA29yZzEZMBcGA1UEAwwQ
b3JnLmt1bnN0bWFhbi5iZTAeFw0xODAyMjgxMDAwMjFaFw0yODAyMjYxMDAwMjFa
MFMxCzAJBgNVBAYTAmJlMRIwEAYDVQQKDAlrdW5zdG1hYW4xDDAKBgNVBAsMA29y
ZzEiMCAGA1UEAwwZa3VtYXBlZXIub3JnLmt1bnN0bWFhbi5iZTBZMBMGByqGSM49
AgEGCCqGSM49AwEHA0IABOrdpOqk7cwDFfV524iGYPArKT8QLR2rFJebRAtlO+sI
YsvQyA9E5eEe6ba6PLKea+bJjGtYL/XLoCzdTDvBYNWjgZwwgZkwGgYIKgMEBQYH
CAEEDgwMeyJhdHRycyI6e319MB8GA1UdIwQYMBaAFGuc+RtBH1drOfZvAT4jZXUr
TIHRMAwGA1UdEwEB/wQCMAAwHQYDVR0OBBYEFGvrt+gUpzxx3vnbP18RJL4SnCIP
MA4GA1UdDwEB/wQEAwIFoDAdBgNVHSUEFjAUBggrBgEFBQcDAQYIKwYBBQUHAwIw
CgYIKoZIzj0EAwIDSAAwRQIhAPQmHADVVR5diHkJlBJF58fl53oTXm+QlwQSSZNc
EJt2AiAN/IXSLpF4J++i3zF7rWuki0vobge5H+1gO2rJaSKNIw==
-----END CERTIFICATE-----
