Certificate:
    Data:
        Version: 3 (0x2)
        Serial Number:
            cc:a1:93:a1:c3:77:e6:c7
        Signature Algorithm: ecdsa-with-SHA1
        Issuer: CN=kunstmaan.be, OU=ca, C=be, O=kunstmaan
        Validity
            Not Before: Feb 27 17:00:07 2018 GMT
            Not After : Feb 22 17:00:07 2038 GMT
        Subject: CN=kunstmaan.be, OU=ca, C=be, O=kunstmaan
        Subject Public Key Info:
            Public Key Algorithm: id-ecPublicKey
            EC Public Key:
                pub: 
                    04:5e:26:d8:79:c4:28:90:f4:f5:83:7d:5b:c3:c3:
                    18:df:9f:b2:14:fd:4d:01:c4:3c:bd:1c:47:38:44:
                    fa:d8:77:4c:ff:d9:91:14:23:74:0a:d9:f4:6b:ee:
                    b6:7d:cd:d3:2d:6b:0a:18:c2:67:22:f7:d5:80:1b:
                    b6:14:35:9e:6a
                ASN1 OID: prime256v1
        X509v3 extensions:
            X509v3 Subject Key Identifier: 
                36:DB:89:FC:56:3F:D3:96:CF:41:F0:4C:F0:DD:36:1E:C3:ED:2E:6A
            X509v3 Basic Constraints: critical
                CA:TRUE
            X509v3 Key Usage: critical
                Digital Signature, Key Encipherment, Certificate Sign, CRL Sign
            X509v3 Extended Key Usage: 
                2.5.29.37.0
    Signature Algorithm: ecdsa-with-SHA1
        30:44:02:20:5e:9d:c1:0f:5a:c6:2f:ab:08:78:d1:b8:ef:e3:
        bc:d1:ce:9c:b3:11:62:94:d8:15:d5:01:77:f9:a6:d4:5b:ff:
        02:20:5e:13:4c:5f:10:93:93:6a:67:4a:a7:5c:42:d7:1c:88:
        e2:32:a6:ab:86:b9:36:f3:4d:c1:c9:96:9d:52:5a:8a
-----BEGIN CERTIFICATE-----
MIIB0TCCAXmgAwIBAgIJAMyhk6HDd+bHMAkGByqGSM49BAEwRTEVMBMGA1UEAwwM
a3Vuc3RtYWFuLmJlMQswCQYDVQQLDAJjYTELMAkGA1UEBhMCYmUxEjAQBgNVBAoM
CWt1bnN0bWFhbjAeFw0xODAyMjcxNzAwMDdaFw0zODAyMjIxNzAwMDdaMEUxFTAT
BgNVBAMMDGt1bnN0bWFhbi5iZTELMAkGA1UECwwCY2ExCzAJBgNVBAYTAmJlMRIw
EAYDVQQKDAlrdW5zdG1hYW4wWTATBgcqhkjOPQIBBggqhkjOPQMBBwNCAAReJth5
xCiQ9PWDfVvDwxjfn7IU/U0BxDy9HEc4RPrYd0z/2ZEUI3QK2fRr7rZ9zdMtawoY
wmci99WAG7YUNZ5qo1MwUTAdBgNVHQ4EFgQUNtuJ/FY/05bPQfBM8N02HsPtLmow
DwYDVR0TAQH/BAUwAwEB/zAOBgNVHQ8BAf8EBAMCAaYwDwYDVR0lBAgwBgYEVR0l
ADAJBgcqhkjOPQQBA0cAMEQCIF6dwQ9axi+rCHjRuO/jvNHOnLMRYpTYFdUBd/mm
1Fv/AiBeE0xfEJOTamdKp1xC1xyI4jKmq4a5NvNNwcmWnVJaig==
-----END CERTIFICATE-----
Certificate:
    Data:
        Version: 3 (0x2)
        Serial Number:
            fe:e0:db:32:69:6b:5c:75
        Signature Algorithm: ecdsa-with-SHA1
        Issuer: CN=kunstmaan.be, OU=ca, C=be, O=kunstmaan
        Validity
            Not Before: Feb 27 17:00:07 2018 GMT
            Not After : Feb 25 17:00:07 2028 GMT
        Subject: C=be, O=kunstmaan, OU=org, CN=org.kunstmaan.be
        Subject Public Key Info:
            Public Key Algorithm: id-ecPublicKey
            EC Public Key:
                pub: 
                    04:aa:42:1e:bd:60:c6:74:dc:3a:43:13:ed:1e:73:
                    2f:4a:07:64:53:a8:d0:cd:92:2a:5b:63:fc:94:98:
                    4f:25:ba:51:75:8a:e0:0f:5c:7f:99:0a:13:9f:18:
                    8c:35:0e:97:c5:3e:46:88:89:92:e7:db:6b:34:f5:
                    e1:e4:71:c9:2c
                ASN1 OID: prime256v1
        X509v3 extensions:
            1.2.3.4.5.6.7.8.1: 
                ..{"attrs":{}}
            X509v3 Authority Key Identifier: 
                keyid:36:DB:89:FC:56:3F:D3:96:CF:41:F0:4C:F0:DD:36:1E:C3:ED:2E:6A

            X509v3 Basic Constraints: critical
                CA:TRUE
            X509v3 Subject Key Identifier: 
                89:9E:98:C2:9C:9A:BF:F0:F0:4E:93:13:CF:D9:90:22:10:CB:5F:FA
            X509v3 Key Usage: critical
                Digital Signature, Key Encipherment, Certificate Sign, CRL Sign
            X509v3 Extended Key Usage: 
                TLS Web Server Authentication, TLS Web Client Authentication
    Signature Algorithm: ecdsa-with-SHA1
        30:45:02:21:00:aa:39:62:65:b5:95:72:e2:bf:09:d1:43:8d:
        ff:53:56:0c:db:10:05:9e:4a:88:ec:e6:37:7d:83:fd:c7:22:
        31:02:20:24:61:8f:21:06:d4:1e:35:8c:18:f7:a8:af:fe:11:
        12:df:20:87:60:bf:ed:d5:36:ca:5f:89:09:02:79:25:74
-----BEGIN CERTIFICATE-----
MIICJDCCAcugAwIBAgIJAP7g2zJpa1x1MAkGByqGSM49BAEwRTEVMBMGA1UEAwwM
a3Vuc3RtYWFuLmJlMQswCQYDVQQLDAJjYTELMAkGA1UEBhMCYmUxEjAQBgNVBAoM
CWt1bnN0bWFhbjAeFw0xODAyMjcxNzAwMDdaFw0yODAyMjUxNzAwMDdaMEoxCzAJ
BgNVBAYTAmJlMRIwEAYDVQQKDAlrdW5zdG1hYW4xDDAKBgNVBAsMA29yZzEZMBcG
A1UEAwwQb3JnLmt1bnN0bWFhbi5iZTBZMBMGByqGSM49AgEGCCqGSM49AwEHA0IA
BKpCHr1gxnTcOkMT7R5zL0oHZFOo0M2SKltj/JSYTyW6UXWK4A9cf5kKE58YjDUO
l8U+RoiJkufbazT14eRxySyjgZ8wgZwwGgYIKgMEBQYHCAEEDgwMeyJhdHRycyI6
e319MB8GA1UdIwQYMBaAFDbbifxWP9OWz0HwTPDdNh7D7S5qMA8GA1UdEwEB/wQF
MAMBAf8wHQYDVR0OBBYEFImemMKcmr/w8E6TE8/ZkCIQy1/6MA4GA1UdDwEB/wQE
AwIBpjAdBgNVHSUEFjAUBggrBgEFBQcDAQYIKwYBBQUHAwIwCQYHKoZIzj0EAQNI
ADBFAiEAqjliZbWVcuK/CdFDjf9TVgzbEAWeSojs5jd9g/3HIjECICRhjyEG1B41
jBj3qK/+ERLfIIdgv+3VNspfiQkCeSV0
-----END CERTIFICATE-----
Certificate:
    Data:
        Version: 3 (0x2)
        Serial Number:
            b8:f4:95:2b:08:24:d3:f2
        Signature Algorithm: ecdsa-with-SHA1
        Issuer: C=be, O=kunstmaan, OU=org, CN=org.kunstmaan.be
        Validity
            Not Before: Feb 27 17:00:10 2018 GMT
            Not After : Feb 25 17:00:10 2028 GMT
        Subject: C=be, O=kunstmaan, OU=org, CN=kumapeer.org.kunstmaan.be
        Subject Public Key Info:
            Public Key Algorithm: id-ecPublicKey
            EC Public Key:
                pub: 
                    04:d3:cc:b5:29:c5:14:63:4e:fe:7b:69:e0:3d:5a:
                    87:3d:4d:8d:96:4f:93:7d:5a:a4:4f:60:aa:c8:30:
                    3d:05:00:1a:80:86:58:60:0e:a2:34:55:ee:79:9b:
                    4a:86:ee:5b:23:2b:af:26:05:f5:d1:33:8d:e3:85:
                    db:d9:e6:41:03
                ASN1 OID: prime256v1
        X509v3 extensions:
            1.2.3.4.5.6.7.8.1: 
                ..{"attrs":{}}
            X509v3 Authority Key Identifier: 
                keyid:89:9E:98:C2:9C:9A:BF:F0:F0:4E:93:13:CF:D9:90:22:10:CB:5F:FA

            X509v3 Basic Constraints: critical
                CA:FALSE
            X509v3 Subject Key Identifier: 
                AF:C6:4F:35:19:C2:6B:55:43:BB:06:24:43:54:50:3A:D0:A4:14:56
            X509v3 Key Usage: critical
                Digital Signature, Key Encipherment
            X509v3 Extended Key Usage: 
                TLS Web Server Authentication, TLS Web Client Authentication
    Signature Algorithm: ecdsa-with-SHA1
        30:45:02:20:4e:5b:90:1f:cb:a2:41:c2:fa:a1:ac:fc:0d:d0:
        89:0a:7c:ae:9a:c6:7b:4e:fb:47:05:ac:eb:f8:a6:c5:9f:a0:
        02:21:00:ed:05:1e:81:9e:06:b0:bf:a2:d3:72:32:ce:63:84:
        63:d2:27:92:3c:7f:39:77:a0:99:61:6a:97:20:11:ef:9b
-----BEGIN CERTIFICATE-----
MIICLzCCAdagAwIBAgIJALj0lSsIJNPyMAkGByqGSM49BAEwSjELMAkGA1UEBhMC
YmUxEjAQBgNVBAoMCWt1bnN0bWFhbjEMMAoGA1UECwwDb3JnMRkwFwYDVQQDDBBv
cmcua3Vuc3RtYWFuLmJlMB4XDTE4MDIyNzE3MDAxMFoXDTI4MDIyNTE3MDAxMFow
UzELMAkGA1UEBhMCYmUxEjAQBgNVBAoMCWt1bnN0bWFhbjEMMAoGA1UECwwDb3Jn
MSIwIAYDVQQDDBlrdW1hcGVlci5vcmcua3Vuc3RtYWFuLmJlMFkwEwYHKoZIzj0C
AQYIKoZIzj0DAQcDQgAE08y1KcUUY07+e2ngPVqHPU2Nlk+TfVqkT2CqyDA9BQAa
gIZYYA6iNFXueZtKhu5bIyuvJgX10TON44Xb2eZBA6OBnDCBmTAaBggqAwQFBgcI
AQQODAx7ImF0dHJzIjp7fX0wHwYDVR0jBBgwFoAUiZ6Ywpyav/DwTpMTz9mQIhDL
X/owDAYDVR0TAQH/BAIwADAdBgNVHQ4EFgQUr8ZPNRnCa1VDuwYkQ1RQOtCkFFYw
DgYDVR0PAQH/BAQDAgWgMB0GA1UdJQQWMBQGCCsGAQUFBwMBBggrBgEFBQcDAjAJ
BgcqhkjOPQQBA0gAMEUCIE5bkB/LokHC+qGs/A3QiQp8rprGe077RwWs6/imxZ+g
AiEA7QUegZ4GsL+i03IyzmOEY9Inkjx/OXegmWFqlyAR75s=
-----END CERTIFICATE-----
