Certificate:
    Data:
        Version: 3 (0x2)
        Serial Number:
            e7:f6:c3:5d:e2:04:8d:73
        Signature Algorithm: ecdsa-with-SHA1
        Issuer: CN=kunstmaan.be, OU=tlsca, C=be, O=kunstmaan
        Validity
            Not Before: Feb 14 16:06:53 2018 GMT
            Not After : Feb 12 16:06:53 2028 GMT
        Subject: C=be, O=kunstmaan, OU=kumapeer, CN=kumapeer.kunstmaan.be
        Subject Public Key Info:
            Public Key Algorithm: id-ecPublicKey
            EC Public Key:
                pub: 
                    04:38:f6:b3:23:0e:19:fa:0a:1c:37:a8:ed:3b:9b:
                    b2:0e:d4:27:b6:14:b0:71:3b:8c:96:83:3a:2c:9a:
                    44:d4:79:6b:46:fb:8e:3d:fa:da:a0:ed:2d:2e:52:
                    e8:36:6a:3b:5e:6f:26:bf:cf:14:8c:71:e5:31:df:
                    94:75:f3:18:c4
                ASN1 OID: prime256v1
        X509v3 extensions:
            1.2.3.4.5.6.7.8.1: 
                ..{"attrs":{}}
            X509v3 Authority Key Identifier: 
                keyid:FB:41:45:09:28:B4:C3:36:94:8F:FC:C5:CF:19:AF:BD:EE:B8:27:90

            X509v3 Basic Constraints: critical
                CA:FALSE
            X509v3 Subject Key Identifier: 
                DB:0C:DF:66:74:F8:90:72:3B:D5:9E:9E:7E:FF:8F:C0:09:42:F1:E1
            X509v3 Key Usage: critical
                Digital Signature, Key Encipherment
            X509v3 Extended Key Usage: 
                TLS Web Server Authentication, TLS Web Client Authentication
    Signature Algorithm: ecdsa-with-SHA1
        30:45:02:21:00:92:c4:bb:9c:5c:60:9d:8a:f2:38:80:b4:66:
        24:19:98:ff:eb:29:13:d3:a8:ac:af:76:e8:b8:35:9f:dc:16:
        b8:02:20:33:43:ac:44:5e:9e:46:ee:25:93:77:61:9d:f8:86:
        ae:39:2d:04:f0:ff:8f:09:13:0f:45:6a:a2:30:6d:92:f8
-----BEGIN CERTIFICATE-----
MIICLjCCAdWgAwIBAgIJAOf2w13iBI1zMAkGByqGSM49BAEwSDEVMBMGA1UEAwwM
a3Vuc3RtYWFuLmJlMQ4wDAYDVQQLDAV0bHNjYTELMAkGA1UEBhMCYmUxEjAQBgNV
BAoMCWt1bnN0bWFhbjAeFw0xODAyMTQxNjA2NTNaFw0yODAyMTIxNjA2NTNaMFQx
CzAJBgNVBAYTAmJlMRIwEAYDVQQKDAlrdW5zdG1hYW4xETAPBgNVBAsMCGt1bWFw
ZWVyMR4wHAYDVQQDDBVrdW1hcGVlci5rdW5zdG1hYW4uYmUwWTATBgcqhkjOPQIB
BggqhkjOPQMBBwNCAAQ49rMjDhn6Chw3qO07m7IO1Ce2FLBxO4yWgzosmkTUeWtG
+449+tqg7S0uUug2ajtebya/zxSMceUx35R18xjEo4GcMIGZMBoGCCoDBAUGBwgB
BA4MDHsiYXR0cnMiOnt9fTAfBgNVHSMEGDAWgBT7QUUJKLTDNpSP/MXPGa+97rgn
kDAMBgNVHRMBAf8EAjAAMB0GA1UdDgQWBBTbDN9mdPiQcjvVnp5+/4/ACULx4TAO
BgNVHQ8BAf8EBAMCBaAwHQYDVR0lBBYwFAYIKwYBBQUHAwEGCCsGAQUFBwMCMAkG
ByqGSM49BAEDSAAwRQIhAJLEu5xcYJ2K8jiAtGYkGZj/6ykT06isr3bouDWf3Ba4
AiAzQ6xEXp5G7iWTd2Gd+IauOS0E8P+PCRMPRWqiMG2S+A==
-----END CERTIFICATE-----
