Certificate:
    Data:
        Version: 3 (0x2)
        Serial Number:
            b1:84:42:08:3b:52:10:60
    Signature Algorithm: ecdsa-with-SHA256
        Issuer: C=be, O=kunstmaan, OU=org, CN=org.kunstmaan.be
        Validity
            Not Before: Feb 28 10:12:54 2018 GMT
            Not After : Feb 26 10:12:54 2028 GMT
        Subject: C=be, O=kunstmaan, OU=org, CN=orderer.org.kunstmaan.be
        Subject Public Key Info:
            Public Key Algorithm: id-ecPublicKey
                Public-Key: (256 bit)
                pub: 
                    04:b3:20:e8:2c:e6:1c:4d:3d:34:7e:89:a0:ea:ec:
                    79:96:30:3b:f4:52:34:cc:d9:69:2c:2a:28:fd:c8:
                    80:ef:98:54:e6:1e:4c:a7:f4:f4:8e:34:f8:fc:94:
                    21:e3:3d:1c:6b:40:47:f9:19:6f:aa:e0:f6:54:bf:
                    04:f3:b0:b7:27
                ASN1 OID: prime256v1
                NIST CURVE: P-256
        X509v3 extensions:
            1.2.3.4.5.6.7.8.1: 
                ..{"attrs":{}}
            X509v3 Authority Key Identifier: 
                keyid:F2:4F:2D:2C:11:24:10:11:AF:8E:8B:F6:EA:F4:7E:58:1B:A0:B8:E2

            X509v3 Basic Constraints: critical
                CA:FALSE
            X509v3 Subject Key Identifier: 
                94:9D:56:F7:6C:EF:A7:F6:C7:E5:B8:DC:BC:D1:01:B0:3E:FD:5F:A4
            X509v3 Key Usage: critical
                Digital Signature
    Signature Algorithm: ecdsa-with-SHA256
         30:45:02:20:59:3a:39:9d:fb:68:7e:16:95:4d:ce:8a:ac:db:
         96:73:38:e4:7d:cd:28:d1:13:2c:41:30:95:bd:80:cb:a3:f5:
         02:21:00:a5:4f:89:09:2a:7b:cf:75:88:26:97:cd:60:a5:36:
         d5:97:4f:fd:ab:1e:7d:51:87:e2:5d:7b:f6:78:d0:de:e9
-----BEGIN CERTIFICATE-----
MIICDzCCAbWgAwIBAgIJALGEQgg7UhBgMAoGCCqGSM49BAMCMEoxCzAJBgNVBAYT
AmJlMRIwEAYDVQQKDAlrdW5zdG1hYW4xDDAKBgNVBAsMA29yZzEZMBcGA1UEAwwQ
b3JnLmt1bnN0bWFhbi5iZTAeFw0xODAyMjgxMDEyNTRaFw0yODAyMjYxMDEyNTRa
MFIxCzAJBgNVBAYTAmJlMRIwEAYDVQQKDAlrdW5zdG1hYW4xDDAKBgNVBAsMA29y
ZzEhMB8GA1UEAwwYb3JkZXJlci5vcmcua3Vuc3RtYWFuLmJlMFkwEwYHKoZIzj0C
AQYIKoZIzj0DAQcDQgAEsyDoLOYcTT00fomg6ux5ljA79FI0zNlpLCoo/ciA75hU
5h5Mp/T0jjT4/JQh4z0ca0BH+RlvquD2VL8E87C3J6N8MHowGgYIKgMEBQYHCAEE
DgwMeyJhdHRycyI6e319MB8GA1UdIwQYMBaAFPJPLSwRJBARr46L9ur0flgboLji
MAwGA1UdEwEB/wQCMAAwHQYDVR0OBBYEFJSdVvds76f2x+W43LzRAbA+/V+kMA4G
A1UdDwEB/wQEAwIHgDAKBggqhkjOPQQDAgNIADBFAiBZOjmd+2h+FpVNzoqs25Zz
OOR9zSjREyxBMJW9gMuj9QIhAKVPiQkqe891iCaXzWClNtWXT/2rHn1Rh+Jde/Z4
0N7p
-----END CERTIFICATE-----
