Certificate:
    Data:
        Version: 3 (0x2)
        Serial Number:
            ea:17:ed:b5:ec:02:02:a2
        Signature Algorithm: ecdsa-with-SHA1
        Issuer: C=be, O=kunstmaan, OU=org, CN=org.kunstmaan.be
        Validity
            Not Before: Feb 27 17:00:09 2018 GMT
            Not After : Feb 25 17:00:09 2028 GMT
        Subject: C=be, O=kunstmaan, OU=org, CN=orderer.org.kunstmaan.be
        Subject Public Key Info:
            Public Key Algorithm: id-ecPublicKey
            EC Public Key:
                pub: 
                    04:4a:f3:eb:e6:b8:fd:0f:81:44:4c:66:c0:b3:88:
                    15:a1:6b:e2:ae:c9:1a:17:48:68:ba:65:a8:b0:cb:
                    43:0d:1c:41:79:d4:5f:a4:d6:48:da:dc:71:a2:f8:
                    8f:c4:62:a1:8d:bc:f7:04:34:90:5e:53:ec:d9:77:
                    05:3b:dc:da:bc
                ASN1 OID: prime256v1
        X509v3 extensions:
            1.2.3.4.5.6.7.8.1: 
                ..{"attrs":{}}
            X509v3 Authority Key Identifier: 
                keyid:27:45:73:9B:F8:8F:FB:E3:22:62:CA:C3:10:13:26:32:28:A6:34:B2

            X509v3 Basic Constraints: critical
                CA:FALSE
            X509v3 Subject Key Identifier: 
                95:39:64:3A:97:DB:85:95:74:09:04:C6:20:AD:DA:4A:C1:1C:48:6E
            X509v3 Key Usage: critical
                Digital Signature
    Signature Algorithm: ecdsa-with-SHA1
        30:46:02:21:00:b8:49:e7:84:4c:1a:17:5c:b5:fe:ad:c8:22:
        71:42:e5:b8:27:99:c6:bd:b4:f0:c9:41:e6:24:c7:29:63:49:
        30:02:21:00:8a:1e:83:c3:95:a3:3b:6e:ba:66:0b:6d:ff:82:
        a1:53:6d:ea:e4:91:3e:f6:e2:fa:5f:db:01:44:75:5f:ae:6b
-----BEGIN CERTIFICATE-----
MIICDjCCAbSgAwIBAgIJAOoX7bXsAgKiMAkGByqGSM49BAEwSjELMAkGA1UEBhMC
YmUxEjAQBgNVBAoMCWt1bnN0bWFhbjEMMAoGA1UECwwDb3JnMRkwFwYDVQQDDBBv
cmcua3Vuc3RtYWFuLmJlMB4XDTE4MDIyNzE3MDAwOVoXDTI4MDIyNTE3MDAwOVow
UjELMAkGA1UEBhMCYmUxEjAQBgNVBAoMCWt1bnN0bWFhbjEMMAoGA1UECwwDb3Jn
MSEwHwYDVQQDDBhvcmRlcmVyLm9yZy5rdW5zdG1hYW4uYmUwWTATBgcqhkjOPQIB
BggqhkjOPQMBBwNCAARK8+vmuP0PgURMZsCziBWha+KuyRoXSGi6Zaiwy0MNHEF5
1F+k1kja3HGi+I/EYqGNvPcENJBeU+zZdwU73Nq8o3wwejAaBggqAwQFBgcIAQQO
DAx7ImF0dHJzIjp7fX0wHwYDVR0jBBgwFoAUJ0Vzm/iP++MiYsrDEBMmMiimNLIw
DAYDVR0TAQH/BAIwADAdBgNVHQ4EFgQUlTlkOpfbhZV0CQTGIK3aSsEcSG4wDgYD
VR0PAQH/BAQDAgeAMAkGByqGSM49BAEDSQAwRgIhALhJ54RMGhdctf6tyCJxQuW4
J5nGvbTwyUHmJMcpY0kwAiEAih6Dw5WjO266Zgtt/4KhU23q5JE+9uL6X9sBRHVf
rms=
-----END CERTIFICATE-----
