Certificate:
    Data:
        Version: 3 (0x2)
        Serial Number:
            cc:44:73:bc:cb:8c:00:37
        Signature Algorithm: ecdsa-with-SHA1
        Issuer: CN=kunstmaan.be, OU=tlsca, C=be, O=kunstmaan
        Validity
            Not Before: Feb 14 16:06:50 2018 GMT
            Not After : Feb  9 16:06:50 2038 GMT
        Subject: CN=kunstmaan.be, OU=tlsca, C=be, O=kunstmaan
        Subject Public Key Info:
            Public Key Algorithm: id-ecPublicKey
            EC Public Key:
                pub: 
                    04:07:06:30:3b:7b:1e:6f:56:71:7c:a1:ea:18:37:
                    8c:45:4a:33:d4:fe:31:ae:88:09:a8:c9:e9:bb:c2:
                    33:f4:3c:52:c7:e5:8d:ce:78:a7:6e:30:cb:3a:0e:
                    44:01:6d:de:51:9a:3d:ac:74:f7:61:a5:a5:b9:0d:
                    d4:c2:99:eb:6a
                ASN1 OID: prime256v1
        X509v3 extensions:
            X509v3 Subject Key Identifier: 
                FB:41:45:09:28:B4:C3:36:94:8F:FC:C5:CF:19:AF:BD:EE:B8:27:90
            X509v3 Basic Constraints: critical
                CA:TRUE
            X509v3 Key Usage: critical
                Digital Signature, Key Encipherment, Certificate Sign, CRL Sign
            X509v3 Extended Key Usage: 
                2.5.29.37.0
    Signature Algorithm: ecdsa-with-SHA1
        30:45:02:20:0c:76:49:e0:65:f4:4b:db:c7:9e:b5:ce:cb:e0:
        04:38:18:b3:aa:5d:cb:65:88:48:94:a9:f1:fb:44:5b:14:34:
        02:21:00:97:c7:17:cf:bd:73:c9:5e:b9:02:8d:9b:28:fc:0b:
        69:42:59:d4:7a:05:47:7b:28:73:80:39:95:6e:13:91:9a
-----BEGIN CERTIFICATE-----
MIIB2DCCAX+gAwIBAgIJAMxEc7zLjAA3MAkGByqGSM49BAEwSDEVMBMGA1UEAwwM
a3Vuc3RtYWFuLmJlMQ4wDAYDVQQLDAV0bHNjYTELMAkGA1UEBhMCYmUxEjAQBgNV
BAoMCWt1bnN0bWFhbjAeFw0xODAyMTQxNjA2NTBaFw0zODAyMDkxNjA2NTBaMEgx
FTATBgNVBAMMDGt1bnN0bWFhbi5iZTEOMAwGA1UECwwFdGxzY2ExCzAJBgNVBAYT
AmJlMRIwEAYDVQQKDAlrdW5zdG1hYW4wWTATBgcqhkjOPQIBBggqhkjOPQMBBwNC
AAQHBjA7ex5vVnF8oeoYN4xFSjPU/jGuiAmoyem7wjP0PFLH5Y3OeKduMMs6DkQB
bd5Rmj2sdPdhpaW5DdTCmetqo1MwUTAdBgNVHQ4EFgQU+0FFCSi0wzaUj/zFzxmv
ve64J5AwDwYDVR0TAQH/BAUwAwEB/zAOBgNVHQ8BAf8EBAMCAaYwDwYDVR0lBAgw
BgYEVR0lADAJBgcqhkjOPQQBA0gAMEUCIAx2SeBl9Evbx561zsvgBDgYs6pdy2WI
SJSp8ftEWxQ0AiEAl8cXz71zyV65Ao2bKPwLaUJZ1HoFR3soc4A5lW4TkZo=
-----END CERTIFICATE-----
