Certificate:
    Data:
        Version: 3 (0x2)
        Serial Number:
            95:13:c6:e3:9c:f5:b0:be
        Signature Algorithm: ecdsa-with-SHA1
        Issuer: CN=kunstmaan.be, OU=ca, C=be, O=kunstmaan
        Validity
            Not Before: Feb 14 16:06:50 2018 GMT
            Not After : Feb  9 16:06:50 2038 GMT
        Subject: CN=kunstmaan.be, OU=ca, C=be, O=kunstmaan
        Subject Public Key Info:
            Public Key Algorithm: id-ecPublicKey
            EC Public Key:
                pub: 
                    04:21:bf:17:51:61:e7:51:2c:39:72:5f:f6:f6:1d:
                    04:8c:85:b4:61:2a:8a:8d:06:1e:4d:77:06:89:0e:
                    a4:d9:59:d0:97:14:97:10:e8:b9:70:23:38:1e:19:
                    c0:1e:ec:09:b5:ea:7a:bf:07:6b:17:25:cc:02:6d:
                    29:dc:bf:87:18
                ASN1 OID: prime256v1
        X509v3 extensions:
            X509v3 Subject Key Identifier: 
                B3:71:D9:27:14:0A:24:03:AC:50:A4:6F:0E:C0:BC:80:C9:B4:37:2F
            X509v3 Basic Constraints: critical
                CA:TRUE
            X509v3 Key Usage: critical
                Digital Signature, Key Encipherment, Certificate Sign, CRL Sign
            X509v3 Extended Key Usage: 
                2.5.29.37.0
    Signature Algorithm: ecdsa-with-SHA1
        30:44:02:20:78:14:b5:bb:de:4f:16:ea:56:93:f2:45:93:45:
        65:b5:42:53:6c:b7:d6:1c:82:70:0a:2a:b2:a4:c7:56:34:c3:
        02:20:59:6d:49:5f:ee:6f:7f:26:28:90:f8:65:f2:41:ad:f0:
        26:40:b7:cd:e2:7d:38:02:8a:26:b7:2d:8e:ce:c0:b3
-----BEGIN CERTIFICATE-----
MIIB0TCCAXmgAwIBAgIJAJUTxuOc9bC+MAkGByqGSM49BAEwRTEVMBMGA1UEAwwM
a3Vuc3RtYWFuLmJlMQswCQYDVQQLDAJjYTELMAkGA1UEBhMCYmUxEjAQBgNVBAoM
CWt1bnN0bWFhbjAeFw0xODAyMTQxNjA2NTBaFw0zODAyMDkxNjA2NTBaMEUxFTAT
BgNVBAMMDGt1bnN0bWFhbi5iZTELMAkGA1UECwwCY2ExCzAJBgNVBAYTAmJlMRIw
EAYDVQQKDAlrdW5zdG1hYW4wWTATBgcqhkjOPQIBBggqhkjOPQMBBwNCAAQhvxdR
YedRLDlyX/b2HQSMhbRhKoqNBh5NdwaJDqTZWdCXFJcQ6LlwIzgeGcAe7Am16nq/
B2sXJcwCbSncv4cYo1MwUTAdBgNVHQ4EFgQUs3HZJxQKJAOsUKRvDsC8gMm0Ny8w
DwYDVR0TAQH/BAUwAwEB/zAOBgNVHQ8BAf8EBAMCAaYwDwYDVR0lBAgwBgYEVR0l
ADAJBgcqhkjOPQQBA0cAMEQCIHgUtbveTxbqVpPyRZNFZbVCU2y31hyCcAoqsqTH
VjTDAiBZbUlf7m9/JiiQ+GXyQa3wJkC3zeJ9OAKKJrctjs7Asw==
-----END CERTIFICATE-----
Certificate:
    Data:
        Version: 3 (0x2)
        Serial Number:
            b2:5a:1f:65:3b:3c:ad:41
        Signature Algorithm: ecdsa-with-SHA1
        Issuer: CN=kunstmaan.be, OU=ca, C=be, O=kunstmaan
        Validity
            Not Before: Feb 14 16:06:54 2018 GMT
            Not After : Feb 12 16:06:54 2028 GMT
        Subject: C=be, O=kunstmaan, OU=auth, CN=auth.kunstmaan.be
        Subject Public Key Info:
            Public Key Algorithm: id-ecPublicKey
            EC Public Key:
                pub: 
                    04:0f:8e:d3:c2:9f:bd:01:b8:63:92:cf:23:b4:d3:
                    fd:54:1b:b4:42:ff:39:44:5c:72:22:53:de:72:2f:
                    1a:2e:c7:19:55:1a:ac:91:81:2f:f5:26:a9:84:5a:
                    70:31:ee:c6:78:38:1b:6a:b1:29:aa:df:45:46:63:
                    50:56:64:e1:df
                ASN1 OID: prime256v1
        X509v3 extensions:
            1.2.3.4.5.6.7.8.1: 
                ..{"attrs":{}}
            X509v3 Authority Key Identifier: 
                keyid:B3:71:D9:27:14:0A:24:03:AC:50:A4:6F:0E:C0:BC:80:C9:B4:37:2F

            X509v3 Basic Constraints: critical
                CA:TRUE
            X509v3 Subject Key Identifier: 
                95:7B:44:03:D8:97:C6:89:B4:E3:0F:92:5E:B4:3F:F4:96:78:5F:FA
            X509v3 Extended Key Usage: 
                2.5.29.37.0
            X509v3 Key Usage: critical
                Digital Signature, Key Encipherment, Certificate Sign, CRL Sign
    Signature Algorithm: ecdsa-with-SHA1
        30:44:02:20:63:f4:9b:ea:7f:be:df:ae:3b:8a:35:d8:df:e1:
        2d:49:a1:52:59:2f:bd:3a:13:44:86:61:9d:07:e9:21:f7:b3:
        02:20:31:50:1d:2f:43:78:f7:fd:44:b7:28:4e:0a:77:1e:2a:
        70:39:19:64:35:06:4c:37:f0:97:a8:6d:0f:3a:b9:14
-----BEGIN CERTIFICATE-----
MIICFzCCAb+gAwIBAgIJALJaH2U7PK1BMAkGByqGSM49BAEwRTEVMBMGA1UEAwwM
a3Vuc3RtYWFuLmJlMQswCQYDVQQLDAJjYTELMAkGA1UEBhMCYmUxEjAQBgNVBAoM
CWt1bnN0bWFhbjAeFw0xODAyMTQxNjA2NTRaFw0yODAyMTIxNjA2NTRaMEwxCzAJ
BgNVBAYTAmJlMRIwEAYDVQQKDAlrdW5zdG1hYW4xDTALBgNVBAsMBGF1dGgxGjAY
BgNVBAMMEWF1dGgua3Vuc3RtYWFuLmJlMFkwEwYHKoZIzj0CAQYIKoZIzj0DAQcD
QgAED47Twp+9Abhjks8jtNP9VBu0Qv85RFxyIlPeci8aLscZVRqskYEv9SaphFpw
Me7GeDgbarEpqt9FRmNQVmTh36OBkTCBjjAaBggqAwQFBgcIAQQODAx7ImF0dHJz
Ijp7fX0wHwYDVR0jBBgwFoAUs3HZJxQKJAOsUKRvDsC8gMm0Ny8wDwYDVR0TAQH/
BAUwAwEB/zAdBgNVHQ4EFgQUlXtEA9iXxom04w+SXrQ/9JZ4X/owDwYDVR0lBAgw
BgYEVR0lADAOBgNVHQ8BAf8EBAMCAaYwCQYHKoZIzj0EAQNHADBEAiBj9Jvqf77f
rjuKNdjf4S1JoVJZL706E0SGYZ0H6SH3swIgMVAdL0N49/1EtyhOCnceKnA5GWQ1
Bkw38JeobQ86uRQ=
-----END CERTIFICATE-----
Certificate:
    Data:
        Version: 3 (0x2)
        Serial Number:
            fe:ed:16:eb:46:7a:b4:d8
        Signature Algorithm: ecdsa-with-SHA1
        Issuer: C=be, O=kunstmaan, OU=auth, CN=auth.kunstmaan.be
        Validity
            Not Before: Feb 14 16:06:57 2018 GMT
            Not After : Feb 12 16:06:57 2028 GMT
        Subject: C=be, O=kunstmaan, OU=auth, CN=user-3.auth.kunstmaan.be
        Subject Public Key Info:
            Public Key Algorithm: id-ecPublicKey
            EC Public Key:
                pub: 
                    04:7d:0f:bc:d7:ef:37:73:61:8c:11:7e:19:c5:df:
                    16:39:bf:38:87:56:12:1d:0f:5b:58:6e:77:1f:68:
                    85:b2:fb:50:f7:f6:b2:21:83:8c:82:c4:46:46:0b:
                    d0:15:40:73:51:80:68:04:67:20:77:32:89:2b:d2:
                    70:70:62:bf:6b
                ASN1 OID: prime256v1
        X509v3 extensions:
            1.2.3.4.5.6.7.8.1: 
                ..{"attrs":{"Name":"user-3"}}
            X509v3 Authority Key Identifier: 
                keyid:95:7B:44:03:D8:97:C6:89:B4:E3:0F:92:5E:B4:3F:F4:96:78:5F:FA

            X509v3 Basic Constraints: critical
                CA:FALSE
            X509v3 Subject Key Identifier: 
                9F:C3:48:8D:49:4D:82:B3:E8:85:60:62:C6:D2:85:E1:B3:80:7A:0F
            X509v3 Key Usage: critical
                Digital Signature
    Signature Algorithm: ecdsa-with-SHA1
        30:45:02:20:17:99:87:d1:7d:b7:bb:23:55:fd:8f:3a:33:f0:
        d6:17:64:3f:a3:0f:13:ce:92:6a:67:37:c7:62:14:c4:4d:21:
        02:21:00:ba:f1:8f:0d:e6:d3:78:0b:1d:6a:b1:df:35:54:09:
        57:5b:3c:ce:d5:bb:78:0a:3e:18:07:9b:3c:66:1a:1a:cc
-----BEGIN CERTIFICATE-----
MIICITCCAcigAwIBAgIJAP7tFutGerTYMAkGByqGSM49BAEwTDELMAkGA1UEBhMC
YmUxEjAQBgNVBAoMCWt1bnN0bWFhbjENMAsGA1UECwwEYXV0aDEaMBgGA1UEAwwR
YXV0aC5rdW5zdG1hYW4uYmUwHhcNMTgwMjE0MTYwNjU3WhcNMjgwMjEyMTYwNjU3
WjBTMQswCQYDVQQGEwJiZTESMBAGA1UECgwJa3Vuc3RtYWFuMQ0wCwYDVQQLDARh
dXRoMSEwHwYDVQQDDBh1c2VyLTMuYXV0aC5rdW5zdG1hYW4uYmUwWTATBgcqhkjO
PQIBBggqhkjOPQMBBwNCAAR9D7zX7zdzYYwRfhnF3xY5vziHVhIdD1tYbncfaIWy
+1D39rIhg4yCxEZGC9AVQHNRgGgEZyB3Mokr0nBwYr9ro4GMMIGJMCkGCCoDBAUG
BwgBBB0MG3siYXR0cnMiOnsiTmFtZSI6InVzZXItMyJ9fTAfBgNVHSMEGDAWgBSV
e0QD2JfGibTjD5JetD/0lnhf+jAMBgNVHRMBAf8EAjAAMB0GA1UdDgQWBBSfw0iN
SU2Cs+iFYGLG0oXhs4B6DzAOBgNVHQ8BAf8EBAMCB4AwCQYHKoZIzj0EAQNIADBF
AiAXmYfRfbe7I1X9jzoz8NYXZD+jDxPOkmpnN8diFMRNIQIhALrxjw3m03gLHWqx
3zVUCVdbPM7Vu3gKPhgHmzxmGhrM
-----END CERTIFICATE-----
