Certificate:
    Data:
        Version: 3 (0x2)
        Serial Number:
            cc:44:73:bc:cb:8c:00:37
        Signature Algorithm: ecdsa-with-SHA1
        Issuer: CN=kunstmaan.be, OU=tlsca, C=be, O=kunstmaan
        Validity
            Not Before: Feb 14 16:06:50 2018 GMT
            Not After : Feb  9 16:06:50 2038 GMT
        Subject: CN=kunstmaan.be, OU=tlsca, C=be, O=kunstmaan
        Subject Public Key Info:
            Public Key Algorithm: id-ecPublicKey
            EC Public Key:
                pub: 
                    04:07:06:30:3b:7b:1e:6f:56:71:7c:a1:ea:18:37:
                    8c:45:4a:33:d4:fe:31:ae:88:09:a8:c9:e9:bb:c2:
                    33:f4:3c:52:c7:e5:8d:ce:78:a7:6e:30:cb:3a:0e:
                    44:01:6d:de:51:9a:3d:ac:74:f7:61:a5:a5:b9:0d:
                    d4:c2:99:eb:6a
                ASN1 OID: prime256v1
        X509v3 extensions:
            X509v3 Subject Key Identifier: 
                FB:41:45:09:28:B4:C3:36:94:8F:FC:C5:CF:19:AF:BD:EE:B8:27:90
            X509v3 Basic Constraints: critical
                CA:TRUE
            X509v3 Key Usage: critical
                Digital Signature, Key Encipherment, Certificate Sign, CRL Sign
            X509v3 Extended Key Usage: 
                2.5.29.37.0
    Signature Algorithm: ecdsa-with-SHA1
        30:45:02:20:0c:76:49:e0:65:f4:4b:db:c7:9e:b5:ce:cb:e0:
        04:38:18:b3:aa:5d:cb:65:88:48:94:a9:f1:fb:44:5b:14:34:
        02:21:00:97:c7:17:cf:bd:73:c9:5e:b9:02:8d:9b:28:fc:0b:
        69:42:59:d4:7a:05:47:7b:28:73:80:39:95:6e:13:91:9a
-----BEGIN CERTIFICATE-----
MIIB2DCCAX+gAwIBAgIJAMxEc7zLjAA3MAkGByqGSM49BAEwSDEVMBMGA1UEAwwM
a3Vuc3RtYWFuLmJlMQ4wDAYDVQQLDAV0bHNjYTELMAkGA1UEBhMCYmUxEjAQBgNV
BAoMCWt1bnN0bWFhbjAeFw0xODAyMTQxNjA2NTBaFw0zODAyMDkxNjA2NTBaMEgx
FTATBgNVBAMMDGt1bnN0bWFhbi5iZTEOMAwGA1UECwwFdGxzY2ExCzAJBgNVBAYT
AmJlMRIwEAYDVQQKDAlrdW5zdG1hYW4wWTATBgcqhkjOPQIBBggqhkjOPQMBBwNC
AAQHBjA7ex5vVnF8oeoYN4xFSjPU/jGuiAmoyem7wjP0PFLH5Y3OeKduMMs6DkQB
bd5Rmj2sdPdhpaW5DdTCmetqo1MwUTAdBgNVHQ4EFgQU+0FFCSi0wzaUj/zFzxmv
ve64J5AwDwYDVR0TAQH/BAUwAwEB/zAOBgNVHQ8BAf8EBAMCAaYwDwYDVR0lBAgw
BgYEVR0lADAJBgcqhkjOPQQBA0gAMEUCIAx2SeBl9Evbx561zsvgBDgYs6pdy2WI
SJSp8ftEWxQ0AiEAl8cXz71zyV65Ao2bKPwLaUJZ1HoFR3soc4A5lW4TkZo=
-----END CERTIFICATE-----
Certificate:
    Data:
        Version: 3 (0x2)
        Serial Number:
            99:be:61:f3:ac:1a:0e:99
        Signature Algorithm: ecdsa-with-SHA1
        Issuer: CN=kunstmaan.be, OU=tlsca, C=be, O=kunstmaan
        Validity
            Not Before: Feb 14 16:06:54 2018 GMT
            Not After : Feb 12 16:06:54 2028 GMT
        Subject: C=be, O=kunstmaan, OU=auth, CN=auth.kunstmaan.be
        Subject Public Key Info:
            Public Key Algorithm: id-ecPublicKey
            EC Public Key:
                pub: 
                    04:55:8f:5b:75:b5:7d:bc:da:8e:05:9f:0e:de:96:
                    2d:55:1c:0d:91:ce:85:af:ee:7d:00:ca:e6:f1:1f:
                    77:81:12:c9:92:1d:c4:cd:25:fa:7b:e0:ab:e1:ab:
                    5b:aa:0c:e2:5f:78:8b:e1:f0:1c:91:06:70:a1:ed:
                    d5:91:ba:be:cb
                ASN1 OID: prime256v1
        X509v3 extensions:
            1.2.3.4.5.6.7.8.1: 
                ..{"attrs":{}}
            X509v3 Authority Key Identifier: 
                keyid:FB:41:45:09:28:B4:C3:36:94:8F:FC:C5:CF:19:AF:BD:EE:B8:27:90

            X509v3 Basic Constraints: critical
                CA:TRUE
            X509v3 Subject Key Identifier: 
                23:09:54:6B:09:73:09:3D:45:BA:47:F5:EA:FB:F9:D6:A5:F0:8D:B7
            X509v3 Key Usage: critical
                Digital Signature, Key Encipherment, Certificate Sign, CRL Sign
            X509v3 Extended Key Usage: 
                TLS Web Server Authentication, TLS Web Client Authentication
    Signature Algorithm: ecdsa-with-SHA1
        30:45:02:20:1d:d2:8b:f0:51:ad:30:5d:c0:10:69:9e:4d:25:
        bf:8f:27:3e:e3:23:b0:c8:f3:a9:33:e5:38:db:97:80:8c:09:
        02:21:00:dc:40:f9:cb:9a:b7:a0:73:38:29:e6:18:aa:4d:54:
        a6:19:0e:d4:82:bb:65:c0:57:c6:9a:ec:6e:a5:9d:e2:ef
-----BEGIN CERTIFICATE-----
MIICKTCCAdCgAwIBAgIJAJm+YfOsGg6ZMAkGByqGSM49BAEwSDEVMBMGA1UEAwwM
a3Vuc3RtYWFuLmJlMQ4wDAYDVQQLDAV0bHNjYTELMAkGA1UEBhMCYmUxEjAQBgNV
BAoMCWt1bnN0bWFhbjAeFw0xODAyMTQxNjA2NTRaFw0yODAyMTIxNjA2NTRaMEwx
CzAJBgNVBAYTAmJlMRIwEAYDVQQKDAlrdW5zdG1hYW4xDTALBgNVBAsMBGF1dGgx
GjAYBgNVBAMMEWF1dGgua3Vuc3RtYWFuLmJlMFkwEwYHKoZIzj0CAQYIKoZIzj0D
AQcDQgAEVY9bdbV9vNqOBZ8O3pYtVRwNkc6Fr+59AMrm8R93gRLJkh3EzSX6e+Cr
4atbqgziX3iL4fAckQZwoe3Vkbq+y6OBnzCBnDAaBggqAwQFBgcIAQQODAx7ImF0
dHJzIjp7fX0wHwYDVR0jBBgwFoAU+0FFCSi0wzaUj/zFzxmvve64J5AwDwYDVR0T
AQH/BAUwAwEB/zAdBgNVHQ4EFgQUIwlUawlzCT1Fukf16vv51qXwjbcwDgYDVR0P
AQH/BAQDAgGmMB0GA1UdJQQWMBQGCCsGAQUFBwMBBggrBgEFBQcDAjAJBgcqhkjO
PQQBA0gAMEUCIB3Si/BRrTBdwBBpnk0lv48nPuMjsMjzqTPlONuXgIwJAiEA3ED5
y5q3oHM4KeYYqk1UphkO1IK7ZcBXxprsbqWd4u8=
-----END CERTIFICATE-----
Certificate:
    Data:
        Version: 3 (0x2)
        Serial Number:
            95:91:20:d3:a7:98:87:b1
        Signature Algorithm: ecdsa-with-SHA1
        Issuer: C=be, O=kunstmaan, OU=auth, CN=auth.kunstmaan.be
        Validity
            Not Before: Feb 14 16:06:58 2018 GMT
            Not After : Feb 12 16:06:58 2028 GMT
        Subject: C=be, O=kunstmaan, OU=auth, CN=user-3.auth.kunstmaan.be
        Subject Public Key Info:
            Public Key Algorithm: id-ecPublicKey
            EC Public Key:
                pub: 
                    04:74:4e:8d:bd:3d:32:88:97:84:b9:6f:a4:e6:13:
                    8c:44:78:cc:62:39:1c:b8:14:a5:48:74:a8:59:2a:
                    0f:c6:59:51:a0:fe:19:ed:b0:c4:7e:30:01:7a:fd:
                    f6:bc:26:dc:35:71:94:f6:75:48:9c:1f:96:b9:b7:
                    ae:fd:e7:0a:4e
                ASN1 OID: prime256v1
        X509v3 extensions:
            1.2.3.4.5.6.7.8.1: 
                ..{"attrs":{"Name":"user-3"}}
            X509v3 Authority Key Identifier: 
                keyid:23:09:54:6B:09:73:09:3D:45:BA:47:F5:EA:FB:F9:D6:A5:F0:8D:B7

            X509v3 Basic Constraints: critical
                CA:FALSE
            X509v3 Subject Key Identifier: 
                D0:13:D7:1C:15:F1:98:0E:00:94:5F:2E:B0:C4:77:7A:1B:46:A4:43
            X509v3 Key Usage: critical
                Digital Signature, Key Encipherment
            X509v3 Extended Key Usage: 
                TLS Web Server Authentication, TLS Web Client Authentication
    Signature Algorithm: ecdsa-with-SHA1
        30:45:02:20:2e:5a:a4:1a:a0:83:ca:27:7d:1c:38:94:fa:0b:
        f0:84:a9:41:59:35:2c:bf:f6:56:57:0c:e3:f7:15:ad:d1:90:
        02:21:00:82:9f:07:d2:28:5b:cf:4d:90:87:72:09:52:e2:da:
        07:d3:fc:45:57:b8:ea:3c:35:76:cf:70:44:83:34:27:0c
-----BEGIN CERTIFICATE-----
MIICQDCCAeegAwIBAgIJAJWRINOnmIexMAkGByqGSM49BAEwTDELMAkGA1UEBhMC
YmUxEjAQBgNVBAoMCWt1bnN0bWFhbjENMAsGA1UECwwEYXV0aDEaMBgGA1UEAwwR
YXV0aC5rdW5zdG1hYW4uYmUwHhcNMTgwMjE0MTYwNjU4WhcNMjgwMjEyMTYwNjU4
WjBTMQswCQYDVQQGEwJiZTESMBAGA1UECgwJa3Vuc3RtYWFuMQ0wCwYDVQQLDARh
dXRoMSEwHwYDVQQDDBh1c2VyLTMuYXV0aC5rdW5zdG1hYW4uYmUwWTATBgcqhkjO
PQIBBggqhkjOPQMBBwNCAAR0To29PTKIl4S5b6TmE4xEeMxiORy4FKVIdKhZKg/G
WVGg/hntsMR+MAF6/fa8Jtw1cZT2dUicH5a5t6795wpOo4GrMIGoMCkGCCoDBAUG
BwgBBB0MG3siYXR0cnMiOnsiTmFtZSI6InVzZXItMyJ9fTAfBgNVHSMEGDAWgBQj
CVRrCXMJPUW6R/Xq+/nWpfCNtzAMBgNVHRMBAf8EAjAAMB0GA1UdDgQWBBTQE9cc
FfGYDgCUXy6wxHd6G0akQzAOBgNVHQ8BAf8EBAMCBaAwHQYDVR0lBBYwFAYIKwYB
BQUHAwEGCCsGAQUFBwMCMAkGByqGSM49BAEDSAAwRQIgLlqkGqCDyid9HDiU+gvw
hKlBWTUsv/ZWVwzj9xWt0ZACIQCCnwfSKFvPTZCHcglS4toH0/xFV7jqPDV2z3BE
gzQnDA==
-----END CERTIFICATE-----
