Certificate:
    Data:
        Version: 3 (0x2)
        Serial Number:
            87:aa:f2:7d:f0:a9:b3:8e
    Signature Algorithm: ecdsa-with-SHA256
        Issuer: C=be, O=kunstmaan, OU=auth, CN=auth.kunstmaan.be
        Validity
            Not Before: Feb 28 10:12:58 2018 GMT
            Not After : Feb 26 10:12:58 2028 GMT
        Subject: C=be, O=kunstmaan, OU=auth, CN=user-2.auth.kunstmaan.be
        Subject Public Key Info:
            Public Key Algorithm: id-ecPublicKey
                Public-Key: (256 bit)
                pub: 
                    04:f5:8e:99:ba:cc:f9:53:f7:43:bf:30:84:a7:2e:
                    a2:cb:df:59:06:f5:58:60:a6:dd:9b:38:2f:0f:a2:
                    6f:21:d9:ca:2d:3c:91:a5:91:33:ce:7a:1c:d4:52:
                    65:df:ea:90:85:84:87:b1:a3:a9:a7:70:a5:95:e4:
                    eb:0d:31:fe:03
                ASN1 OID: prime256v1
                NIST CURVE: P-256
        X509v3 extensions:
            1.2.3.4.5.6.7.8.1: 
                ..{"attrs":{"Name":"user-2"}}
            X509v3 Authority Key Identifier: 
                keyid:26:13:21:A8:F5:D7:53:4D:99:52:9D:4C:C0:71:9C:FF:33:ED:03:87

            X509v3 Basic Constraints: critical
                CA:FALSE
            X509v3 Subject Key Identifier: 
                D8:DE:2A:0F:B6:06:90:E8:C8:29:8D:E0:4A:0E:1B:6A:C5:E2:1F:E9
            X509v3 Key Usage: critical
                Digital Signature, Key Encipherment
            X509v3 Extended Key Usage: 
                TLS Web Server Authentication, TLS Web Client Authentication
    Signature Algorithm: ecdsa-with-SHA256
         30:44:02:20:5f:36:3a:8e:f5:3e:31:60:6e:15:c6:16:82:db:
         c1:1f:09:9f:f1:a9:62:7c:ad:35:62:41:a7:96:1f:54:51:56:
         02:20:07:a6:7a:17:08:d9:90:91:63:02:5d:7f:5b:1d:b7:90:
         cb:6e:bd:83:dd:35:07:c0:02:66:e1:a7:81:9c:f7:b6
-----BEGIN CERTIFICATE-----
MIICQTCCAeigAwIBAgIJAIeq8n3wqbOOMAoGCCqGSM49BAMCMEwxCzAJBgNVBAYT
AmJlMRIwEAYDVQQKDAlrdW5zdG1hYW4xDTALBgNVBAsMBGF1dGgxGjAYBgNVBAMM
EWF1dGgua3Vuc3RtYWFuLmJlMB4XDTE4MDIyODEwMTI1OFoXDTI4MDIyNjEwMTI1
OFowUzELMAkGA1UEBhMCYmUxEjAQBgNVBAoMCWt1bnN0bWFhbjENMAsGA1UECwwE
YXV0aDEhMB8GA1UEAwwYdXNlci0yLmF1dGgua3Vuc3RtYWFuLmJlMFkwEwYHKoZI
zj0CAQYIKoZIzj0DAQcDQgAE9Y6Zusz5U/dDvzCEpy6iy99ZBvVYYKbdmzgvD6Jv
IdnKLTyRpZEzznoc1FJl3+qQhYSHsaOpp3ClleTrDTH+A6OBqzCBqDApBggqAwQF
BgcIAQQdDBt7ImF0dHJzIjp7Ik5hbWUiOiJ1c2VyLTIifX0wHwYDVR0jBBgwFoAU
JhMhqPXXU02ZUp1MwHGc/zPtA4cwDAYDVR0TAQH/BAIwADAdBgNVHQ4EFgQU2N4q
D7YGkOjIKY3gSg4basXiH+kwDgYDVR0PAQH/BAQDAgWgMB0GA1UdJQQWMBQGCCsG
AQUFBwMBBggrBgEFBQcDAjAKBggqhkjOPQQDAgNHADBEAiBfNjqO9T4xYG4VxhaC
28EfCZ/xqWJ8rTViQaeWH1RRVgIgB6Z6FwjZkJFjAl1/Wx23kMtuvYPdNQfAAmbh
p4Gc97Y=
-----END CERTIFICATE-----
