Certificate:
    Data:
        Version: 3 (0x2)
        Serial Number:
            b1:27:66:fd:bd:84:1f:f8
        Signature Algorithm: ecdsa-with-SHA1
        Issuer: C=be, O=kunstmaan, OU=auth, CN=auth.kunstmaan.be
        Validity
            Not Before: Feb 27 17:00:15 2018 GMT
            Not After : Feb 25 17:00:15 2028 GMT
        Subject: C=be, O=kunstmaan, OU=auth, CN=user-2.auth.kunstmaan.be
        Subject Public Key Info:
            Public Key Algorithm: id-ecPublicKey
            EC Public Key:
                pub: 
                    04:51:56:ae:c9:90:c0:3a:17:18:14:ea:f8:e9:96:
                    ba:e0:fc:e2:d9:b7:ec:db:f5:e3:48:71:75:e3:36:
                    d8:00:7d:a7:54:e1:77:a4:74:5a:60:73:9a:00:f4:
                    f4:3e:83:08:2e:85:d4:9e:d7:c6:79:b8:c3:6a:ba:
                    21:81:40:1a:2e
                ASN1 OID: prime256v1
        X509v3 extensions:
            1.2.3.4.5.6.7.8.1: 
                ..{"attrs":{"Name":"user-2"}}
            X509v3 Authority Key Identifier: 
                keyid:80:63:DD:37:12:8B:E5:B9:3A:BD:96:0D:EC:EE:BF:E3:2C:66:0B:12

            X509v3 Basic Constraints: critical
                CA:FALSE
            X509v3 Subject Key Identifier: 
                CC:5F:D6:8C:B4:42:41:4C:50:1A:83:65:75:6F:B9:DD:8B:B0:84:15
            X509v3 Key Usage: critical
                Digital Signature, Key Encipherment
            X509v3 Extended Key Usage: 
                TLS Web Server Authentication, TLS Web Client Authentication
    Signature Algorithm: ecdsa-with-SHA1
        30:45:02:20:70:ec:c6:d7:d0:0c:5b:58:f3:00:92:7a:bb:c8:
        56:34:f1:7c:61:e7:29:f2:99:aa:9b:5b:dc:c1:b4:41:53:36:
        02:21:00:fc:c1:9b:2a:4b:0e:aa:c6:54:c0:cb:ce:67:5a:cd:
        43:29:60:30:dc:5d:d1:ad:13:36:53:6e:16:ef:a4:b8:fa
-----BEGIN CERTIFICATE-----
MIICQDCCAeegAwIBAgIJALEnZv29hB/4MAkGByqGSM49BAEwTDELMAkGA1UEBhMC
YmUxEjAQBgNVBAoMCWt1bnN0bWFhbjENMAsGA1UECwwEYXV0aDEaMBgGA1UEAwwR
YXV0aC5rdW5zdG1hYW4uYmUwHhcNMTgwMjI3MTcwMDE1WhcNMjgwMjI1MTcwMDE1
WjBTMQswCQYDVQQGEwJiZTESMBAGA1UECgwJa3Vuc3RtYWFuMQ0wCwYDVQQLDARh
dXRoMSEwHwYDVQQDDBh1c2VyLTIuYXV0aC5rdW5zdG1hYW4uYmUwWTATBgcqhkjO
PQIBBggqhkjOPQMBBwNCAARRVq7JkMA6FxgU6vjplrrg/OLZt+zb9eNIcXXjNtgA
fadU4XekdFpgc5oA9PQ+gwguhdSe18Z5uMNquiGBQBouo4GrMIGoMCkGCCoDBAUG
BwgBBB0MG3siYXR0cnMiOnsiTmFtZSI6InVzZXItMiJ9fTAfBgNVHSMEGDAWgBSA
Y903EovluTq9lg3s7r/jLGYLEjAMBgNVHRMBAf8EAjAAMB0GA1UdDgQWBBTMX9aM
tEJBTFAag2V1b7ndi7CEFTAOBgNVHQ8BAf8EBAMCBaAwHQYDVR0lBBYwFAYIKwYB
BQUHAwEGCCsGAQUFBwMCMAkGByqGSM49BAEDSAAwRQIgcOzG19AMW1jzAJJ6u8hW
NPF8Yecp8pmqm1vcwbRBUzYCIQD8wZsqSw6qxlTAy85nWs1DKWAw3F3RrRM2U24W
76S4+g==
-----END CERTIFICATE-----
