Certificate:
    Data:
        Version: 3 (0x2)
        Serial Number:
            b0:18:9b:1e:c9:c7:63:b1
    Signature Algorithm: ecdsa-with-SHA256
        Issuer: C=be, O=kunstmaan, OU=auth, CN=auth.kunstmaan.be
        Validity
            Not Before: Feb 28 10:00:23 2018 GMT
            Not After : Feb 26 10:00:23 2028 GMT
        Subject: C=be, O=kunstmaan, OU=auth, CN=user-2.auth.kunstmaan.be
        Subject Public Key Info:
            Public Key Algorithm: id-ecPublicKey
                Public-Key: (256 bit)
                pub: 
                    04:82:ab:fd:a7:a4:99:74:2b:89:15:b7:f2:c5:aa:
                    d8:11:1f:21:61:bf:9d:fb:1d:94:69:eb:a3:ae:08:
                    0f:e5:a7:45:52:04:d3:ee:3f:da:c7:82:37:97:91:
                    b4:f6:0d:c2:88:eb:3d:c1:0b:33:cd:6e:73:f9:65:
                    61:e0:f2:3e:3c
                ASN1 OID: prime256v1
                NIST CURVE: P-256
        X509v3 extensions:
            1.2.3.4.5.6.7.8.1: 
                ..{"attrs":{"Name":"user-2"}}
            X509v3 Authority Key Identifier: 
                keyid:1C:18:8D:F4:04:3A:E9:E5:E6:E1:BD:36:5D:40:98:41:20:AC:6D:FD

            X509v3 Basic Constraints: critical
                CA:FALSE
            X509v3 Subject Key Identifier: 
                61:0E:C5:BC:E7:14:4F:7B:92:45:9B:3A:8A:D9:29:BC:60:30:3F:E4
            X509v3 Key Usage: critical
                Digital Signature, Key Encipherment
            X509v3 Extended Key Usage: 
                TLS Web Server Authentication, TLS Web Client Authentication
    Signature Algorithm: ecdsa-with-SHA256
         30:45:02:20:02:6a:31:01:e8:c2:4d:7e:02:cc:cd:cd:54:89:
         0a:c3:11:54:b8:a9:ce:c6:cb:49:08:f3:3f:ce:56:a2:f0:51:
         02:21:00:a2:2a:36:f0:0e:a1:82:95:62:24:df:83:14:ba:47:
         e4:f6:eb:77:bb:c5:a3:c5:94:34:36:dd:90:e4:65:cd:0b
-----BEGIN CERTIFICATE-----
MIICQjCCAeigAwIBAgIJALAYmx7Jx2OxMAoGCCqGSM49BAMCMEwxCzAJBgNVBAYT
AmJlMRIwEAYDVQQKDAlrdW5zdG1hYW4xDTALBgNVBAsMBGF1dGgxGjAYBgNVBAMM
EWF1dGgua3Vuc3RtYWFuLmJlMB4XDTE4MDIyODEwMDAyM1oXDTI4MDIyNjEwMDAy
M1owUzELMAkGA1UEBhMCYmUxEjAQBgNVBAoMCWt1bnN0bWFhbjENMAsGA1UECwwE
YXV0aDEhMB8GA1UEAwwYdXNlci0yLmF1dGgua3Vuc3RtYWFuLmJlMFkwEwYHKoZI
zj0CAQYIKoZIzj0DAQcDQgAEgqv9p6SZdCuJFbfyxarYER8hYb+d+x2UaeujrggP
5adFUgTT7j/ax4I3l5G09g3CiOs9wQszzW5z+WVh4PI+PKOBqzCBqDApBggqAwQF
BgcIAQQdDBt7ImF0dHJzIjp7Ik5hbWUiOiJ1c2VyLTIifX0wHwYDVR0jBBgwFoAU
HBiN9AQ66eXm4b02XUCYQSCsbf0wDAYDVR0TAQH/BAIwADAdBgNVHQ4EFgQUYQ7F
vOcUT3uSRZs6itkpvGAwP+QwDgYDVR0PAQH/BAQDAgWgMB0GA1UdJQQWMBQGCCsG
AQUFBwMBBggrBgEFBQcDAjAKBggqhkjOPQQDAgNIADBFAiACajEB6MJNfgLMzc1U
iQrDEVS4qc7Gy0kI8z/OVqLwUQIhAKIqNvAOoYKVYiTfgxS6R+T263e7xaPFlDQ2
3ZDkZc0L
-----END CERTIFICATE-----
