Certificate:
    Data:
        Version: 3 (0x2)
        Serial Number:
            ef:ac:0c:dd:ad:7a:53:c3
        Signature Algorithm: ecdsa-with-SHA1
        Issuer: C=be, O=kunstmaan, OU=auth, CN=auth.kunstmaan.be
        Validity
            Not Before: Feb 14 16:06:57 2018 GMT
            Not After : Feb 12 16:06:57 2028 GMT
        Subject: C=be, O=kunstmaan, OU=auth, CN=user-2.auth.kunstmaan.be
        Subject Public Key Info:
            Public Key Algorithm: id-ecPublicKey
            EC Public Key:
                pub: 
                    04:85:04:c5:99:c1:0c:15:55:1e:89:71:cf:eb:85:
                    aa:e7:d0:77:36:3d:19:a3:8f:a2:76:2c:b9:7d:91:
                    e0:7d:a6:b3:40:78:dc:d8:b6:7e:69:c6:ee:bb:eb:
                    92:81:19:cc:25:64:82:0b:94:fe:1c:d9:f3:30:6c:
                    e3:e4:db:78:ec
                ASN1 OID: prime256v1
        X509v3 extensions:
            1.2.3.4.5.6.7.8.1: 
                ..{"attrs":{"Name":"user-2"}}
            X509v3 Authority Key Identifier: 
                keyid:23:09:54:6B:09:73:09:3D:45:BA:47:F5:EA:FB:F9:D6:A5:F0:8D:B7

            X509v3 Basic Constraints: critical
                CA:FALSE
            X509v3 Subject Key Identifier: 
                42:63:A7:D6:3F:6B:A6:7B:F4:01:F3:CE:3E:53:AC:2F:2D:02:97:34
            X509v3 Key Usage: critical
                Digital Signature, Key Encipherment
            X509v3 Extended Key Usage: 
                TLS Web Server Authentication, TLS Web Client Authentication
    Signature Algorithm: ecdsa-with-SHA1
        30:45:02:21:00:92:87:f2:25:fb:7f:0c:fd:bc:f5:18:ab:c0:
        4c:5c:11:89:37:c0:65:50:2e:44:a7:09:21:66:39:99:b1:c3:
        08:02:20:0c:13:bc:87:7c:a2:ad:27:f7:97:4f:07:a9:49:fa:
        ea:83:21:a6:ab:3b:85:8e:87:2c:8c:cb:8c:05:92:d0:3b
-----BEGIN CERTIFICATE-----
MIICQDCCAeegAwIBAgIJAO+sDN2telPDMAkGByqGSM49BAEwTDELMAkGA1UEBhMC
YmUxEjAQBgNVBAoMCWt1bnN0bWFhbjENMAsGA1UECwwEYXV0aDEaMBgGA1UEAwwR
YXV0aC5rdW5zdG1hYW4uYmUwHhcNMTgwMjE0MTYwNjU3WhcNMjgwMjEyMTYwNjU3
WjBTMQswCQYDVQQGEwJiZTESMBAGA1UECgwJa3Vuc3RtYWFuMQ0wCwYDVQQLDARh
dXRoMSEwHwYDVQQDDBh1c2VyLTIuYXV0aC5rdW5zdG1hYW4uYmUwWTATBgcqhkjO
PQIBBggqhkjOPQMBBwNCAASFBMWZwQwVVR6Jcc/rharn0Hc2PRmjj6J2LLl9keB9
prNAeNzYtn5pxu6765KBGcwlZIILlP4c2fMwbOPk23jso4GrMIGoMCkGCCoDBAUG
BwgBBB0MG3siYXR0cnMiOnsiTmFtZSI6InVzZXItMiJ9fTAfBgNVHSMEGDAWgBQj
CVRrCXMJPUW6R/Xq+/nWpfCNtzAMBgNVHRMBAf8EAjAAMB0GA1UdDgQWBBRCY6fW
P2ume/QB884+U6wvLQKXNDAOBgNVHQ8BAf8EBAMCBaAwHQYDVR0lBBYwFAYIKwYB
BQUHAwEGCCsGAQUFBwMCMAkGByqGSM49BAEDSAAwRQIhAJKH8iX7fwz9vPUYq8BM
XBGJN8BlUC5EpwkhZjmZscMIAiAME7yHfKKtJ/eXTwepSfrqgyGmqzuFjocsjMuM
BZLQOw==
-----END CERTIFICATE-----
