Certificate:
    Data:
        Version: 3 (0x2)
        Serial Number:
            d8:2d:d1:73:96:6e:e6:32
    Signature Algorithm: ecdsa-with-SHA256
        Issuer: CN=kunstmaan.be, OU=ca, C=be, O=kunstmaan
        Validity
            Not Before: Feb 28 10:00:18 2018 GMT
            Not After : Feb 26 10:00:18 2028 GMT
        Subject: C=be, O=kunstmaan, OU=org, CN=org.kunstmaan.be
        Subject Public Key Info:
            Public Key Algorithm: id-ecPublicKey
                Public-Key: (256 bit)
                pub: 
                    04:22:98:2d:a1:c0:64:1c:5b:bf:bc:11:c2:95:96:
                    c9:ae:c0:63:f0:f8:87:47:ad:7a:bf:82:1c:52:a5:
                    e1:29:7e:8e:fc:eb:e9:34:1b:70:a2:2a:fd:90:36:
                    3b:c1:da:25:9b:01:1f:cb:00:9a:7d:74:04:96:1b:
                    83:d3:f8:77:b3
                ASN1 OID: prime256v1
                NIST CURVE: P-256
        X509v3 extensions:
            1.2.3.4.5.6.7.8.1: 
                ..{"attrs":{}}
            X509v3 Authority Key Identifier: 
                keyid:FF:BF:2D:2F:F8:AB:7D:BE:D5:06:D2:71:53:11:5C:08:E0:74:58:1D

            X509v3 Basic Constraints: critical
                CA:TRUE
            X509v3 Subject Key Identifier: 
                83:E2:97:23:04:83:A2:25:9C:B1:F2:12:BF:DA:36:8E:3F:36:7B:FF
            X509v3 Extended Key Usage: 
                Any Extended Key Usage
            X509v3 Key Usage: critical
                Digital Signature, Key Encipherment, Certificate Sign, CRL Sign
    Signature Algorithm: ecdsa-with-SHA256
         30:46:02:21:00:8f:86:d4:bf:65:55:1b:b2:c6:ab:39:65:c5:
         2e:62:29:72:3f:1b:43:da:3b:ad:4e:0b:65:ac:98:d5:14:d6:
         b0:02:21:00:a9:77:ab:42:e9:3f:c7:a8:bf:1f:f2:39:d8:8b:
         a8:db:f5:61:bb:10:5e:da:72:d5:f1:5e:75:8a:90:90:e4:fc
-----BEGIN CERTIFICATE-----
MIICGTCCAb6gAwIBAgIJANgt0XOWbuYyMAoGCCqGSM49BAMCMEUxFTATBgNVBAMM
DGt1bnN0bWFhbi5iZTELMAkGA1UECwwCY2ExCzAJBgNVBAYTAmJlMRIwEAYDVQQK
DAlrdW5zdG1hYW4wHhcNMTgwMjI4MTAwMDE4WhcNMjgwMjI2MTAwMDE4WjBKMQsw
CQYDVQQGEwJiZTESMBAGA1UECgwJa3Vuc3RtYWFuMQwwCgYDVQQLDANvcmcxGTAX
BgNVBAMMEG9yZy5rdW5zdG1hYW4uYmUwWTATBgcqhkjOPQIBBggqhkjOPQMBBwNC
AAQimC2hwGQcW7+8EcKVlsmuwGPw+IdHrXq/ghxSpeEpfo786+k0G3CiKv2QNjvB
2iWbAR/LAJp9dASWG4PT+Hezo4GRMIGOMBoGCCoDBAUGBwgBBA4MDHsiYXR0cnMi
Ont9fTAfBgNVHSMEGDAWgBT/vy0v+Kt9vtUG0nFTEVwI4HRYHTAPBgNVHRMBAf8E
BTADAQH/MB0GA1UdDgQWBBSD4pcjBIOiJZyx8hK/2jaOPzZ7/zAPBgNVHSUECDAG
BgRVHSUAMA4GA1UdDwEB/wQEAwIBpjAKBggqhkjOPQQDAgNJADBGAiEAj4bUv2VV
G7LGqzllxS5iKXI/G0PaO61OC2WsmNUU1rACIQCpd6tC6T/HqL8f8jnYi6jb9WG7
EF7actXxXnWKkJDk/A==
-----END CERTIFICATE-----
