Certificate:
    Data:
        Version: 3 (0x2)
        Serial Number:
            d2:96:f2:74:96:07:9b:2d
    Signature Algorithm: ecdsa-with-SHA256
        Issuer: CN=kunstmaan.be, OU=ca, C=be, O=kunstmaan
        Validity
            Not Before: Feb 28 10:12:52 2018 GMT
            Not After : Feb 26 10:12:52 2028 GMT
        Subject: C=be, O=kunstmaan, OU=org, CN=org.kunstmaan.be
        Subject Public Key Info:
            Public Key Algorithm: id-ecPublicKey
                Public-Key: (256 bit)
                pub: 
                    04:72:55:e1:d1:03:84:d6:60:f1:71:ad:ca:43:a7:
                    50:eb:9b:76:6f:6b:5f:ef:2d:45:d2:f1:0a:fd:98:
                    3d:fc:8d:3d:9e:5d:ae:b2:f0:05:9f:88:ae:b4:29:
                    53:56:ef:ff:b7:f2:c3:93:9a:15:cb:9f:22:30:0d:
                    47:5e:8f:a6:2c
                ASN1 OID: prime256v1
                NIST CURVE: P-256
        X509v3 extensions:
            1.2.3.4.5.6.7.8.1: 
                ..{"attrs":{}}
            X509v3 Authority Key Identifier: 
                keyid:5B:94:1B:FA:3D:97:08:38:D0:52:B7:C6:20:15:62:CB:C6:D1:D3:5D

            X509v3 Basic Constraints: critical
                CA:TRUE
            X509v3 Subject Key Identifier: 
                F2:4F:2D:2C:11:24:10:11:AF:8E:8B:F6:EA:F4:7E:58:1B:A0:B8:E2
            X509v3 Extended Key Usage: 
                Any Extended Key Usage
            X509v3 Key Usage: critical
                Digital Signature, Key Encipherment, Certificate Sign, CRL Sign
    Signature Algorithm: ecdsa-with-SHA256
         30:44:02:20:5b:08:ca:31:a2:c1:ac:9b:41:a9:e9:02:63:0f:
         47:b5:3b:f8:b6:cc:c3:e3:b4:3a:9e:65:a6:8e:c4:c8:83:73:
         02:20:32:c8:2c:a6:ed:1d:78:1e:66:bc:bb:48:64:da:e0:fa:
         8a:a0:21:88:fb:16:85:39:18:32:27:18:48:5f:ae:3c
-----BEGIN CERTIFICATE-----
MIICFzCCAb6gAwIBAgIJANKW8nSWB5stMAoGCCqGSM49BAMCMEUxFTATBgNVBAMM
DGt1bnN0bWFhbi5iZTELMAkGA1UECwwCY2ExCzAJBgNVBAYTAmJlMRIwEAYDVQQK
DAlrdW5zdG1hYW4wHhcNMTgwMjI4MTAxMjUyWhcNMjgwMjI2MTAxMjUyWjBKMQsw
CQYDVQQGEwJiZTESMBAGA1UECgwJa3Vuc3RtYWFuMQwwCgYDVQQLDANvcmcxGTAX
BgNVBAMMEG9yZy5rdW5zdG1hYW4uYmUwWTATBgcqhkjOPQIBBggqhkjOPQMBBwNC
AARyVeHRA4TWYPFxrcpDp1Drm3Zva1/vLUXS8Qr9mD38jT2eXa6y8AWfiK60KVNW
7/+38sOTmhXLnyIwDUdej6Yso4GRMIGOMBoGCCoDBAUGBwgBBA4MDHsiYXR0cnMi
Ont9fTAfBgNVHSMEGDAWgBRblBv6PZcIONBSt8YgFWLLxtHTXTAPBgNVHRMBAf8E
BTADAQH/MB0GA1UdDgQWBBTyTy0sESQQEa+Oi/bq9H5YG6C44jAPBgNVHSUECDAG
BgRVHSUAMA4GA1UdDwEB/wQEAwIBpjAKBggqhkjOPQQDAgNHADBEAiBbCMoxosGs
m0Gp6QJjD0e1O/i2zMPjtDqeZaaOxMiDcwIgMsgspu0deB5mvLtIZNrg+oqgIYj7
FoU5GDInGEhfrjw=
-----END CERTIFICATE-----
