Certificate:
    Data:
        Version: 3 (0x2)
        Serial Number:
            d3:e7:79:9a:5f:fb:ae:8f
        Signature Algorithm: ecdsa-with-SHA1
        Issuer: CN=kunstmaan.be, OU=ca, C=be, O=kunstmaan
        Validity
            Not Before: Feb 27 17:00:07 2018 GMT
            Not After : Feb 25 17:00:07 2028 GMT
        Subject: C=be, O=kunstmaan, OU=org, CN=org.kunstmaan.be
        Subject Public Key Info:
            Public Key Algorithm: id-ecPublicKey
            EC Public Key:
                pub: 
                    04:2e:60:4f:21:d0:4d:ff:b9:e3:c6:b9:82:5d:65:
                    03:62:70:aa:31:4d:d5:60:01:27:ee:11:18:0e:43:
                    75:7f:0b:de:17:2f:33:ea:db:c0:ab:15:51:9f:bb:
                    cc:a7:3b:a0:c2:6a:f2:43:50:3c:0f:1e:c2:75:14:
                    73:0f:22:52:ea
                ASN1 OID: prime256v1
        X509v3 extensions:
            1.2.3.4.5.6.7.8.1: 
                ..{"attrs":{}}
            X509v3 Authority Key Identifier: 
                keyid:36:DB:89:FC:56:3F:D3:96:CF:41:F0:4C:F0:DD:36:1E:C3:ED:2E:6A

            X509v3 Basic Constraints: critical
                CA:TRUE
            X509v3 Subject Key Identifier: 
                27:45:73:9B:F8:8F:FB:E3:22:62:CA:C3:10:13:26:32:28:A6:34:B2
            X509v3 Extended Key Usage: 
                2.5.29.37.0
            X509v3 Key Usage: critical
                Digital Signature, Key Encipherment, Certificate Sign, CRL Sign
    Signature Algorithm: ecdsa-with-SHA1
        30:46:02:21:00:91:eb:59:c4:bd:87:7b:1a:50:11:c4:ce:0d:
        a9:47:3e:09:ba:f4:ec:e5:96:a1:24:6b:52:ab:71:1b:29:9e:
        4b:02:21:00:bf:3c:88:10:e1:96:a6:51:cb:bb:f1:85:e3:51:
        63:51:66:46:d3:88:61:1d:8f:07:c6:9e:27:11:95:7a:d7:8c
-----BEGIN CERTIFICATE-----
MIICFzCCAb2gAwIBAgIJANPneZpf+66PMAkGByqGSM49BAEwRTEVMBMGA1UEAwwM
a3Vuc3RtYWFuLmJlMQswCQYDVQQLDAJjYTELMAkGA1UEBhMCYmUxEjAQBgNVBAoM
CWt1bnN0bWFhbjAeFw0xODAyMjcxNzAwMDdaFw0yODAyMjUxNzAwMDdaMEoxCzAJ
BgNVBAYTAmJlMRIwEAYDVQQKDAlrdW5zdG1hYW4xDDAKBgNVBAsMA29yZzEZMBcG
A1UEAwwQb3JnLmt1bnN0bWFhbi5iZTBZMBMGByqGSM49AgEGCCqGSM49AwEHA0IA
BC5gTyHQTf+548a5gl1lA2JwqjFN1WABJ+4RGA5DdX8L3hcvM+rbwKsVUZ+7zKc7
oMJq8kNQPA8ewnUUcw8iUuqjgZEwgY4wGgYIKgMEBQYHCAEEDgwMeyJhdHRycyI6
e319MB8GA1UdIwQYMBaAFDbbifxWP9OWz0HwTPDdNh7D7S5qMA8GA1UdEwEB/wQF
MAMBAf8wHQYDVR0OBBYEFCdFc5v4j/vjImLKwxATJjIopjSyMA8GA1UdJQQIMAYG
BFUdJQAwDgYDVR0PAQH/BAQDAgGmMAkGByqGSM49BAEDSQAwRgIhAJHrWcS9h3sa
UBHEzg2pRz4JuvTs5ZahJGtSq3EbKZ5LAiEAvzyIEOGWplHLu/GF41FjUWZG04hh
HY8Hxp4nEZV614w=
-----END CERTIFICATE-----
