Certificate:
    Data:
        Version: 3 (0x2)
        Serial Number:
            ed:cd:f8:9b:21:94:29:4c
    Signature Algorithm: ecdsa-with-SHA256
        Issuer: C=be, O=kunstmaan, OU=org, CN=org.kunstmaan.be
        Validity
            Not Before: Feb 28 10:00:20 2018 GMT
            Not After : Feb 26 10:00:20 2028 GMT
        Subject: C=be, O=kunstmaan, OU=org, CN=orderer.org.kunstmaan.be
        Subject Public Key Info:
            Public Key Algorithm: id-ecPublicKey
                Public-Key: (256 bit)
                pub: 
                    04:26:c6:55:e8:cb:52:7d:4e:07:45:32:aa:56:0f:
                    92:25:56:2a:1e:0b:d4:a7:08:bb:24:5a:1b:1b:f7:
                    98:5b:12:8b:8c:fe:58:4b:d8:e6:8b:9e:4f:53:be:
                    99:ad:48:a5:5e:9f:65:2e:20:fd:30:1b:f9:a5:b1:
                    46:1c:8d:da:9b
                ASN1 OID: prime256v1
                NIST CURVE: P-256
        X509v3 extensions:
            1.2.3.4.5.6.7.8.1: 
                ..{"attrs":{}}
            X509v3 Authority Key Identifier: 
                keyid:6B:9C:F9:1B:41:1F:57:6B:39:F6:6F:01:3E:23:65:75:2B:4C:81:D1

            X509v3 Basic Constraints: critical
                CA:FALSE
            X509v3 Subject Key Identifier: 
                7B:58:BE:B2:45:36:FF:D1:BA:99:28:C7:99:A7:74:CD:C6:11:76:0B
            X509v3 Key Usage: critical
                Digital Signature, Key Encipherment
            X509v3 Extended Key Usage: 
                TLS Web Server Authentication, TLS Web Client Authentication
    Signature Algorithm: ecdsa-with-SHA256
         30:46:02:21:00:f0:78:aa:e7:0d:31:e1:c8:14:55:83:98:e6:
         f8:eb:9f:56:9a:82:40:68:0a:7e:a1:e1:af:ae:23:7b:d5:fa:
         30:02:21:00:f9:2e:f0:d3:a0:80:c9:20:e1:a2:a9:ac:03:eb:
         86:1c:02:50:51:ef:55:da:52:31:3b:89:30:97:7b:3d:e2:62
-----BEGIN CERTIFICATE-----
MIICMTCCAdagAwIBAgIJAO3N+JshlClMMAoGCCqGSM49BAMCMEoxCzAJBgNVBAYT
AmJlMRIwEAYDVQQKDAlrdW5zdG1hYW4xDDAKBgNVBAsMA29yZzEZMBcGA1UEAwwQ
b3JnLmt1bnN0bWFhbi5iZTAeFw0xODAyMjgxMDAwMjBaFw0yODAyMjYxMDAwMjBa
MFIxCzAJBgNVBAYTAmJlMRIwEAYDVQQKDAlrdW5zdG1hYW4xDDAKBgNVBAsMA29y
ZzEhMB8GA1UEAwwYb3JkZXJlci5vcmcua3Vuc3RtYWFuLmJlMFkwEwYHKoZIzj0C
AQYIKoZIzj0DAQcDQgAEJsZV6MtSfU4HRTKqVg+SJVYqHgvUpwi7JFobG/eYWxKL
jP5YS9jmi55PU76ZrUilXp9lLiD9MBv5pbFGHI3am6OBnDCBmTAaBggqAwQFBgcI
AQQODAx7ImF0dHJzIjp7fX0wHwYDVR0jBBgwFoAUa5z5G0EfV2s59m8BPiNldStM
gdEwDAYDVR0TAQH/BAIwADAdBgNVHQ4EFgQUe1i+skU2/9G6mSjHmad0zcYRdgsw
DgYDVR0PAQH/BAQDAgWgMB0GA1UdJQQWMBQGCCsGAQUFBwMBBggrBgEFBQcDAjAK
BggqhkjOPQQDAgNJADBGAiEA8Hiq5w0x4cgUVYOY5vjrn1aagkBoCn6h4a+uI3vV
+jACIQD5LvDToIDJIOGiqawD64YcAlBR71XaUjE7iTCXez3iYg==
-----END CERTIFICATE-----
