Certificate:
    Data:
        Version: 3 (0x2)
        Serial Number:
            cd:23:2a:10:b0:50:bf:aa
    Signature Algorithm: ecdsa-with-SHA256
        Issuer: C=be, O=kunstmaan, OU=org, CN=org.kunstmaan.be
        Validity
            Not Before: Feb 28 10:12:54 2018 GMT
            Not After : Feb 26 10:12:54 2028 GMT
        Subject: C=be, O=kunstmaan, OU=org, CN=orderer.org.kunstmaan.be
        Subject Public Key Info:
            Public Key Algorithm: id-ecPublicKey
                Public-Key: (256 bit)
                pub: 
                    04:39:d1:1c:0c:78:68:cf:ee:2d:8a:01:66:b1:09:
                    67:fe:df:c4:e3:64:a9:f0:55:3b:80:d5:43:06:f1:
                    cf:20:6d:6d:2a:93:aa:cd:be:70:f1:47:cb:e3:b8:
                    a7:62:79:0a:00:8e:52:58:16:77:11:0b:88:5c:42:
                    0f:03:9e:b7:85
                ASN1 OID: prime256v1
                NIST CURVE: P-256
        X509v3 extensions:
            1.2.3.4.5.6.7.8.1: 
                ..{"attrs":{}}
            X509v3 Authority Key Identifier: 
                keyid:21:26:6E:CC:58:10:2E:BE:D2:15:53:E3:22:BE:F0:04:B7:E5:84:7E

            X509v3 Basic Constraints: critical
                CA:FALSE
            X509v3 Subject Key Identifier: 
                5C:17:5F:EB:F9:03:FA:C6:46:77:F5:10:9E:B5:17:81:A8:50:47:58
            X509v3 Key Usage: critical
                Digital Signature, Key Encipherment
            X509v3 Extended Key Usage: 
                TLS Web Server Authentication, TLS Web Client Authentication
    Signature Algorithm: ecdsa-with-SHA256
         30:44:02:20:1c:42:ad:57:13:a7:1e:87:cc:8a:2d:39:76:96:
         08:59:77:de:fa:be:45:fd:31:fe:0e:58:6e:0e:cb:fc:3f:10:
         02:20:61:e6:d6:74:32:8e:4d:53:ce:d0:da:65:eb:c8:c1:b0:
         2a:63:2c:a8:11:37:5e:ea:14:84:1f:49:b9:93:12:b5
-----BEGIN CERTIFICATE-----
MIICLzCCAdagAwIBAgIJAM0jKhCwUL+qMAoGCCqGSM49BAMCMEoxCzAJBgNVBAYT
AmJlMRIwEAYDVQQKDAlrdW5zdG1hYW4xDDAKBgNVBAsMA29yZzEZMBcGA1UEAwwQ
b3JnLmt1bnN0bWFhbi5iZTAeFw0xODAyMjgxMDEyNTRaFw0yODAyMjYxMDEyNTRa
MFIxCzAJBgNVBAYTAmJlMRIwEAYDVQQKDAlrdW5zdG1hYW4xDDAKBgNVBAsMA29y
ZzEhMB8GA1UEAwwYb3JkZXJlci5vcmcua3Vuc3RtYWFuLmJlMFkwEwYHKoZIzj0C
AQYIKoZIzj0DAQcDQgAEOdEcDHhoz+4tigFmsQln/t/E42Sp8FU7gNVDBvHPIG1t
KpOqzb5w8UfL47inYnkKAI5SWBZ3EQuIXEIPA563haOBnDCBmTAaBggqAwQFBgcI
AQQODAx7ImF0dHJzIjp7fX0wHwYDVR0jBBgwFoAUISZuzFgQLr7SFVPjIr7wBLfl
hH4wDAYDVR0TAQH/BAIwADAdBgNVHQ4EFgQUXBdf6/kD+sZGd/UQnrUXgahQR1gw
DgYDVR0PAQH/BAQDAgWgMB0GA1UdJQQWMBQGCCsGAQUFBwMBBggrBgEFBQcDAjAK
BggqhkjOPQQDAgNHADBEAiAcQq1XE6ceh8yKLTl2lghZd976vkX9Mf4OWG4Oy/w/
EAIgYebWdDKOTVPO0Npl68jBsCpjLKgRN17qFIQfSbmTErU=
-----END CERTIFICATE-----
