Certificate:
    Data:
        Version: 3 (0x2)
        Serial Number:
            8b:4c:b1:62:18:73:5f:f0
        Signature Algorithm: ecdsa-with-SHA1
        Issuer: C=be, O=kunstmaan, OU=org, CN=org.kunstmaan.be
        Validity
            Not Before: Feb 27 17:00:09 2018 GMT
            Not After : Feb 25 17:00:09 2028 GMT
        Subject: C=be, O=kunstmaan, OU=org, CN=orderer.org.kunstmaan.be
        Subject Public Key Info:
            Public Key Algorithm: id-ecPublicKey
            EC Public Key:
                pub: 
                    04:41:e3:df:0d:17:d7:bb:48:2f:8c:d3:94:e2:58:
                    fe:ed:4e:e4:73:7f:ac:e4:83:79:57:0a:1e:c3:42:
                    6e:f3:b6:0c:cf:ba:38:08:5d:39:0a:e8:c3:5a:c9:
                    b4:79:f7:27:81:81:93:1c:fb:15:40:57:37:99:43:
                    49:cb:cc:61:b6
                ASN1 OID: prime256v1
        X509v3 extensions:
            1.2.3.4.5.6.7.8.1: 
                ..{"attrs":{}}
            X509v3 Authority Key Identifier: 
                keyid:89:9E:98:C2:9C:9A:BF:F0:F0:4E:93:13:CF:D9:90:22:10:CB:5F:FA

            X509v3 Basic Constraints: critical
                CA:FALSE
            X509v3 Subject Key Identifier: 
                53:F5:F9:C3:16:75:88:DF:B2:C7:A1:88:86:BC:05:38:D8:F8:19:C6
            X509v3 Key Usage: critical
                Digital Signature, Key Encipherment
            X509v3 Extended Key Usage: 
                TLS Web Server Authentication, TLS Web Client Authentication
    Signature Algorithm: ecdsa-with-SHA1
        30:44:02:20:10:c7:aa:3f:47:69:5f:2f:af:8e:cc:36:a4:85:
        7d:bf:b4:3f:d8:49:0c:0e:e4:51:8f:0d:82:e3:37:19:e4:85:
        02:20:6c:2a:5a:60:57:44:e7:04:71:0d:09:ac:30:61:af:37:
        13:d6:3e:ba:5a:80:78:d5:77:42:b5:8d:3e:da:27:9d
-----BEGIN CERTIFICATE-----
MIICLTCCAdWgAwIBAgIJAItMsWIYc1/wMAkGByqGSM49BAEwSjELMAkGA1UEBhMC
YmUxEjAQBgNVBAoMCWt1bnN0bWFhbjEMMAoGA1UECwwDb3JnMRkwFwYDVQQDDBBv
cmcua3Vuc3RtYWFuLmJlMB4XDTE4MDIyNzE3MDAwOVoXDTI4MDIyNTE3MDAwOVow
UjELMAkGA1UEBhMCYmUxEjAQBgNVBAoMCWt1bnN0bWFhbjEMMAoGA1UECwwDb3Jn
MSEwHwYDVQQDDBhvcmRlcmVyLm9yZy5rdW5zdG1hYW4uYmUwWTATBgcqhkjOPQIB
BggqhkjOPQMBBwNCAARB498NF9e7SC+M05TiWP7tTuRzf6zkg3lXCh7DQm7ztgzP
ujgIXTkK6MNaybR59yeBgZMc+xVAVzeZQ0nLzGG2o4GcMIGZMBoGCCoDBAUGBwgB
BA4MDHsiYXR0cnMiOnt9fTAfBgNVHSMEGDAWgBSJnpjCnJq/8PBOkxPP2ZAiEMtf
+jAMBgNVHRMBAf8EAjAAMB0GA1UdDgQWBBRT9fnDFnWI37LHoYiGvAU42PgZxjAO
BgNVHQ8BAf8EBAMCBaAwHQYDVR0lBBYwFAYIKwYBBQUHAwEGCCsGAQUFBwMCMAkG
ByqGSM49BAEDRwAwRAIgEMeqP0dpXy+vjsw2pIV9v7Q/2EkMDuRRjw2C4zcZ5IUC
IGwqWmBXROcEcQ0JrDBhrzcT1j66WoB41XdCtY0+2ied
-----END CERTIFICATE-----
