Certificate:
    Data:
        Version: 3 (0x2)
        Serial Number:
            bf:d9:6f:61:6b:42:ec:60
        Signature Algorithm: ecdsa-with-SHA1
        Issuer: CN=kunstmaan.be, OU=tlsca, C=be, O=kunstmaan
        Validity
            Not Before: Feb 14 16:06:52 2018 GMT
            Not After : Feb 12 16:06:52 2028 GMT
        Subject: C=be, O=kunstmaan, OU=orderer, CN=orderer.kunstmaan.be
        Subject Public Key Info:
            Public Key Algorithm: id-ecPublicKey
            EC Public Key:
                pub: 
                    04:e5:78:a7:cf:33:a6:20:47:50:57:77:0d:f6:22:
                    95:49:a7:7d:46:8c:ae:19:79:49:84:ae:62:c2:bc:
                    f4:76:d8:b9:d4:f6:1a:5f:24:ad:1a:36:53:05:4e:
                    80:7c:4d:a1:17:08:9e:14:77:c9:56:28:27:f9:af:
                    5c:94:49:04:88
                ASN1 OID: prime256v1
        X509v3 extensions:
            1.2.3.4.5.6.7.8.1: 
                ..{"attrs":{}}
            X509v3 Authority Key Identifier: 
                keyid:FB:41:45:09:28:B4:C3:36:94:8F:FC:C5:CF:19:AF:BD:EE:B8:27:90

            X509v3 Basic Constraints: critical
                CA:FALSE
            X509v3 Subject Key Identifier: 
                54:35:15:46:19:6B:B0:D6:19:CB:E1:C4:E8:7A:7F:AE:BB:E2:A2:D9
            X509v3 Key Usage: critical
                Digital Signature, Key Encipherment
            X509v3 Extended Key Usage: 
                TLS Web Server Authentication, TLS Web Client Authentication
    Signature Algorithm: ecdsa-with-SHA1
        30:45:02:20:1f:a6:ab:84:47:16:5f:89:ab:7b:2c:3a:97:62:
        b2:6a:ac:9a:7f:3d:ac:06:26:30:7c:21:d0:eb:11:01:6f:92:
        02:21:00:bb:84:8f:26:f9:d7:0a:de:a0:0a:36:cd:93:3f:2e:
        9e:5a:d9:a3:9a:7d:76:fb:3f:f3:64:6d:b5:28:62:49:4a
-----BEGIN CERTIFICATE-----
MIICLDCCAdOgAwIBAgIJAL/Zb2FrQuxgMAkGByqGSM49BAEwSDEVMBMGA1UEAwwM
a3Vuc3RtYWFuLmJlMQ4wDAYDVQQLDAV0bHNjYTELMAkGA1UEBhMCYmUxEjAQBgNV
BAoMCWt1bnN0bWFhbjAeFw0xODAyMTQxNjA2NTJaFw0yODAyMTIxNjA2NTJaMFIx
CzAJBgNVBAYTAmJlMRIwEAYDVQQKDAlrdW5zdG1hYW4xEDAOBgNVBAsMB29yZGVy
ZXIxHTAbBgNVBAMMFG9yZGVyZXIua3Vuc3RtYWFuLmJlMFkwEwYHKoZIzj0CAQYI
KoZIzj0DAQcDQgAE5XinzzOmIEdQV3cN9iKVSad9RoyuGXlJhK5iwrz0dti51PYa
XyStGjZTBU6AfE2hFwieFHfJVign+a9clEkEiKOBnDCBmTAaBggqAwQFBgcIAQQO
DAx7ImF0dHJzIjp7fX0wHwYDVR0jBBgwFoAU+0FFCSi0wzaUj/zFzxmvve64J5Aw
DAYDVR0TAQH/BAIwADAdBgNVHQ4EFgQUVDUVRhlrsNYZy+HE6Hp/rrviotkwDgYD
VR0PAQH/BAQDAgWgMB0GA1UdJQQWMBQGCCsGAQUFBwMBBggrBgEFBQcDAjAJBgcq
hkjOPQQBA0gAMEUCIB+mq4RHFl+Jq3ssOpdismqsmn89rAYmMHwh0OsRAW+SAiEA
u4SPJvnXCt6gCjbNkz8unlrZo5p9dvs/82RttShiSUo=
-----END CERTIFICATE-----
