Certificate:
    Data:
        Version: 3 (0x2)
        Serial Number:
            fb:04:38:4a:0b:b4:2f:9a
    Signature Algorithm: ecdsa-with-SHA256
        Issuer: C=be, O=kunstmaan, OU=auth, CN=auth.kunstmaan.be
        Validity
            Not Before: Feb 28 10:12:56 2018 GMT
            Not After : Feb 26 10:12:56 2028 GMT
        Subject: C=be, O=kunstmaan, OU=auth, CN=admin-auth.auth.kunstmaan.be
        Subject Public Key Info:
            Public Key Algorithm: id-ecPublicKey
                Public-Key: (256 bit)
                pub: 
                    04:7a:36:25:c3:51:d0:af:18:27:72:1a:f8:f2:4f:
                    77:4e:df:96:e0:a8:7d:1b:8b:14:dc:0e:d3:a5:4f:
                    f1:89:02:cf:23:ed:b1:7a:ce:23:c9:16:53:d8:d5:
                    b3:ce:03:d5:4e:76:d5:fd:c1:94:c9:71:51:65:44:
                    c9:86:c1:f0:1b
                ASN1 OID: prime256v1
                NIST CURVE: P-256
        X509v3 extensions:
            1.2.3.4.5.6.7.8.1: 
                ..{"attrs":{}}
            X509v3 Authority Key Identifier: 
                keyid:26:13:21:A8:F5:D7:53:4D:99:52:9D:4C:C0:71:9C:FF:33:ED:03:87

            X509v3 Basic Constraints: critical
                CA:FALSE
            X509v3 Subject Key Identifier: 
                DD:D8:CC:E8:9D:C8:E8:47:1B:8F:23:08:C5:B1:E7:FC:09:8B:61:93
            X509v3 Key Usage: critical
                Digital Signature, Key Encipherment
            X509v3 Extended Key Usage: 
                TLS Web Server Authentication, TLS Web Client Authentication
    Signature Algorithm: ecdsa-with-SHA256
         30:45:02:20:6d:bc:21:b4:11:0b:8c:0e:b6:ef:42:4b:76:f2:
         70:bd:1a:cf:22:ec:ae:48:7f:2b:f5:a2:4c:f7:be:f8:0e:bb:
         02:21:00:b6:9b:f4:7b:40:37:91:76:fe:17:30:37:88:c0:ec:
         eb:cc:ac:f6:99:85:2a:10:c8:6b:eb:f0:c3:84:dc:7e:f5
-----BEGIN CERTIFICATE-----
MIICNzCCAd2gAwIBAgIJAPsEOEoLtC+aMAoGCCqGSM49BAMCMEwxCzAJBgNVBAYT
AmJlMRIwEAYDVQQKDAlrdW5zdG1hYW4xDTALBgNVBAsMBGF1dGgxGjAYBgNVBAMM
EWF1dGgua3Vuc3RtYWFuLmJlMB4XDTE4MDIyODEwMTI1NloXDTI4MDIyNjEwMTI1
NlowVzELMAkGA1UEBhMCYmUxEjAQBgNVBAoMCWt1bnN0bWFhbjENMAsGA1UECwwE
YXV0aDElMCMGA1UEAwwcYWRtaW4tYXV0aC5hdXRoLmt1bnN0bWFhbi5iZTBZMBMG
ByqGSM49AgEGCCqGSM49AwEHA0IABHo2JcNR0K8YJ3Ia+PJPd07fluCofRuLFNwO
06VP8YkCzyPtsXrOI8kWU9jVs84D1U521f3BlMlxUWVEyYbB8BujgZwwgZkwGgYI
KgMEBQYHCAEEDgwMeyJhdHRycyI6e319MB8GA1UdIwQYMBaAFCYTIaj111NNmVKd
TMBxnP8z7QOHMAwGA1UdEwEB/wQCMAAwHQYDVR0OBBYEFN3YzOidyOhHG48jCMWx
5/wJi2GTMA4GA1UdDwEB/wQEAwIFoDAdBgNVHSUEFjAUBggrBgEFBQcDAQYIKwYB
BQUHAwIwCgYIKoZIzj0EAwIDSAAwRQIgbbwhtBELjA6270JLdvJwvRrPIuyuSH8r
9aJM9774DrsCIQC2m/R7QDeRdv4XMDeIwOzrzKz2mYUqEMhr6/DDhNx+9Q==
-----END CERTIFICATE-----
