Certificate:
    Data:
        Version: 3 (0x2)
        Serial Number:
            aa:01:44:77:6c:06:d2:3d
        Signature Algorithm: ecdsa-with-SHA1
        Issuer: C=be, O=kunstmaan, OU=auth, CN=auth.kunstmaan.be
        Validity
            Not Before: Feb 27 17:00:13 2018 GMT
            Not After : Feb 25 17:00:13 2028 GMT
        Subject: C=be, O=kunstmaan, OU=auth, CN=admin-auth.auth.kunstmaan.be
        Subject Public Key Info:
            Public Key Algorithm: id-ecPublicKey
            EC Public Key:
                pub: 
                    04:f8:bb:20:ea:9a:96:d2:3a:a1:74:5c:1d:a6:b7:
                    ff:1a:35:ce:d5:2c:d9:93:34:55:b9:0c:cb:46:a9:
                    46:6c:0a:3d:49:ce:5e:78:47:cd:49:39:68:39:92:
                    d1:dd:71:21:b7:6e:46:9f:36:b7:6c:3e:fd:2f:a8:
                    79:07:55:8e:b6
                ASN1 OID: prime256v1
        X509v3 extensions:
            1.2.3.4.5.6.7.8.1: 
                ..{"attrs":{}}
            X509v3 Authority Key Identifier: 
                keyid:80:63:DD:37:12:8B:E5:B9:3A:BD:96:0D:EC:EE:BF:E3:2C:66:0B:12

            X509v3 Basic Constraints: critical
                CA:FALSE
            X509v3 Subject Key Identifier: 
                7B:2B:36:EE:2E:E6:76:19:34:74:46:2C:04:4E:71:00:78:40:58:33
            X509v3 Key Usage: critical
                Digital Signature, Key Encipherment
            X509v3 Extended Key Usage: 
                TLS Web Server Authentication, TLS Web Client Authentication
    Signature Algorithm: ecdsa-with-SHA1
        30:44:02:20:70:81:fb:27:a9:f9:85:95:7c:6e:f9:66:49:4d:
        ba:f6:5b:b9:de:40:a5:e0:59:34:2e:03:e6:b2:01:0c:90:bb:
        02:20:2a:76:f1:fe:9d:bf:9f:3d:e0:d3:c4:9f:46:e8:e6:63:
        a3:22:ac:e3:b0:ad:d3:e0:1f:fb:9b:bf:c5:99:66:2d
-----BEGIN CERTIFICATE-----
MIICNDCCAdygAwIBAgIJAKoBRHdsBtI9MAkGByqGSM49BAEwTDELMAkGA1UEBhMC
YmUxEjAQBgNVBAoMCWt1bnN0bWFhbjENMAsGA1UECwwEYXV0aDEaMBgGA1UEAwwR
YXV0aC5rdW5zdG1hYW4uYmUwHhcNMTgwMjI3MTcwMDEzWhcNMjgwMjI1MTcwMDEz
WjBXMQswCQYDVQQGEwJiZTESMBAGA1UECgwJa3Vuc3RtYWFuMQ0wCwYDVQQLDARh
dXRoMSUwIwYDVQQDDBxhZG1pbi1hdXRoLmF1dGgua3Vuc3RtYWFuLmJlMFkwEwYH
KoZIzj0CAQYIKoZIzj0DAQcDQgAE+Lsg6pqW0jqhdFwdprf/GjXO1SzZkzRVuQzL
RqlGbAo9Sc5eeEfNSTloOZLR3XEht25Gnza3bD79L6h5B1WOtqOBnDCBmTAaBggq
AwQFBgcIAQQODAx7ImF0dHJzIjp7fX0wHwYDVR0jBBgwFoAUgGPdNxKL5bk6vZYN
7O6/4yxmCxIwDAYDVR0TAQH/BAIwADAdBgNVHQ4EFgQUeys27i7mdhk0dEYsBE5x
AHhAWDMwDgYDVR0PAQH/BAQDAgWgMB0GA1UdJQQWMBQGCCsGAQUFBwMBBggrBgEF
BQcDAjAJBgcqhkjOPQQBA0cAMEQCIHCB+yep+YWVfG75ZklNuvZbud5ApeBZNC4D
5rIBDJC7AiAqdvH+nb+fPeDTxJ9G6OZjoyKs47Ct0+Af+5u/xZlmLQ==
-----END CERTIFICATE-----
