Certificate:
    Data:
        Version: 3 (0x2)
        Serial Number:
            9d:44:3b:2e:08:9e:ac:75
    Signature Algorithm: ecdsa-with-SHA256
        Issuer: C=be, O=kunstmaan, OU=auth, CN=auth.kunstmaan.be
        Validity
            Not Before: Feb 28 10:00:22 2018 GMT
            Not After : Feb 26 10:00:22 2028 GMT
        Subject: C=be, O=kunstmaan, OU=auth, CN=admin-auth.auth.kunstmaan.be
        Subject Public Key Info:
            Public Key Algorithm: id-ecPublicKey
                Public-Key: (256 bit)
                pub: 
                    04:d1:30:4c:2b:c7:cd:e2:95:d8:dd:bc:b3:4a:26:
                    56:3d:55:b8:57:77:a5:80:0d:27:21:12:ab:09:31:
                    8a:5a:69:2b:9e:b7:c6:6f:8e:10:f8:c9:de:e0:dc:
                    83:0e:ba:f3:47:04:d7:33:ff:c0:a9:95:99:ed:db:
                    be:15:e8:19:a7
                ASN1 OID: prime256v1
                NIST CURVE: P-256
        X509v3 extensions:
            1.2.3.4.5.6.7.8.1: 
                ..{"attrs":{}}
            X509v3 Authority Key Identifier: 
                keyid:1C:18:8D:F4:04:3A:E9:E5:E6:E1:BD:36:5D:40:98:41:20:AC:6D:FD

            X509v3 Basic Constraints: critical
                CA:FALSE
            X509v3 Subject Key Identifier: 
                85:86:9E:53:E0:C8:52:E9:4E:A9:AB:BB:15:0E:7E:5E:4C:E7:50:CC
            X509v3 Key Usage: critical
                Digital Signature, Key Encipherment
            X509v3 Extended Key Usage: 
                TLS Web Server Authentication, TLS Web Client Authentication
    Signature Algorithm: ecdsa-with-SHA256
         30:45:02:20:3c:bc:97:22:a4:7b:31:b0:bb:25:b5:6e:b0:5d:
         b2:14:21:ff:07:c0:ce:a6:17:2a:7a:63:a2:41:f1:ca:db:0e:
         02:21:00:9b:1e:99:04:98:67:03:65:22:0f:32:87:27:01:84:
         ea:3b:bc:9f:02:61:54:89:ca:e2:b5:88:bf:b7:8e:d3:f0
-----BEGIN CERTIFICATE-----
MIICNzCCAd2gAwIBAgIJAJ1EOy4Inqx1MAoGCCqGSM49BAMCMEwxCzAJBgNVBAYT
AmJlMRIwEAYDVQQKDAlrdW5zdG1hYW4xDTALBgNVBAsMBGF1dGgxGjAYBgNVBAMM
EWF1dGgua3Vuc3RtYWFuLmJlMB4XDTE4MDIyODEwMDAyMloXDTI4MDIyNjEwMDAy
MlowVzELMAkGA1UEBhMCYmUxEjAQBgNVBAoMCWt1bnN0bWFhbjENMAsGA1UECwwE
YXV0aDElMCMGA1UEAwwcYWRtaW4tYXV0aC5hdXRoLmt1bnN0bWFhbi5iZTBZMBMG
ByqGSM49AgEGCCqGSM49AwEHA0IABNEwTCvHzeKV2N28s0omVj1VuFd3pYANJyES
qwkxilppK563xm+OEPjJ3uDcgw6680cE1zP/wKmVme3bvhXoGaejgZwwgZkwGgYI
KgMEBQYHCAEEDgwMeyJhdHRycyI6e319MB8GA1UdIwQYMBaAFBwYjfQEOunl5uG9
Nl1AmEEgrG39MAwGA1UdEwEB/wQCMAAwHQYDVR0OBBYEFIWGnlPgyFLpTqmruxUO
fl5M51DMMA4GA1UdDwEB/wQEAwIFoDAdBgNVHSUEFjAUBggrBgEFBQcDAQYIKwYB
BQUHAwIwCgYIKoZIzj0EAwIDSAAwRQIgPLyXIqR7MbC7JbVusF2yFCH/B8DOphcq
emOiQfHK2w4CIQCbHpkEmGcDZSIPMocnAYTqO7yfAmFUicritYi/t47T8A==
-----END CERTIFICATE-----
