Certificate:
    Data:
        Version: 3 (0x2)
        Serial Number:
            ab:d3:1c:4a:cc:85:1d:4f
        Signature Algorithm: ecdsa-with-SHA1
        Issuer: C=be, O=kunstmaan, OU=auth, CN=auth.kunstmaan.be
        Validity
            Not Before: Feb 14 16:06:55 2018 GMT
            Not After : Feb 12 16:06:55 2028 GMT
        Subject: C=be, O=kunstmaan, OU=auth, CN=admin-auth.auth.kunstmaan.be
        Subject Public Key Info:
            Public Key Algorithm: id-ecPublicKey
            EC Public Key:
                pub: 
                    04:b5:af:e6:30:43:a3:15:7c:2c:16:92:54:cf:e6:
                    54:60:13:93:61:3c:19:fb:1c:94:ca:13:38:ff:36:
                    b7:d5:5e:33:fb:8a:02:65:d3:dc:b9:06:16:c9:e4:
                    9b:14:8c:08:86:51:20:27:2c:0f:cb:f1:79:da:3c:
                    d5:59:92:c6:5f
                ASN1 OID: prime256v1
        X509v3 extensions:
            1.2.3.4.5.6.7.8.1: 
                ..{"attrs":{}}
            X509v3 Authority Key Identifier: 
                keyid:23:09:54:6B:09:73:09:3D:45:BA:47:F5:EA:FB:F9:D6:A5:F0:8D:B7

            X509v3 Basic Constraints: critical
                CA:FALSE
            X509v3 Subject Key Identifier: 
                0F:37:C4:00:BE:0D:51:14:12:93:F9:2B:C5:E4:4F:FE:B0:D1:FC:B3
            X509v3 Key Usage: critical
                Digital Signature, Key Encipherment
            X509v3 Extended Key Usage: 
                TLS Web Server Authentication, TLS Web Client Authentication
    Signature Algorithm: ecdsa-with-SHA1
        30:45:02:20:52:49:a6:5a:b1:62:89:2b:6e:05:03:b6:dd:cd:
        bd:5d:c3:b6:a2:c8:49:f3:ae:1d:6f:ce:96:e9:89:b3:e4:32:
        02:21:00:ed:a6:bd:08:e0:49:ee:b9:c4:21:fc:21:95:52:7e:
        f2:23:21:18:bc:31:fd:7a:9c:aa:f8:a6:90:04:29:8c:33
-----BEGIN CERTIFICATE-----
MIICNTCCAdygAwIBAgIJAKvTHErMhR1PMAkGByqGSM49BAEwTDELMAkGA1UEBhMC
YmUxEjAQBgNVBAoMCWt1bnN0bWFhbjENMAsGA1UECwwEYXV0aDEaMBgGA1UEAwwR
YXV0aC5rdW5zdG1hYW4uYmUwHhcNMTgwMjE0MTYwNjU1WhcNMjgwMjEyMTYwNjU1
WjBXMQswCQYDVQQGEwJiZTESMBAGA1UECgwJa3Vuc3RtYWFuMQ0wCwYDVQQLDARh
dXRoMSUwIwYDVQQDDBxhZG1pbi1hdXRoLmF1dGgua3Vuc3RtYWFuLmJlMFkwEwYH
KoZIzj0CAQYIKoZIzj0DAQcDQgAEta/mMEOjFXwsFpJUz+ZUYBOTYTwZ+xyUyhM4
/za31V4z+4oCZdPcuQYWyeSbFIwIhlEgJywPy/F52jzVWZLGX6OBnDCBmTAaBggq
AwQFBgcIAQQODAx7ImF0dHJzIjp7fX0wHwYDVR0jBBgwFoAUIwlUawlzCT1Fukf1
6vv51qXwjbcwDAYDVR0TAQH/BAIwADAdBgNVHQ4EFgQUDzfEAL4NURQSk/krxeRP
/rDR/LMwDgYDVR0PAQH/BAQDAgWgMB0GA1UdJQQWMBQGCCsGAQUFBwMBBggrBgEF
BQcDAjAJBgcqhkjOPQQBA0gAMEUCIFJJplqxYokrbgUDtt3NvV3DtqLISfOuHW/O
lumJs+QyAiEA7aa9COBJ7rnEIfwhlVJ+8iMhGLwx/XqcqvimkAQpjDM=
-----END CERTIFICATE-----
