Certificate:
    Data:
        Version: 3 (0x2)
        Serial Number:
            d5:d2:5d:c1:4b:05:6b:ec
    Signature Algorithm: ecdsa-with-SHA256
        Issuer: CN=kunstmaan.be, OU=ca, C=be, O=kunstmaan
        Validity
            Not Before: Feb 28 10:00:18 2018 GMT
            Not After : Feb 23 10:00:18 2038 GMT
        Subject: CN=kunstmaan.be, OU=ca, C=be, O=kunstmaan
        Subject Public Key Info:
            Public Key Algorithm: id-ecPublicKey
                Public-Key: (256 bit)
                pub: 
                    04:71:71:b5:92:68:ff:b5:77:76:c8:06:2c:dc:b8:
                    6f:ca:7f:b9:09:81:56:0d:3f:f7:01:09:7b:e0:4d:
                    20:e8:ac:a7:e2:f8:9e:b2:4f:3f:0f:89:df:bd:fb:
                    18:75:23:9c:b2:e3:5f:71:00:8f:af:4c:94:8d:b4:
                    fb:02:31:34:b0
                ASN1 OID: prime256v1
                NIST CURVE: P-256
        X509v3 extensions:
            X509v3 Subject Key Identifier: 
                FF:BF:2D:2F:F8:AB:7D:BE:D5:06:D2:71:53:11:5C:08:E0:74:58:1D
            X509v3 Basic Constraints: critical
                CA:TRUE
            X509v3 Key Usage: critical
                Digital Signature, Key Encipherment, Certificate Sign, CRL Sign
            X509v3 Extended Key Usage: 
                Any Extended Key Usage
    Signature Algorithm: ecdsa-with-SHA256
         30:45:02:20:7f:d1:b8:26:6b:86:b0:55:b9:aa:f5:55:c4:6d:
         97:c3:19:0a:1a:12:7c:75:74:46:a9:63:5b:91:e9:6b:ce:3a:
         02:21:00:f4:43:ac:15:02:b9:27:10:f9:9a:b2:e1:2b:ed:fd:
         64:03:e9:a4:87:90:c7:a7:a4:29:fd:62:27:38:6b:09:01
-----BEGIN CERTIFICATE-----
MIIB1DCCAXqgAwIBAgIJANXSXcFLBWvsMAoGCCqGSM49BAMCMEUxFTATBgNVBAMM
DGt1bnN0bWFhbi5iZTELMAkGA1UECwwCY2ExCzAJBgNVBAYTAmJlMRIwEAYDVQQK
DAlrdW5zdG1hYW4wHhcNMTgwMjI4MTAwMDE4WhcNMzgwMjIzMTAwMDE4WjBFMRUw
EwYDVQQDDAxrdW5zdG1hYW4uYmUxCzAJBgNVBAsMAmNhMQswCQYDVQQGEwJiZTES
MBAGA1UECgwJa3Vuc3RtYWFuMFkwEwYHKoZIzj0CAQYIKoZIzj0DAQcDQgAEcXG1
kmj/tXd2yAYs3Lhvyn+5CYFWDT/3AQl74E0g6Kyn4viesk8/D4nfvfsYdSOcsuNf
cQCPr0yUjbT7AjE0sKNTMFEwHQYDVR0OBBYEFP+/LS/4q32+1QbScVMRXAjgdFgd
MA8GA1UdEwEB/wQFMAMBAf8wDgYDVR0PAQH/BAQDAgGmMA8GA1UdJQQIMAYGBFUd
JQAwCgYIKoZIzj0EAwIDSAAwRQIgf9G4JmuGsFW5qvVVxG2XwxkKGhJ8dXRGqWNb
kelrzjoCIQD0Q6wVArknEPmasuEr7f1kA+mkh5DHp6Qp/WInOGsJAQ==
-----END CERTIFICATE-----
Certificate:
    Data:
        Version: 3 (0x2)
        Serial Number:
            e3:f6:7e:20:98:d5:c6:ff
    Signature Algorithm: ecdsa-with-SHA256
        Issuer: CN=kunstmaan.be, OU=ca, C=be, O=kunstmaan
        Validity
            Not Before: Feb 28 10:00:21 2018 GMT
            Not After : Feb 26 10:00:21 2028 GMT
        Subject: C=be, O=kunstmaan, OU=auth, CN=auth.kunstmaan.be
        Subject Public Key Info:
            Public Key Algorithm: id-ecPublicKey
                Public-Key: (256 bit)
                pub: 
                    04:5e:0a:5c:a1:90:a9:90:11:bf:86:02:9a:ce:5d:
                    c8:08:4c:76:59:3f:bb:3c:e6:60:f6:65:c9:31:c1:
                    4d:81:19:e2:ed:7d:2e:70:6b:f4:0b:7f:80:82:89:
                    d5:fc:90:a8:a0:ea:c5:13:49:9e:79:b6:ce:5e:4b:
                    e8:cc:47:9e:a0
                ASN1 OID: prime256v1
                NIST CURVE: P-256
        X509v3 extensions:
            1.2.3.4.5.6.7.8.1: 
                ..{"attrs":{}}
            X509v3 Authority Key Identifier: 
                keyid:FF:BF:2D:2F:F8:AB:7D:BE:D5:06:D2:71:53:11:5C:08:E0:74:58:1D

            X509v3 Basic Constraints: critical
                CA:TRUE
            X509v3 Subject Key Identifier: 
                4F:07:11:85:0F:5E:2C:C2:9E:49:87:6E:A2:7B:D6:CD:49:52:17:F9
            X509v3 Extended Key Usage: 
                Any Extended Key Usage
            X509v3 Key Usage: critical
                Digital Signature, Key Encipherment, Certificate Sign, CRL Sign
    Signature Algorithm: ecdsa-with-SHA256
         30:46:02:21:00:d6:20:f5:3b:28:4b:a5:51:17:4a:ee:ee:80:
         f3:5b:4a:e4:ca:52:ec:b5:7d:18:b1:ec:7e:23:bb:33:68:b5:
         61:02:21:00:9b:95:43:8c:ab:16:7f:26:17:89:ea:8d:aa:c8:
         81:a1:28:11:07:31:79:6d:8e:0c:1f:d1:66:4f:31:87:06:ae
-----BEGIN CERTIFICATE-----
MIICGzCCAcCgAwIBAgIJAOP2fiCY1cb/MAoGCCqGSM49BAMCMEUxFTATBgNVBAMM
DGt1bnN0bWFhbi5iZTELMAkGA1UECwwCY2ExCzAJBgNVBAYTAmJlMRIwEAYDVQQK
DAlrdW5zdG1hYW4wHhcNMTgwMjI4MTAwMDIxWhcNMjgwMjI2MTAwMDIxWjBMMQsw
CQYDVQQGEwJiZTESMBAGA1UECgwJa3Vuc3RtYWFuMQ0wCwYDVQQLDARhdXRoMRow
GAYDVQQDDBFhdXRoLmt1bnN0bWFhbi5iZTBZMBMGByqGSM49AgEGCCqGSM49AwEH
A0IABF4KXKGQqZARv4YCms5dyAhMdlk/uzzmYPZlyTHBTYEZ4u19LnBr9At/gIKJ
1fyQqKDqxRNJnnm2zl5L6MxHnqCjgZEwgY4wGgYIKgMEBQYHCAEEDgwMeyJhdHRy
cyI6e319MB8GA1UdIwQYMBaAFP+/LS/4q32+1QbScVMRXAjgdFgdMA8GA1UdEwEB
/wQFMAMBAf8wHQYDVR0OBBYEFE8HEYUPXizCnkmHbqJ71s1JUhf5MA8GA1UdJQQI
MAYGBFUdJQAwDgYDVR0PAQH/BAQDAgGmMAoGCCqGSM49BAMCA0kAMEYCIQDWIPU7
KEulURdK7u6A81tK5MpS7LV9GLHsfiO7M2i1YQIhAJuVQ4yrFn8mF4nqjarIgaEo
EQcxeW2ODB/RZk8xhwau
-----END CERTIFICATE-----
Certificate:
    Data:
        Version: 3 (0x2)
        Serial Number:
            c0:70:03:ec:4f:dd:1b:5a
    Signature Algorithm: ecdsa-with-SHA256
        Issuer: C=be, O=kunstmaan, OU=auth, CN=auth.kunstmaan.be
        Validity
            Not Before: Feb 28 10:00:26 2018 GMT
            Not After : Feb 26 10:00:26 2028 GMT
        Subject: C=be, O=kunstmaan, OU=auth, CN=authpeer.auth.kunstmaan.be
        Subject Public Key Info:
            Public Key Algorithm: id-ecPublicKey
                Public-Key: (256 bit)
                pub: 
                    04:c4:da:2d:30:57:5d:d9:f1:4d:56:5a:96:61:07:
                    c9:32:88:e8:2d:1f:49:6f:44:76:6b:34:e0:04:3b:
                    52:60:9e:fd:8b:06:0d:6b:36:5f:c5:83:d6:19:64:
                    09:c4:85:5c:95:3f:25:db:bc:44:c2:65:18:8f:9d:
                    e5:af:78:42:f4
                ASN1 OID: prime256v1
                NIST CURVE: P-256
        X509v3 extensions:
            1.2.3.4.5.6.7.8.1: 
                ..{"attrs":{}}
            X509v3 Authority Key Identifier: 
                keyid:4F:07:11:85:0F:5E:2C:C2:9E:49:87:6E:A2:7B:D6:CD:49:52:17:F9

            X509v3 Basic Constraints: critical
                CA:FALSE
            X509v3 Subject Key Identifier: 
                E8:CC:84:F8:6A:E5:7D:B2:FF:5E:77:A7:86:3E:98:1F:13:28:A6:55
            X509v3 Key Usage: critical
                Digital Signature
    Signature Algorithm: ecdsa-with-SHA256
         30:44:02:20:02:9c:f3:80:74:f2:2c:23:ae:ff:b5:ad:4b:75:
         76:b9:05:c7:30:59:8c:e1:a8:a2:c4:34:57:a2:f8:a9:59:22:
         02:20:06:06:0a:ac:cb:7b:96:c3:5b:45:8b:63:69:c2:49:5d:
         61:9d:f0:50:8f:41:e5:27:02:8d:7c:56:32:3e:f2:91
-----BEGIN CERTIFICATE-----
MIICEzCCAbqgAwIBAgIJAMBwA+xP3RtaMAoGCCqGSM49BAMCMEwxCzAJBgNVBAYT
AmJlMRIwEAYDVQQKDAlrdW5zdG1hYW4xDTALBgNVBAsMBGF1dGgxGjAYBgNVBAMM
EWF1dGgua3Vuc3RtYWFuLmJlMB4XDTE4MDIyODEwMDAyNloXDTI4MDIyNjEwMDAy
NlowVTELMAkGA1UEBhMCYmUxEjAQBgNVBAoMCWt1bnN0bWFhbjENMAsGA1UECwwE
YXV0aDEjMCEGA1UEAwwaYXV0aHBlZXIuYXV0aC5rdW5zdG1hYW4uYmUwWTATBgcq
hkjOPQIBBggqhkjOPQMBBwNCAATE2i0wV13Z8U1WWpZhB8kyiOgtH0lvRHZrNOAE
O1Jgnv2LBg1rNl/Fg9YZZAnEhVyVPyXbvETCZRiPneWveEL0o3wwejAaBggqAwQF
BgcIAQQODAx7ImF0dHJzIjp7fX0wHwYDVR0jBBgwFoAUTwcRhQ9eLMKeSYduonvW
zUlSF/kwDAYDVR0TAQH/BAIwADAdBgNVHQ4EFgQU6MyE+GrlfbL/Xnenhj6YHxMo
plUwDgYDVR0PAQH/BAQDAgeAMAoGCCqGSM49BAMCA0cAMEQCIAKc84B08iwjrv+1
rUt1drkFxzBZjOGoosQ0V6L4qVkiAiAGBgqsy3uWw1tFi2NpwkldYZ3wUI9B5ScC
jXxWMj7ykQ==
-----END CERTIFICATE-----
