Certificate:
    Data:
        Version: 3 (0x2)
        Serial Number:
            cc:a1:93:a1:c3:77:e6:c7
        Signature Algorithm: ecdsa-with-SHA1
        Issuer: CN=kunstmaan.be, OU=ca, C=be, O=kunstmaan
        Validity
            Not Before: Feb 27 17:00:07 2018 GMT
            Not After : Feb 22 17:00:07 2038 GMT
        Subject: CN=kunstmaan.be, OU=ca, C=be, O=kunstmaan
        Subject Public Key Info:
            Public Key Algorithm: id-ecPublicKey
            EC Public Key:
                pub: 
                    04:5e:26:d8:79:c4:28:90:f4:f5:83:7d:5b:c3:c3:
                    18:df:9f:b2:14:fd:4d:01:c4:3c:bd:1c:47:38:44:
                    fa:d8:77:4c:ff:d9:91:14:23:74:0a:d9:f4:6b:ee:
                    b6:7d:cd:d3:2d:6b:0a:18:c2:67:22:f7:d5:80:1b:
                    b6:14:35:9e:6a
                ASN1 OID: prime256v1
        X509v3 extensions:
            X509v3 Subject Key Identifier: 
                36:DB:89:FC:56:3F:D3:96:CF:41:F0:4C:F0:DD:36:1E:C3:ED:2E:6A
            X509v3 Basic Constraints: critical
                CA:TRUE
            X509v3 Key Usage: critical
                Digital Signature, Key Encipherment, Certificate Sign, CRL Sign
            X509v3 Extended Key Usage: 
                2.5.29.37.0
    Signature Algorithm: ecdsa-with-SHA1
        30:44:02:20:5e:9d:c1:0f:5a:c6:2f:ab:08:78:d1:b8:ef:e3:
        bc:d1:ce:9c:b3:11:62:94:d8:15:d5:01:77:f9:a6:d4:5b:ff:
        02:20:5e:13:4c:5f:10:93:93:6a:67:4a:a7:5c:42:d7:1c:88:
        e2:32:a6:ab:86:b9:36:f3:4d:c1:c9:96:9d:52:5a:8a
-----BEGIN CERTIFICATE-----
MIIB0TCCAXmgAwIBAgIJAMyhk6HDd+bHMAkGByqGSM49BAEwRTEVMBMGA1UEAwwM
a3Vuc3RtYWFuLmJlMQswCQYDVQQLDAJjYTELMAkGA1UEBhMCYmUxEjAQBgNVBAoM
CWt1bnN0bWFhbjAeFw0xODAyMjcxNzAwMDdaFw0zODAyMjIxNzAwMDdaMEUxFTAT
BgNVBAMMDGt1bnN0bWFhbi5iZTELMAkGA1UECwwCY2ExCzAJBgNVBAYTAmJlMRIw
EAYDVQQKDAlrdW5zdG1hYW4wWTATBgcqhkjOPQIBBggqhkjOPQMBBwNCAAReJth5
xCiQ9PWDfVvDwxjfn7IU/U0BxDy9HEc4RPrYd0z/2ZEUI3QK2fRr7rZ9zdMtawoY
wmci99WAG7YUNZ5qo1MwUTAdBgNVHQ4EFgQUNtuJ/FY/05bPQfBM8N02HsPtLmow
DwYDVR0TAQH/BAUwAwEB/zAOBgNVHQ8BAf8EBAMCAaYwDwYDVR0lBAgwBgYEVR0l
ADAJBgcqhkjOPQQBA0cAMEQCIF6dwQ9axi+rCHjRuO/jvNHOnLMRYpTYFdUBd/mm
1Fv/AiBeE0xfEJOTamdKp1xC1xyI4jKmq4a5NvNNwcmWnVJaig==
-----END CERTIFICATE-----
Certificate:
    Data:
        Version: 3 (0x2)
        Serial Number:
            b5:d0:f7:45:f9:7f:a9:15
        Signature Algorithm: ecdsa-with-SHA1
        Issuer: CN=kunstmaan.be, OU=ca, C=be, O=kunstmaan
        Validity
            Not Before: Feb 27 17:00:11 2018 GMT
            Not After : Feb 25 17:00:11 2028 GMT
        Subject: C=be, O=kunstmaan, OU=auth, CN=auth.kunstmaan.be
        Subject Public Key Info:
            Public Key Algorithm: id-ecPublicKey
            EC Public Key:
                pub: 
                    04:8b:d9:09:b7:f5:c9:79:90:2a:21:d8:a1:4e:08:
                    76:68:90:c8:a1:21:bf:16:74:f9:48:8b:8a:95:19:
                    89:40:c7:71:cd:a1:80:fc:87:17:58:fd:4b:37:80:
                    21:83:08:e8:a1:d6:75:1a:79:21:35:92:1e:e1:ef:
                    bc:e6:89:3e:bf
                ASN1 OID: prime256v1
        X509v3 extensions:
            1.2.3.4.5.6.7.8.1: 
                ..{"attrs":{}}
            X509v3 Authority Key Identifier: 
                keyid:36:DB:89:FC:56:3F:D3:96:CF:41:F0:4C:F0:DD:36:1E:C3:ED:2E:6A

            X509v3 Basic Constraints: critical
                CA:TRUE
            X509v3 Subject Key Identifier: 
                6F:AD:99:6F:D6:A2:4F:17:3A:06:FC:48:B8:1E:62:FA:5A:7D:84:05
            X509v3 Extended Key Usage: 
                2.5.29.37.0
            X509v3 Key Usage: critical
                Digital Signature, Key Encipherment, Certificate Sign, CRL Sign
    Signature Algorithm: ecdsa-with-SHA1
        30:45:02:20:0d:51:c4:c3:f3:58:f4:4b:a0:80:2d:40:f6:67:
        99:03:22:5c:e2:8f:06:17:df:a9:66:0f:cd:13:1d:5b:3e:a8:
        02:21:00:8c:64:65:5c:ad:92:cb:22:94:b5:3d:47:72:de:c1:
        44:11:5a:88:6a:78:7d:2f:06:84:4a:08:42:7c:61:8e:49
-----BEGIN CERTIFICATE-----
MIICGDCCAb+gAwIBAgIJALXQ90X5f6kVMAkGByqGSM49BAEwRTEVMBMGA1UEAwwM
a3Vuc3RtYWFuLmJlMQswCQYDVQQLDAJjYTELMAkGA1UEBhMCYmUxEjAQBgNVBAoM
CWt1bnN0bWFhbjAeFw0xODAyMjcxNzAwMTFaFw0yODAyMjUxNzAwMTFaMEwxCzAJ
BgNVBAYTAmJlMRIwEAYDVQQKDAlrdW5zdG1hYW4xDTALBgNVBAsMBGF1dGgxGjAY
BgNVBAMMEWF1dGgua3Vuc3RtYWFuLmJlMFkwEwYHKoZIzj0CAQYIKoZIzj0DAQcD
QgAEi9kJt/XJeZAqIdihTgh2aJDIoSG/FnT5SIuKlRmJQMdxzaGA/IcXWP1LN4Ah
gwjoodZ1GnkhNZIe4e+85ok+v6OBkTCBjjAaBggqAwQFBgcIAQQODAx7ImF0dHJz
Ijp7fX0wHwYDVR0jBBgwFoAUNtuJ/FY/05bPQfBM8N02HsPtLmowDwYDVR0TAQH/
BAUwAwEB/zAdBgNVHQ4EFgQUb62Zb9aiTxc6BvxIuB5i+lp9hAUwDwYDVR0lBAgw
BgYEVR0lADAOBgNVHQ8BAf8EBAMCAaYwCQYHKoZIzj0EAQNIADBFAiANUcTD81j0
S6CALUD2Z5kDIlzijwYX36lmD80THVs+qAIhAIxkZVytkssilLU9R3LewUQRWohq
eH0vBoRKCEJ8YY5J
-----END CERTIFICATE-----
Certificate:
    Data:
        Version: 3 (0x2)
        Serial Number:
            d9:42:0d:cf:bd:34:fb:35
        Signature Algorithm: ecdsa-with-SHA1
        Issuer: C=be, O=kunstmaan, OU=auth, CN=auth.kunstmaan.be
        Validity
            Not Before: Feb 27 17:00:18 2018 GMT
            Not After : Feb 25 17:00:18 2028 GMT
        Subject: C=be, O=kunstmaan, OU=auth, CN=authpeer.auth.kunstmaan.be
        Subject Public Key Info:
            Public Key Algorithm: id-ecPublicKey
            EC Public Key:
                pub: 
                    04:bd:4d:4e:6b:dd:cc:64:13:a3:aa:98:73:17:48:
                    d2:4e:79:2a:db:a5:51:6e:71:f0:d0:13:f1:f0:c5:
                    57:57:fd:30:1b:42:f0:c2:28:19:a1:34:85:2c:b4:
                    fa:22:42:83:fc:a9:42:1c:ae:fa:27:b1:05:f8:e9:
                    cd:7c:de:da:5a
                ASN1 OID: prime256v1
        X509v3 extensions:
            1.2.3.4.5.6.7.8.1: 
                ..{"attrs":{}}
            X509v3 Authority Key Identifier: 
                keyid:6F:AD:99:6F:D6:A2:4F:17:3A:06:FC:48:B8:1E:62:FA:5A:7D:84:05

            X509v3 Basic Constraints: critical
                CA:FALSE
            X509v3 Subject Key Identifier: 
                DD:36:D8:63:B9:99:E4:66:76:92:3B:CE:08:96:4F:C3:4A:78:F7:9A
            X509v3 Key Usage: critical
                Digital Signature
    Signature Algorithm: ecdsa-with-SHA1
        30:45:02:21:00:bb:e1:05:17:b0:2f:1d:5c:6e:68:0c:65:1d:
        24:05:50:13:e2:b4:74:c5:5c:01:b8:51:e7:bc:23:ae:42:d8:
        47:02:20:39:87:6c:f7:40:13:69:79:a4:6a:d8:a8:a3:c0:c7:
        24:a2:31:e4:c9:48:44:3e:bf:38:7f:f0:6f:90:aa:16:70
-----BEGIN CERTIFICATE-----
MIICEjCCAbmgAwIBAgIJANlCDc+9NPs1MAkGByqGSM49BAEwTDELMAkGA1UEBhMC
YmUxEjAQBgNVBAoMCWt1bnN0bWFhbjENMAsGA1UECwwEYXV0aDEaMBgGA1UEAwwR
YXV0aC5rdW5zdG1hYW4uYmUwHhcNMTgwMjI3MTcwMDE4WhcNMjgwMjI1MTcwMDE4
WjBVMQswCQYDVQQGEwJiZTESMBAGA1UECgwJa3Vuc3RtYWFuMQ0wCwYDVQQLDARh
dXRoMSMwIQYDVQQDDBphdXRocGVlci5hdXRoLmt1bnN0bWFhbi5iZTBZMBMGByqG
SM49AgEGCCqGSM49AwEHA0IABL1NTmvdzGQTo6qYcxdI0k55KtulUW5x8NAT8fDF
V1f9MBtC8MIoGaE0hSy0+iJCg/ypQhyu+iexBfjpzXze2lqjfDB6MBoGCCoDBAUG
BwgBBA4MDHsiYXR0cnMiOnt9fTAfBgNVHSMEGDAWgBRvrZlv1qJPFzoG/Ei4HmL6
Wn2EBTAMBgNVHRMBAf8EAjAAMB0GA1UdDgQWBBTdNthjuZnkZnaSO84Ilk/DSnj3
mjAOBgNVHQ8BAf8EBAMCB4AwCQYHKoZIzj0EAQNIADBFAiEAu+EFF7AvHVxuaAxl
HSQFUBPitHTFXAG4Uee8I65C2EcCIDmHbPdAE2l5pGrYqKPAxySiMeTJSEQ+vzh/
8G+QqhZw
-----END CERTIFICATE-----
