Certificate:
    Data:
        Version: 3 (0x2)
        Serial Number:
            8c:f3:2a:69:f6:86:62:ed
    Signature Algorithm: ecdsa-with-SHA256
        Issuer: CN=kunstmaan.be, OU=ca, C=be, O=kunstmaan
        Validity
            Not Before: Feb 28 10:12:52 2018 GMT
            Not After : Feb 23 10:12:52 2038 GMT
        Subject: CN=kunstmaan.be, OU=ca, C=be, O=kunstmaan
        Subject Public Key Info:
            Public Key Algorithm: id-ecPublicKey
                Public-Key: (256 bit)
                pub: 
                    04:02:a1:be:09:b2:3d:b5:b8:a4:79:79:63:d5:72:
                    83:db:4d:e7:0a:15:ac:b5:43:b5:58:48:2e:a4:b1:
                    bd:b5:b5:97:4b:ca:7a:73:bd:58:3f:d9:7b:12:8e:
                    1f:71:9f:1e:51:f9:5d:a1:fd:42:c3:4b:39:f3:34:
                    80:3f:f0:3e:b7
                ASN1 OID: prime256v1
                NIST CURVE: P-256
        X509v3 extensions:
            X509v3 Subject Key Identifier: 
                5B:94:1B:FA:3D:97:08:38:D0:52:B7:C6:20:15:62:CB:C6:D1:D3:5D
            X509v3 Basic Constraints: critical
                CA:TRUE
            X509v3 Key Usage: critical
                Digital Signature, Key Encipherment, Certificate Sign, CRL Sign
            X509v3 Extended Key Usage: 
                Any Extended Key Usage
    Signature Algorithm: ecdsa-with-SHA256
         30:46:02:21:00:af:95:be:b4:d4:61:50:70:9b:3e:27:7a:b9:
         84:48:af:f0:09:1a:eb:a4:4f:6c:fc:49:bd:d0:67:bb:cd:fb:
         34:02:21:00:e2:10:b6:83:fd:30:d8:65:19:73:54:b6:fb:48:
         90:d6:55:fc:c6:bf:4b:24:ae:62:fd:fc:7e:36:c0:78:b6:b9
-----BEGIN CERTIFICATE-----
MIIB1TCCAXqgAwIBAgIJAIzzKmn2hmLtMAoGCCqGSM49BAMCMEUxFTATBgNVBAMM
DGt1bnN0bWFhbi5iZTELMAkGA1UECwwCY2ExCzAJBgNVBAYTAmJlMRIwEAYDVQQK
DAlrdW5zdG1hYW4wHhcNMTgwMjI4MTAxMjUyWhcNMzgwMjIzMTAxMjUyWjBFMRUw
EwYDVQQDDAxrdW5zdG1hYW4uYmUxCzAJBgNVBAsMAmNhMQswCQYDVQQGEwJiZTES
MBAGA1UECgwJa3Vuc3RtYWFuMFkwEwYHKoZIzj0CAQYIKoZIzj0DAQcDQgAEAqG+
CbI9tbikeXlj1XKD203nChWstUO1WEgupLG9tbWXS8p6c71YP9l7Eo4fcZ8eUfld
of1Cw0s58zSAP/A+t6NTMFEwHQYDVR0OBBYEFFuUG/o9lwg40FK3xiAVYsvG0dNd
MA8GA1UdEwEB/wQFMAMBAf8wDgYDVR0PAQH/BAQDAgGmMA8GA1UdJQQIMAYGBFUd
JQAwCgYIKoZIzj0EAwIDSQAwRgIhAK+VvrTUYVBwmz4nermESK/wCRrrpE9s/Em9
0Ge7zfs0AiEA4hC2g/0w2GUZc1S2+0iQ1lX8xr9LJK5i/fx+NsB4trk=
-----END CERTIFICATE-----
Certificate:
    Data:
        Version: 3 (0x2)
        Serial Number:
            e4:ba:d4:c7:8b:b8:72:18
    Signature Algorithm: ecdsa-with-SHA256
        Issuer: CN=kunstmaan.be, OU=ca, C=be, O=kunstmaan
        Validity
            Not Before: Feb 28 10:12:55 2018 GMT
            Not After : Feb 26 10:12:55 2028 GMT
        Subject: C=be, O=kunstmaan, OU=auth, CN=auth.kunstmaan.be
        Subject Public Key Info:
            Public Key Algorithm: id-ecPublicKey
                Public-Key: (256 bit)
                pub: 
                    04:76:c4:8f:86:6e:44:49:16:2a:30:1e:98:68:59:
                    36:0e:a1:4b:5c:53:7e:12:73:43:bb:0f:0b:d6:94:
                    f7:fc:f9:e6:23:59:85:85:81:38:57:7e:67:02:9c:
                    5b:ec:54:17:8b:1e:57:3e:97:fe:9f:54:0b:72:ec:
                    6a:14:88:c4:32
                ASN1 OID: prime256v1
                NIST CURVE: P-256
        X509v3 extensions:
            1.2.3.4.5.6.7.8.1: 
                ..{"attrs":{}}
            X509v3 Authority Key Identifier: 
                keyid:5B:94:1B:FA:3D:97:08:38:D0:52:B7:C6:20:15:62:CB:C6:D1:D3:5D

            X509v3 Basic Constraints: critical
                CA:TRUE
            X509v3 Subject Key Identifier: 
                26:13:21:A8:F5:D7:53:4D:99:52:9D:4C:C0:71:9C:FF:33:ED:03:87
            X509v3 Key Usage: critical
                Digital Signature, Key Encipherment, Certificate Sign, CRL Sign
            X509v3 Extended Key Usage: 
                TLS Web Server Authentication, TLS Web Client Authentication
    Signature Algorithm: ecdsa-with-SHA256
         30:45:02:20:4a:ed:0b:e7:b3:b9:db:9b:c5:df:3f:ba:2e:27:
         3c:2f:ea:15:93:fa:2c:3a:c9:2e:3c:72:93:7e:1f:ca:a5:ad:
         02:21:00:ea:63:42:da:c2:52:ac:e1:9c:51:10:aa:d7:f6:e3:
         08:0a:93:20:a9:a9:d9:97:46:20:65:93:33:7c:4a:e1:2f
-----BEGIN CERTIFICATE-----
MIICKDCCAc6gAwIBAgIJAOS61MeLuHIYMAoGCCqGSM49BAMCMEUxFTATBgNVBAMM
DGt1bnN0bWFhbi5iZTELMAkGA1UECwwCY2ExCzAJBgNVBAYTAmJlMRIwEAYDVQQK
DAlrdW5zdG1hYW4wHhcNMTgwMjI4MTAxMjU1WhcNMjgwMjI2MTAxMjU1WjBMMQsw
CQYDVQQGEwJiZTESMBAGA1UECgwJa3Vuc3RtYWFuMQ0wCwYDVQQLDARhdXRoMRow
GAYDVQQDDBFhdXRoLmt1bnN0bWFhbi5iZTBZMBMGByqGSM49AgEGCCqGSM49AwEH
A0IABHbEj4ZuREkWKjAemGhZNg6hS1xTfhJzQ7sPC9aU9/z55iNZhYWBOFd+ZwKc
W+xUF4seVz6X/p9UC3LsahSIxDKjgZ8wgZwwGgYIKgMEBQYHCAEEDgwMeyJhdHRy
cyI6e319MB8GA1UdIwQYMBaAFFuUG/o9lwg40FK3xiAVYsvG0dNdMA8GA1UdEwEB
/wQFMAMBAf8wHQYDVR0OBBYEFCYTIaj111NNmVKdTMBxnP8z7QOHMA4GA1UdDwEB
/wQEAwIBpjAdBgNVHSUEFjAUBggrBgEFBQcDAQYIKwYBBQUHAwIwCgYIKoZIzj0E
AwIDSAAwRQIgSu0L57O525vF3z+6Lic8L+oVk/osOskuPHKTfh/Kpa0CIQDqY0La
wlKs4ZxREKrX9uMICpMgqanZl0YgZZMzfErhLw==
-----END CERTIFICATE-----
Certificate:
    Data:
        Version: 3 (0x2)
        Serial Number:
            d3:71:8d:48:6b:49:aa:7e
    Signature Algorithm: ecdsa-with-SHA256
        Issuer: C=be, O=kunstmaan, OU=auth, CN=auth.kunstmaan.be
        Validity
            Not Before: Feb 28 10:13:01 2018 GMT
            Not After : Feb 26 10:13:01 2028 GMT
        Subject: C=be, O=kunstmaan, OU=auth, CN=authpeer.auth.kunstmaan.be
        Subject Public Key Info:
            Public Key Algorithm: id-ecPublicKey
                Public-Key: (256 bit)
                pub: 
                    04:a2:3f:d4:3d:25:cb:43:f0:9c:a5:a6:3d:59:dc:
                    fd:db:1d:a1:52:55:87:1c:d5:54:52:6c:60:a1:ab:
                    1a:8e:2a:b1:59:5c:9d:6a:6c:a0:e6:83:47:f4:5b:
                    9b:03:5d:5e:7a:b5:38:32:a2:1d:16:cb:be:ad:98:
                    b4:d5:ca:e8:30
                ASN1 OID: prime256v1
                NIST CURVE: P-256
        X509v3 extensions:
            1.2.3.4.5.6.7.8.1: 
                ..{"attrs":{}}
            X509v3 Authority Key Identifier: 
                keyid:26:13:21:A8:F5:D7:53:4D:99:52:9D:4C:C0:71:9C:FF:33:ED:03:87

            X509v3 Basic Constraints: critical
                CA:FALSE
            X509v3 Subject Key Identifier: 
                84:FA:F3:27:37:3C:C7:C7:9B:64:6F:7D:6A:F4:22:85:7F:ED:93:1E
            X509v3 Key Usage: critical
                Digital Signature, Key Encipherment
            X509v3 Extended Key Usage: 
                TLS Web Server Authentication, TLS Web Client Authentication
    Signature Algorithm: ecdsa-with-SHA256
         30:45:02:21:00:a1:b0:97:74:40:87:e4:e6:f4:39:01:2c:e3:
         32:54:0d:d6:ea:36:29:35:de:6e:8a:02:c1:18:93:8b:e0:d7:
         d3:02:20:1c:8a:83:27:c0:1e:94:19:93:d8:ba:6e:52:11:a5:
         74:f7:c3:63:09:27:fd:34:ab:f0:d3:24:ec:86:9c:6d:45
-----BEGIN CERTIFICATE-----
MIICNTCCAdugAwIBAgIJANNxjUhrSap+MAoGCCqGSM49BAMCMEwxCzAJBgNVBAYT
AmJlMRIwEAYDVQQKDAlrdW5zdG1hYW4xDTALBgNVBAsMBGF1dGgxGjAYBgNVBAMM
EWF1dGgua3Vuc3RtYWFuLmJlMB4XDTE4MDIyODEwMTMwMVoXDTI4MDIyNjEwMTMw
MVowVTELMAkGA1UEBhMCYmUxEjAQBgNVBAoMCWt1bnN0bWFhbjENMAsGA1UECwwE
YXV0aDEjMCEGA1UEAwwaYXV0aHBlZXIuYXV0aC5rdW5zdG1hYW4uYmUwWTATBgcq
hkjOPQIBBggqhkjOPQMBBwNCAASiP9Q9JctD8Jylpj1Z3P3bHaFSVYcc1VRSbGCh
qxqOKrFZXJ1qbKDmg0f0W5sDXV56tTgyoh0Wy76tmLTVyugwo4GcMIGZMBoGCCoD
BAUGBwgBBA4MDHsiYXR0cnMiOnt9fTAfBgNVHSMEGDAWgBQmEyGo9ddTTZlSnUzA
cZz/M+0DhzAMBgNVHRMBAf8EAjAAMB0GA1UdDgQWBBSE+vMnNzzHx5tkb31q9CKF
f+2THjAOBgNVHQ8BAf8EBAMCBaAwHQYDVR0lBBYwFAYIKwYBBQUHAwEGCCsGAQUF
BwMCMAoGCCqGSM49BAMCA0gAMEUCIQChsJd0QIfk5vQ5ASzjMlQN1uo2KTXebooC
wRiTi+DX0wIgHIqDJ8AelBmT2LpuUhGldPfDYwkn/TSr8NMk7IacbUU=
-----END CERTIFICATE-----
