Certificate:
    Data:
        Version: 3 (0x2)
        Serial Number:
            cc:44:73:bc:cb:8c:00:37
        Signature Algorithm: ecdsa-with-SHA1
        Issuer: CN=kunstmaan.be, OU=tlsca, C=be, O=kunstmaan
        Validity
            Not Before: Feb 14 16:06:50 2018 GMT
            Not After : Feb  9 16:06:50 2038 GMT
        Subject: CN=kunstmaan.be, OU=tlsca, C=be, O=kunstmaan
        Subject Public Key Info:
            Public Key Algorithm: id-ecPublicKey
            EC Public Key:
                pub: 
                    04:07:06:30:3b:7b:1e:6f:56:71:7c:a1:ea:18:37:
                    8c:45:4a:33:d4:fe:31:ae:88:09:a8:c9:e9:bb:c2:
                    33:f4:3c:52:c7:e5:8d:ce:78:a7:6e:30:cb:3a:0e:
                    44:01:6d:de:51:9a:3d:ac:74:f7:61:a5:a5:b9:0d:
                    d4:c2:99:eb:6a
                ASN1 OID: prime256v1
        X509v3 extensions:
            X509v3 Subject Key Identifier: 
                FB:41:45:09:28:B4:C3:36:94:8F:FC:C5:CF:19:AF:BD:EE:B8:27:90
            X509v3 Basic Constraints: critical
                CA:TRUE
            X509v3 Key Usage: critical
                Digital Signature, Key Encipherment, Certificate Sign, CRL Sign
            X509v3 Extended Key Usage: 
                2.5.29.37.0
    Signature Algorithm: ecdsa-with-SHA1
        30:45:02:20:0c:76:49:e0:65:f4:4b:db:c7:9e:b5:ce:cb:e0:
        04:38:18:b3:aa:5d:cb:65:88:48:94:a9:f1:fb:44:5b:14:34:
        02:21:00:97:c7:17:cf:bd:73:c9:5e:b9:02:8d:9b:28:fc:0b:
        69:42:59:d4:7a:05:47:7b:28:73:80:39:95:6e:13:91:9a
-----BEGIN CERTIFICATE-----
MIIB2DCCAX+gAwIBAgIJAMxEc7zLjAA3MAkGByqGSM49BAEwSDEVMBMGA1UEAwwM
a3Vuc3RtYWFuLmJlMQ4wDAYDVQQLDAV0bHNjYTELMAkGA1UEBhMCYmUxEjAQBgNV
BAoMCWt1bnN0bWFhbjAeFw0xODAyMTQxNjA2NTBaFw0zODAyMDkxNjA2NTBaMEgx
FTATBgNVBAMMDGt1bnN0bWFhbi5iZTEOMAwGA1UECwwFdGxzY2ExCzAJBgNVBAYT
AmJlMRIwEAYDVQQKDAlrdW5zdG1hYW4wWTATBgcqhkjOPQIBBggqhkjOPQMBBwNC
AAQHBjA7ex5vVnF8oeoYN4xFSjPU/jGuiAmoyem7wjP0PFLH5Y3OeKduMMs6DkQB
bd5Rmj2sdPdhpaW5DdTCmetqo1MwUTAdBgNVHQ4EFgQU+0FFCSi0wzaUj/zFzxmv
ve64J5AwDwYDVR0TAQH/BAUwAwEB/zAOBgNVHQ8BAf8EBAMCAaYwDwYDVR0lBAgw
BgYEVR0lADAJBgcqhkjOPQQBA0gAMEUCIAx2SeBl9Evbx561zsvgBDgYs6pdy2WI
SJSp8ftEWxQ0AiEAl8cXz71zyV65Ao2bKPwLaUJZ1HoFR3soc4A5lW4TkZo=
-----END CERTIFICATE-----
Certificate:
    Data:
        Version: 3 (0x2)
        Serial Number:
            e7:f6:c3:5d:e2:04:8d:73
        Signature Algorithm: ecdsa-with-SHA1
        Issuer: CN=kunstmaan.be, OU=tlsca, C=be, O=kunstmaan
        Validity
            Not Before: Feb 14 16:06:53 2018 GMT
            Not After : Feb 12 16:06:53 2028 GMT
        Subject: C=be, O=kunstmaan, OU=kumapeer, CN=kumapeer.kunstmaan.be
        Subject Public Key Info:
            Public Key Algorithm: id-ecPublicKey
            EC Public Key:
                pub: 
                    04:38:f6:b3:23:0e:19:fa:0a:1c:37:a8:ed:3b:9b:
                    b2:0e:d4:27:b6:14:b0:71:3b:8c:96:83:3a:2c:9a:
                    44:d4:79:6b:46:fb:8e:3d:fa:da:a0:ed:2d:2e:52:
                    e8:36:6a:3b:5e:6f:26:bf:cf:14:8c:71:e5:31:df:
                    94:75:f3:18:c4
                ASN1 OID: prime256v1
        X509v3 extensions:
            1.2.3.4.5.6.7.8.1: 
                ..{"attrs":{}}
            X509v3 Authority Key Identifier: 
                keyid:FB:41:45:09:28:B4:C3:36:94:8F:FC:C5:CF:19:AF:BD:EE:B8:27:90

            X509v3 Basic Constraints: critical
                CA:FALSE
            X509v3 Subject Key Identifier: 
                DB:0C:DF:66:74:F8:90:72:3B:D5:9E:9E:7E:FF:8F:C0:09:42:F1:E1
            X509v3 Key Usage: critical
                Digital Signature, Key Encipherment
            X509v3 Extended Key Usage: 
                TLS Web Server Authentication, TLS Web Client Authentication
    Signature Algorithm: ecdsa-with-SHA1
        30:45:02:21:00:92:c4:bb:9c:5c:60:9d:8a:f2:38:80:b4:66:
        24:19:98:ff:eb:29:13:d3:a8:ac:af:76:e8:b8:35:9f:dc:16:
        b8:02:20:33:43:ac:44:5e:9e:46:ee:25:93:77:61:9d:f8:86:
        ae:39:2d:04:f0:ff:8f:09:13:0f:45:6a:a2:30:6d:92:f8
-----BEGIN CERTIFICATE-----
MIICLjCCAdWgAwIBAgIJAOf2w13iBI1zMAkGByqGSM49BAEwSDEVMBMGA1UEAwwM
a3Vuc3RtYWFuLmJlMQ4wDAYDVQQLDAV0bHNjYTELMAkGA1UEBhMCYmUxEjAQBgNV
BAoMCWt1bnN0bWFhbjAeFw0xODAyMTQxNjA2NTNaFw0yODAyMTIxNjA2NTNaMFQx
CzAJBgNVBAYTAmJlMRIwEAYDVQQKDAlrdW5zdG1hYW4xETAPBgNVBAsMCGt1bWFw
ZWVyMR4wHAYDVQQDDBVrdW1hcGVlci5rdW5zdG1hYW4uYmUwWTATBgcqhkjOPQIB
BggqhkjOPQMBBwNCAAQ49rMjDhn6Chw3qO07m7IO1Ce2FLBxO4yWgzosmkTUeWtG
+449+tqg7S0uUug2ajtebya/zxSMceUx35R18xjEo4GcMIGZMBoGCCoDBAUGBwgB
BA4MDHsiYXR0cnMiOnt9fTAfBgNVHSMEGDAWgBT7QUUJKLTDNpSP/MXPGa+97rgn
kDAMBgNVHRMBAf8EAjAAMB0GA1UdDgQWBBTbDN9mdPiQcjvVnp5+/4/ACULx4TAO
BgNVHQ8BAf8EBAMCBaAwHQYDVR0lBBYwFAYIKwYBBQUHAwEGCCsGAQUFBwMCMAkG
ByqGSM49BAEDSAAwRQIhAJLEu5xcYJ2K8jiAtGYkGZj/6ykT06isr3bouDWf3Ba4
AiAzQ6xEXp5G7iWTd2Gd+IauOS0E8P+PCRMPRWqiMG2S+A==
-----END CERTIFICATE-----
