Certificate:
    Data:
        Version: 3 (0x2)
        Serial Number:
            a8:5a:b9:f8:9e:af:e8:eb
        Signature Algorithm: ecdsa-with-SHA1
        Issuer: CN=kunstmaan.be, OU=ca, C=be, O=kunstmaan
        Validity
            Not Before: Feb 14 16:06:52 2018 GMT
            Not After : Feb 12 16:06:52 2028 GMT
        Subject: C=be, O=kunstmaan, OU=orderer, CN=orderer.kunstmaan.be
        Subject Public Key Info:
            Public Key Algorithm: id-ecPublicKey
            EC Public Key:
                pub: 
                    04:c0:f6:be:b9:5c:6f:c5:bb:e1:c0:a6:ca:5c:64:
                    a5:35:dd:ef:0f:a6:a2:25:7a:71:86:90:a8:4a:88:
                    59:eb:86:f9:dc:d6:b6:42:1b:06:66:0d:0d:f7:39:
                    2c:62:88:9f:04:1e:92:5e:c2:6d:2c:d2:79:41:a3:
                    f1:e6:7b:26:12
                ASN1 OID: prime256v1
        X509v3 extensions:
            1.2.3.4.5.6.7.8.1: 
                ..{"attrs":{}}
            X509v3 Authority Key Identifier: 
                keyid:B3:71:D9:27:14:0A:24:03:AC:50:A4:6F:0E:C0:BC:80:C9:B4:37:2F

            X509v3 Basic Constraints: critical
                CA:FALSE
            X509v3 Subject Key Identifier: 
                3E:AD:AB:44:89:C0:81:B1:59:2D:CE:67:11:15:22:C7:01:07:98:ED
            X509v3 Key Usage: critical
                Digital Signature
    Signature Algorithm: ecdsa-with-SHA1
        30:45:02:21:00:b4:03:0a:c0:f7:34:05:df:7d:a8:e6:49:40:
        5f:8a:24:b6:d0:e7:c7:21:dd:ef:d7:37:9c:ca:8a:d0:4f:6e:
        36:02:20:17:a4:94:68:56:41:d9:8d:4b:9c:53:eb:f1:1c:0e:
        ae:77:1f:2f:80:d6:d4:eb:5a:ea:a1:34:b1:60:52:cb:0b
-----BEGIN CERTIFICATE-----
MIICCDCCAa+gAwIBAgIJAKhaufier+jrMAkGByqGSM49BAEwRTEVMBMGA1UEAwwM
a3Vuc3RtYWFuLmJlMQswCQYDVQQLDAJjYTELMAkGA1UEBhMCYmUxEjAQBgNVBAoM
CWt1bnN0bWFhbjAeFw0xODAyMTQxNjA2NTJaFw0yODAyMTIxNjA2NTJaMFIxCzAJ
BgNVBAYTAmJlMRIwEAYDVQQKDAlrdW5zdG1hYW4xEDAOBgNVBAsMB29yZGVyZXIx
HTAbBgNVBAMMFG9yZGVyZXIua3Vuc3RtYWFuLmJlMFkwEwYHKoZIzj0CAQYIKoZI
zj0DAQcDQgAEwPa+uVxvxbvhwKbKXGSlNd3vD6aiJXpxhpCoSohZ64b53Na2QhsG
Zg0N9zksYoifBB6SXsJtLNJ5QaPx5nsmEqN8MHowGgYIKgMEBQYHCAEEDgwMeyJh
dHRycyI6e319MB8GA1UdIwQYMBaAFLNx2ScUCiQDrFCkbw7AvIDJtDcvMAwGA1Ud
EwEB/wQCMAAwHQYDVR0OBBYEFD6tq0SJwIGxWS3OZxEVIscBB5jtMA4GA1UdDwEB
/wQEAwIHgDAJBgcqhkjOPQQBA0gAMEUCIQC0AwrA9zQF332o5klAX4okttDnxyHd
79c3nMqK0E9uNgIgF6SUaFZB2Y1LnFPr8RwOrncfL4DW1Ota6qE0sWBSyws=
-----END CERTIFICATE-----
