Certificate:
    Data:
        Version: 3 (0x2)
        Serial Number:
            8c:f3:2a:69:f6:86:62:ed
    Signature Algorithm: ecdsa-with-SHA256
        Issuer: CN=kunstmaan.be, OU=ca, C=be, O=kunstmaan
        Validity
            Not Before: Feb 28 10:12:52 2018 GMT
            Not After : Feb 23 10:12:52 2038 GMT
        Subject: CN=kunstmaan.be, OU=ca, C=be, O=kunstmaan
        Subject Public Key Info:
            Public Key Algorithm: id-ecPublicKey
                Public-Key: (256 bit)
                pub: 
                    04:02:a1:be:09:b2:3d:b5:b8:a4:79:79:63:d5:72:
                    83:db:4d:e7:0a:15:ac:b5:43:b5:58:48:2e:a4:b1:
                    bd:b5:b5:97:4b:ca:7a:73:bd:58:3f:d9:7b:12:8e:
                    1f:71:9f:1e:51:f9:5d:a1:fd:42:c3:4b:39:f3:34:
                    80:3f:f0:3e:b7
                ASN1 OID: prime256v1
                NIST CURVE: P-256
        X509v3 extensions:
            X509v3 Subject Key Identifier: 
                5B:94:1B:FA:3D:97:08:38:D0:52:B7:C6:20:15:62:CB:C6:D1:D3:5D
            X509v3 Basic Constraints: critical
                CA:TRUE
            X509v3 Key Usage: critical
                Digital Signature, Key Encipherment, Certificate Sign, CRL Sign
            X509v3 Extended Key Usage: 
                Any Extended Key Usage
    Signature Algorithm: ecdsa-with-SHA256
         30:46:02:21:00:af:95:be:b4:d4:61:50:70:9b:3e:27:7a:b9:
         84:48:af:f0:09:1a:eb:a4:4f:6c:fc:49:bd:d0:67:bb:cd:fb:
         34:02:21:00:e2:10:b6:83:fd:30:d8:65:19:73:54:b6:fb:48:
         90:d6:55:fc:c6:bf:4b:24:ae:62:fd:fc:7e:36:c0:78:b6:b9
-----BEGIN CERTIFICATE-----
MIIB1TCCAXqgAwIBAgIJAIzzKmn2hmLtMAoGCCqGSM49BAMCMEUxFTATBgNVBAMM
DGt1bnN0bWFhbi5iZTELMAkGA1UECwwCY2ExCzAJBgNVBAYTAmJlMRIwEAYDVQQK
DAlrdW5zdG1hYW4wHhcNMTgwMjI4MTAxMjUyWhcNMzgwMjIzMTAxMjUyWjBFMRUw
EwYDVQQDDAxrdW5zdG1hYW4uYmUxCzAJBgNVBAsMAmNhMQswCQYDVQQGEwJiZTES
MBAGA1UECgwJa3Vuc3RtYWFuMFkwEwYHKoZIzj0CAQYIKoZIzj0DAQcDQgAEAqG+
CbI9tbikeXlj1XKD203nChWstUO1WEgupLG9tbWXS8p6c71YP9l7Eo4fcZ8eUfld
of1Cw0s58zSAP/A+t6NTMFEwHQYDVR0OBBYEFFuUG/o9lwg40FK3xiAVYsvG0dNd
MA8GA1UdEwEB/wQFMAMBAf8wDgYDVR0PAQH/BAQDAgGmMA8GA1UdJQQIMAYGBFUd
JQAwCgYIKoZIzj0EAwIDSQAwRgIhAK+VvrTUYVBwmz4nermESK/wCRrrpE9s/Em9
0Ge7zfs0AiEA4hC2g/0w2GUZc1S2+0iQ1lX8xr9LJK5i/fx+NsB4trk=
-----END CERTIFICATE-----
