Certificate:
    Data:
        Version: 3 (0x2)
        Serial Number:
            cc:44:73:bc:cb:8c:00:37
        Signature Algorithm: ecdsa-with-SHA1
        Issuer: CN=kunstmaan.be, OU=tlsca, C=be, O=kunstmaan
        Validity
            Not Before: Feb 14 16:06:50 2018 GMT
            Not After : Feb  9 16:06:50 2038 GMT
        Subject: CN=kunstmaan.be, OU=tlsca, C=be, O=kunstmaan
        Subject Public Key Info:
            Public Key Algorithm: id-ecPublicKey
            EC Public Key:
                pub: 
                    04:07:06:30:3b:7b:1e:6f:56:71:7c:a1:ea:18:37:
                    8c:45:4a:33:d4:fe:31:ae:88:09:a8:c9:e9:bb:c2:
                    33:f4:3c:52:c7:e5:8d:ce:78:a7:6e:30:cb:3a:0e:
                    44:01:6d:de:51:9a:3d:ac:74:f7:61:a5:a5:b9:0d:
                    d4:c2:99:eb:6a
                ASN1 OID: prime256v1
        X509v3 extensions:
            X509v3 Subject Key Identifier: 
                FB:41:45:09:28:B4:C3:36:94:8F:FC:C5:CF:19:AF:BD:EE:B8:27:90
            X509v3 Basic Constraints: critical
                CA:TRUE
            X509v3 Key Usage: critical
                Digital Signature, Key Encipherment, Certificate Sign, CRL Sign
            X509v3 Extended Key Usage: 
                2.5.29.37.0
    Signature Algorithm: ecdsa-with-SHA1
        30:45:02:20:0c:76:49:e0:65:f4:4b:db:c7:9e:b5:ce:cb:e0:
        04:38:18:b3:aa:5d:cb:65:88:48:94:a9:f1:fb:44:5b:14:34:
        02:21:00:97:c7:17:cf:bd:73:c9:5e:b9:02:8d:9b:28:fc:0b:
        69:42:59:d4:7a:05:47:7b:28:73:80:39:95:6e:13:91:9a
-----BEGIN CERTIFICATE-----
MIIB2DCCAX+gAwIBAgIJAMxEc7zLjAA3MAkGByqGSM49BAEwSDEVMBMGA1UEAwwM
a3Vuc3RtYWFuLmJlMQ4wDAYDVQQLDAV0bHNjYTELMAkGA1UEBhMCYmUxEjAQBgNV
BAoMCWt1bnN0bWFhbjAeFw0xODAyMTQxNjA2NTBaFw0zODAyMDkxNjA2NTBaMEgx
FTATBgNVBAMMDGt1bnN0bWFhbi5iZTEOMAwGA1UECwwFdGxzY2ExCzAJBgNVBAYT
AmJlMRIwEAYDVQQKDAlrdW5zdG1hYW4wWTATBgcqhkjOPQIBBggqhkjOPQMBBwNC
AAQHBjA7ex5vVnF8oeoYN4xFSjPU/jGuiAmoyem7wjP0PFLH5Y3OeKduMMs6DkQB
bd5Rmj2sdPdhpaW5DdTCmetqo1MwUTAdBgNVHQ4EFgQU+0FFCSi0wzaUj/zFzxmv
ve64J5AwDwYDVR0TAQH/BAUwAwEB/zAOBgNVHQ8BAf8EBAMCAaYwDwYDVR0lBAgw
BgYEVR0lADAJBgcqhkjOPQQBA0gAMEUCIAx2SeBl9Evbx561zsvgBDgYs6pdy2WI
SJSp8ftEWxQ0AiEAl8cXz71zyV65Ao2bKPwLaUJZ1HoFR3soc4A5lW4TkZo=
-----END CERTIFICATE-----
Certificate:
    Data:
        Version: 3 (0x2)
        Serial Number:
            99:be:61:f3:ac:1a:0e:99
        Signature Algorithm: ecdsa-with-SHA1
        Issuer: CN=kunstmaan.be, OU=tlsca, C=be, O=kunstmaan
        Validity
            Not Before: Feb 14 16:06:54 2018 GMT
            Not After : Feb 12 16:06:54 2028 GMT
        Subject: C=be, O=kunstmaan, OU=auth, CN=auth.kunstmaan.be
        Subject Public Key Info:
            Public Key Algorithm: id-ecPublicKey
            EC Public Key:
                pub: 
                    04:55:8f:5b:75:b5:7d:bc:da:8e:05:9f:0e:de:96:
                    2d:55:1c:0d:91:ce:85:af:ee:7d:00:ca:e6:f1:1f:
                    77:81:12:c9:92:1d:c4:cd:25:fa:7b:e0:ab:e1:ab:
                    5b:aa:0c:e2:5f:78:8b:e1:f0:1c:91:06:70:a1:ed:
                    d5:91:ba:be:cb
                ASN1 OID: prime256v1
        X509v3 extensions:
            1.2.3.4.5.6.7.8.1: 
                ..{"attrs":{}}
            X509v3 Authority Key Identifier: 
                keyid:FB:41:45:09:28:B4:C3:36:94:8F:FC:C5:CF:19:AF:BD:EE:B8:27:90

            X509v3 Basic Constraints: critical
                CA:TRUE
            X509v3 Subject Key Identifier: 
                23:09:54:6B:09:73:09:3D:45:BA:47:F5:EA:FB:F9:D6:A5:F0:8D:B7
            X509v3 Key Usage: critical
                Digital Signature, Key Encipherment, Certificate Sign, CRL Sign
            X509v3 Extended Key Usage: 
                TLS Web Server Authentication, TLS Web Client Authentication
    Signature Algorithm: ecdsa-with-SHA1
        30:45:02:20:1d:d2:8b:f0:51:ad:30:5d:c0:10:69:9e:4d:25:
        bf:8f:27:3e:e3:23:b0:c8:f3:a9:33:e5:38:db:97:80:8c:09:
        02:21:00:dc:40:f9:cb:9a:b7:a0:73:38:29:e6:18:aa:4d:54:
        a6:19:0e:d4:82:bb:65:c0:57:c6:9a:ec:6e:a5:9d:e2:ef
-----BEGIN CERTIFICATE-----
MIICKTCCAdCgAwIBAgIJAJm+YfOsGg6ZMAkGByqGSM49BAEwSDEVMBMGA1UEAwwM
a3Vuc3RtYWFuLmJlMQ4wDAYDVQQLDAV0bHNjYTELMAkGA1UEBhMCYmUxEjAQBgNV
BAoMCWt1bnN0bWFhbjAeFw0xODAyMTQxNjA2NTRaFw0yODAyMTIxNjA2NTRaMEwx
CzAJBgNVBAYTAmJlMRIwEAYDVQQKDAlrdW5zdG1hYW4xDTALBgNVBAsMBGF1dGgx
GjAYBgNVBAMMEWF1dGgua3Vuc3RtYWFuLmJlMFkwEwYHKoZIzj0CAQYIKoZIzj0D
AQcDQgAEVY9bdbV9vNqOBZ8O3pYtVRwNkc6Fr+59AMrm8R93gRLJkh3EzSX6e+Cr
4atbqgziX3iL4fAckQZwoe3Vkbq+y6OBnzCBnDAaBggqAwQFBgcIAQQODAx7ImF0
dHJzIjp7fX0wHwYDVR0jBBgwFoAU+0FFCSi0wzaUj/zFzxmvve64J5AwDwYDVR0T
AQH/BAUwAwEB/zAdBgNVHQ4EFgQUIwlUawlzCT1Fukf16vv51qXwjbcwDgYDVR0P
AQH/BAQDAgGmMB0GA1UdJQQWMBQGCCsGAQUFBwMBBggrBgEFBQcDAjAJBgcqhkjO
PQQBA0gAMEUCIB3Si/BRrTBdwBBpnk0lv48nPuMjsMjzqTPlONuXgIwJAiEA3ED5
y5q3oHM4KeYYqk1UphkO1IK7ZcBXxprsbqWd4u8=
-----END CERTIFICATE-----
Certificate:
    Data:
        Version: 3 (0x2)
        Serial Number:
            f2:f3:7e:50:67:f4:f9:48
        Signature Algorithm: ecdsa-with-SHA1
        Issuer: C=be, O=kunstmaan, OU=auth, CN=auth.kunstmaan.be
        Validity
            Not Before: Feb 14 16:06:56 2018 GMT
            Not After : Feb 12 16:06:56 2028 GMT
        Subject: C=be, O=kunstmaan, OU=auth, CN=user-1.auth.kunstmaan.be
        Subject Public Key Info:
            Public Key Algorithm: id-ecPublicKey
            EC Public Key:
                pub: 
                    04:c8:8d:6e:30:0a:e6:1f:bd:06:7f:15:b6:37:03:
                    c9:e4:17:0d:90:8d:f2:66:4d:54:ec:86:09:16:55:
                    1a:9f:2c:10:d4:4d:5e:32:5b:d2:d6:5a:73:17:16:
                    17:48:dc:d9:74:5e:b2:6b:2f:d1:77:46:45:ca:f3:
                    ea:99:b3:12:cd
                ASN1 OID: prime256v1
        X509v3 extensions:
            1.2.3.4.5.6.7.8.1: 
                ..{"attrs":{"Name":"user-1"}}
            X509v3 Authority Key Identifier: 
                keyid:23:09:54:6B:09:73:09:3D:45:BA:47:F5:EA:FB:F9:D6:A5:F0:8D:B7

            X509v3 Basic Constraints: critical
                CA:FALSE
            X509v3 Subject Key Identifier: 
                10:1C:95:91:C0:37:38:17:79:F8:91:A7:F5:46:A7:21:63:A8:F7:93
            X509v3 Key Usage: critical
                Digital Signature, Key Encipherment
            X509v3 Extended Key Usage: 
                TLS Web Server Authentication, TLS Web Client Authentication
    Signature Algorithm: ecdsa-with-SHA1
        30:46:02:21:00:a6:82:c7:d6:11:c5:8c:f7:08:a7:5e:64:e7:
        6d:f3:1f:a9:30:20:b5:7e:c6:e3:ab:95:64:66:f1:a4:6b:59:
        db:02:21:00:e0:ef:90:39:2e:a8:fb:d9:fd:db:ce:04:46:e7:
        30:88:11:69:3a:3d:94:d2:c9:b4:7b:b7:35:af:ec:e4:2b:5d
-----BEGIN CERTIFICATE-----
MIICQTCCAeegAwIBAgIJAPLzflBn9PlIMAkGByqGSM49BAEwTDELMAkGA1UEBhMC
YmUxEjAQBgNVBAoMCWt1bnN0bWFhbjENMAsGA1UECwwEYXV0aDEaMBgGA1UEAwwR
YXV0aC5rdW5zdG1hYW4uYmUwHhcNMTgwMjE0MTYwNjU2WhcNMjgwMjEyMTYwNjU2
WjBTMQswCQYDVQQGEwJiZTESMBAGA1UECgwJa3Vuc3RtYWFuMQ0wCwYDVQQLDARh
dXRoMSEwHwYDVQQDDBh1c2VyLTEuYXV0aC5rdW5zdG1hYW4uYmUwWTATBgcqhkjO
PQIBBggqhkjOPQMBBwNCAATIjW4wCuYfvQZ/FbY3A8nkFw2QjfJmTVTshgkWVRqf
LBDUTV4yW9LWWnMXFhdI3Nl0XrJrL9F3RkXK8+qZsxLNo4GrMIGoMCkGCCoDBAUG
BwgBBB0MG3siYXR0cnMiOnsiTmFtZSI6InVzZXItMSJ9fTAfBgNVHSMEGDAWgBQj
CVRrCXMJPUW6R/Xq+/nWpfCNtzAMBgNVHRMBAf8EAjAAMB0GA1UdDgQWBBQQHJWR
wDc4F3n4kaf1RqchY6j3kzAOBgNVHQ8BAf8EBAMCBaAwHQYDVR0lBBYwFAYIKwYB
BQUHAwEGCCsGAQUFBwMCMAkGByqGSM49BAEDSQAwRgIhAKaCx9YRxYz3CKdeZOdt
8x+pMCC1fsbjq5VkZvGka1nbAiEA4O+QOS6o+9n9284ERucwiBFpOj2U0sm0e7c1
r+zkK10=
-----END CERTIFICATE-----
