Certificate:
    Data:
        Version: 3 (0x2)
        Serial Number:
            e3:f6:7e:20:98:d5:c6:ff
    Signature Algorithm: ecdsa-with-SHA256
        Issuer: CN=kunstmaan.be, OU=ca, C=be, O=kunstmaan
        Validity
            Not Before: Feb 28 10:00:21 2018 GMT
            Not After : Feb 26 10:00:21 2028 GMT
        Subject: C=be, O=kunstmaan, OU=auth, CN=auth.kunstmaan.be
        Subject Public Key Info:
            Public Key Algorithm: id-ecPublicKey
                Public-Key: (256 bit)
                pub: 
                    04:5e:0a:5c:a1:90:a9:90:11:bf:86:02:9a:ce:5d:
                    c8:08:4c:76:59:3f:bb:3c:e6:60:f6:65:c9:31:c1:
                    4d:81:19:e2:ed:7d:2e:70:6b:f4:0b:7f:80:82:89:
                    d5:fc:90:a8:a0:ea:c5:13:49:9e:79:b6:ce:5e:4b:
                    e8:cc:47:9e:a0
                ASN1 OID: prime256v1
                NIST CURVE: P-256
        X509v3 extensions:
            1.2.3.4.5.6.7.8.1: 
                ..{"attrs":{}}
            X509v3 Authority Key Identifier: 
                keyid:FF:BF:2D:2F:F8:AB:7D:BE:D5:06:D2:71:53:11:5C:08:E0:74:58:1D

            X509v3 Basic Constraints: critical
                CA:TRUE
            X509v3 Subject Key Identifier: 
                4F:07:11:85:0F:5E:2C:C2:9E:49:87:6E:A2:7B:D6:CD:49:52:17:F9
            X509v3 Extended Key Usage: 
                Any Extended Key Usage
            X509v3 Key Usage: critical
                Digital Signature, Key Encipherment, Certificate Sign, CRL Sign
    Signature Algorithm: ecdsa-with-SHA256
         30:46:02:21:00:d6:20:f5:3b:28:4b:a5:51:17:4a:ee:ee:80:
         f3:5b:4a:e4:ca:52:ec:b5:7d:18:b1:ec:7e:23:bb:33:68:b5:
         61:02:21:00:9b:95:43:8c:ab:16:7f:26:17:89:ea:8d:aa:c8:
         81:a1:28:11:07:31:79:6d:8e:0c:1f:d1:66:4f:31:87:06:ae
-----BEGIN CERTIFICATE-----
MIICGzCCAcCgAwIBAgIJAOP2fiCY1cb/MAoGCCqGSM49BAMCMEUxFTATBgNVBAMM
DGt1bnN0bWFhbi5iZTELMAkGA1UECwwCY2ExCzAJBgNVBAYTAmJlMRIwEAYDVQQK
DAlrdW5zdG1hYW4wHhcNMTgwMjI4MTAwMDIxWhcNMjgwMjI2MTAwMDIxWjBMMQsw
CQYDVQQGEwJiZTESMBAGA1UECgwJa3Vuc3RtYWFuMQ0wCwYDVQQLDARhdXRoMRow
GAYDVQQDDBFhdXRoLmt1bnN0bWFhbi5iZTBZMBMGByqGSM49AgEGCCqGSM49AwEH
A0IABF4KXKGQqZARv4YCms5dyAhMdlk/uzzmYPZlyTHBTYEZ4u19LnBr9At/gIKJ
1fyQqKDqxRNJnnm2zl5L6MxHnqCjgZEwgY4wGgYIKgMEBQYHCAEEDgwMeyJhdHRy
cyI6e319MB8GA1UdIwQYMBaAFP+/LS/4q32+1QbScVMRXAjgdFgdMA8GA1UdEwEB
/wQFMAMBAf8wHQYDVR0OBBYEFE8HEYUPXizCnkmHbqJ71s1JUhf5MA8GA1UdJQQI
MAYGBFUdJQAwDgYDVR0PAQH/BAQDAgGmMAoGCCqGSM49BAMCA0kAMEYCIQDWIPU7
KEulURdK7u6A81tK5MpS7LV9GLHsfiO7M2i1YQIhAJuVQ4yrFn8mF4nqjarIgaEo
EQcxeW2ODB/RZk8xhwau
-----END CERTIFICATE-----
