Certificate:
    Data:
        Version: 3 (0x2)
        Serial Number:
            c7:63:80:45:7a:b2:35:d2
        Signature Algorithm: ecdsa-with-SHA1
        Issuer: CN=kunstmaan.be, OU=ca, C=be, O=kunstmaan
        Validity
            Not Before: Feb 14 16:06:51 2018 GMT
            Not After : Feb 12 16:06:51 2028 GMT
        Subject: C=be, O=kunstmaan, OU=admin-kuma, CN=admin-kuma.kunstmaan.be
        Subject Public Key Info:
            Public Key Algorithm: id-ecPublicKey
            EC Public Key:
                pub: 
                    04:bd:0c:64:fe:6b:4c:4c:bb:6b:f7:c4:02:fd:17:
                    7b:8c:c2:fc:e4:87:d9:d8:5a:ce:dc:2f:be:f3:e1:
                    6d:c3:e4:04:dd:41:5d:1e:a4:29:78:1e:78:cb:3c:
                    ee:24:07:ad:00:f2:9d:fb:fc:70:6f:06:5b:ab:3d:
                    3f:82:11:c7:8b
                ASN1 OID: prime256v1
        X509v3 extensions:
            1.2.3.4.5.6.7.8.1: 
                ..{"attrs":{}}
            X509v3 Authority Key Identifier: 
                keyid:B3:71:D9:27:14:0A:24:03:AC:50:A4:6F:0E:C0:BC:80:C9:B4:37:2F

            X509v3 Basic Constraints: critical
                CA:FALSE
            X509v3 Subject Key Identifier: 
                C6:43:E6:44:6B:C3:73:28:EB:F3:46:9F:F4:67:77:73:33:33:69:EC
            X509v3 Key Usage: critical
                Digital Signature
    Signature Algorithm: ecdsa-with-SHA1
        30:45:02:21:00:b1:92:b3:8c:32:81:bf:d1:d3:c0:2a:18:af:
        74:8b:e2:63:4f:2a:2e:fc:9c:65:87:74:f6:c8:e9:ea:d8:fb:
        69:02:20:1e:a6:95:d7:b6:d6:92:10:7d:f8:e6:c0:8d:27:89:
        54:76:e7:da:85:0d:1e:e1:c7:65:dc:69:6e:b6:90:74:4a
-----BEGIN CERTIFICATE-----
MIICDjCCAbWgAwIBAgIJAMdjgEV6sjXSMAkGByqGSM49BAEwRTEVMBMGA1UEAwwM
a3Vuc3RtYWFuLmJlMQswCQYDVQQLDAJjYTELMAkGA1UEBhMCYmUxEjAQBgNVBAoM
CWt1bnN0bWFhbjAeFw0xODAyMTQxNjA2NTFaFw0yODAyMTIxNjA2NTFaMFgxCzAJ
BgNVBAYTAmJlMRIwEAYDVQQKDAlrdW5zdG1hYW4xEzARBgNVBAsMCmFkbWluLWt1
bWExIDAeBgNVBAMMF2FkbWluLWt1bWEua3Vuc3RtYWFuLmJlMFkwEwYHKoZIzj0C
AQYIKoZIzj0DAQcDQgAEvQxk/mtMTLtr98QC/Rd7jML85IfZ2FrO3C++8+Ftw+QE
3UFdHqQpeB54yzzuJAetAPKd+/xwbwZbqz0/ghHHi6N8MHowGgYIKgMEBQYHCAEE
DgwMeyJhdHRycyI6e319MB8GA1UdIwQYMBaAFLNx2ScUCiQDrFCkbw7AvIDJtDcv
MAwGA1UdEwEB/wQCMAAwHQYDVR0OBBYEFMZD5kRrw3Mo6/NGn/Rnd3MzM2nsMA4G
A1UdDwEB/wQEAwIHgDAJBgcqhkjOPQQBA0gAMEUCIQCxkrOMMoG/0dPAKhivdIvi
Y08qLvycZYd09sjp6tj7aQIgHqaV17bWkhB9+ObAjSeJVHbn2oUNHuHHZdxpbraQ
dEo=
-----END CERTIFICATE-----
