Certificate:
    Data:
        Version: 3 (0x2)
        Serial Number:
            cc:a1:93:a1:c3:77:e6:c7
        Signature Algorithm: ecdsa-with-SHA1
        Issuer: CN=kunstmaan.be, OU=ca, C=be, O=kunstmaan
        Validity
            Not Before: Feb 27 17:00:07 2018 GMT
            Not After : Feb 22 17:00:07 2038 GMT
        Subject: CN=kunstmaan.be, OU=ca, C=be, O=kunstmaan
        Subject Public Key Info:
            Public Key Algorithm: id-ecPublicKey
            EC Public Key:
                pub: 
                    04:5e:26:d8:79:c4:28:90:f4:f5:83:7d:5b:c3:c3:
                    18:df:9f:b2:14:fd:4d:01:c4:3c:bd:1c:47:38:44:
                    fa:d8:77:4c:ff:d9:91:14:23:74:0a:d9:f4:6b:ee:
                    b6:7d:cd:d3:2d:6b:0a:18:c2:67:22:f7:d5:80:1b:
                    b6:14:35:9e:6a
                ASN1 OID: prime256v1
        X509v3 extensions:
            X509v3 Subject Key Identifier: 
                36:DB:89:FC:56:3F:D3:96:CF:41:F0:4C:F0:DD:36:1E:C3:ED:2E:6A
            X509v3 Basic Constraints: critical
                CA:TRUE
            X509v3 Key Usage: critical
                Digital Signature, Key Encipherment, Certificate Sign, CRL Sign
            X509v3 Extended Key Usage: 
                2.5.29.37.0
    Signature Algorithm: ecdsa-with-SHA1
        30:44:02:20:5e:9d:c1:0f:5a:c6:2f:ab:08:78:d1:b8:ef:e3:
        bc:d1:ce:9c:b3:11:62:94:d8:15:d5:01:77:f9:a6:d4:5b:ff:
        02:20:5e:13:4c:5f:10:93:93:6a:67:4a:a7:5c:42:d7:1c:88:
        e2:32:a6:ab:86:b9:36:f3:4d:c1:c9:96:9d:52:5a:8a
-----BEGIN CERTIFICATE-----
MIIB0TCCAXmgAwIBAgIJAMyhk6HDd+bHMAkGByqGSM49BAEwRTEVMBMGA1UEAwwM
a3Vuc3RtYWFuLmJlMQswCQYDVQQLDAJjYTELMAkGA1UEBhMCYmUxEjAQBgNVBAoM
CWt1bnN0bWFhbjAeFw0xODAyMjcxNzAwMDdaFw0zODAyMjIxNzAwMDdaMEUxFTAT
BgNVBAMMDGt1bnN0bWFhbi5iZTELMAkGA1UECwwCY2ExCzAJBgNVBAYTAmJlMRIw
EAYDVQQKDAlrdW5zdG1hYW4wWTATBgcqhkjOPQIBBggqhkjOPQMBBwNCAAReJth5
xCiQ9PWDfVvDwxjfn7IU/U0BxDy9HEc4RPrYd0z/2ZEUI3QK2fRr7rZ9zdMtawoY
wmci99WAG7YUNZ5qo1MwUTAdBgNVHQ4EFgQUNtuJ/FY/05bPQfBM8N02HsPtLmow
DwYDVR0TAQH/BAUwAwEB/zAOBgNVHQ8BAf8EBAMCAaYwDwYDVR0lBAgwBgYEVR0l
ADAJBgcqhkjOPQQBA0cAMEQCIF6dwQ9axi+rCHjRuO/jvNHOnLMRYpTYFdUBd/mm
1Fv/AiBeE0xfEJOTamdKp1xC1xyI4jKmq4a5NvNNwcmWnVJaig==
-----END CERTIFICATE-----
Certificate:
    Data:
        Version: 3 (0x2)
        Serial Number:
            b5:d0:f7:45:f9:7f:a9:15
        Signature Algorithm: ecdsa-with-SHA1
        Issuer: CN=kunstmaan.be, OU=ca, C=be, O=kunstmaan
        Validity
            Not Before: Feb 27 17:00:11 2018 GMT
            Not After : Feb 25 17:00:11 2028 GMT
        Subject: C=be, O=kunstmaan, OU=auth, CN=auth.kunstmaan.be
        Subject Public Key Info:
            Public Key Algorithm: id-ecPublicKey
            EC Public Key:
                pub: 
                    04:8b:d9:09:b7:f5:c9:79:90:2a:21:d8:a1:4e:08:
                    76:68:90:c8:a1:21:bf:16:74:f9:48:8b:8a:95:19:
                    89:40:c7:71:cd:a1:80:fc:87:17:58:fd:4b:37:80:
                    21:83:08:e8:a1:d6:75:1a:79:21:35:92:1e:e1:ef:
                    bc:e6:89:3e:bf
                ASN1 OID: prime256v1
        X509v3 extensions:
            1.2.3.4.5.6.7.8.1: 
                ..{"attrs":{}}
            X509v3 Authority Key Identifier: 
                keyid:36:DB:89:FC:56:3F:D3:96:CF:41:F0:4C:F0:DD:36:1E:C3:ED:2E:6A

            X509v3 Basic Constraints: critical
                CA:TRUE
            X509v3 Subject Key Identifier: 
                6F:AD:99:6F:D6:A2:4F:17:3A:06:FC:48:B8:1E:62:FA:5A:7D:84:05
            X509v3 Extended Key Usage: 
                2.5.29.37.0
            X509v3 Key Usage: critical
                Digital Signature, Key Encipherment, Certificate Sign, CRL Sign
    Signature Algorithm: ecdsa-with-SHA1
        30:45:02:20:0d:51:c4:c3:f3:58:f4:4b:a0:80:2d:40:f6:67:
        99:03:22:5c:e2:8f:06:17:df:a9:66:0f:cd:13:1d:5b:3e:a8:
        02:21:00:8c:64:65:5c:ad:92:cb:22:94:b5:3d:47:72:de:c1:
        44:11:5a:88:6a:78:7d:2f:06:84:4a:08:42:7c:61:8e:49
-----BEGIN CERTIFICATE-----
MIICGDCCAb+gAwIBAgIJALXQ90X5f6kVMAkGByqGSM49BAEwRTEVMBMGA1UEAwwM
a3Vuc3RtYWFuLmJlMQswCQYDVQQLDAJjYTELMAkGA1UEBhMCYmUxEjAQBgNVBAoM
CWt1bnN0bWFhbjAeFw0xODAyMjcxNzAwMTFaFw0yODAyMjUxNzAwMTFaMEwxCzAJ
BgNVBAYTAmJlMRIwEAYDVQQKDAlrdW5zdG1hYW4xDTALBgNVBAsMBGF1dGgxGjAY
BgNVBAMMEWF1dGgua3Vuc3RtYWFuLmJlMFkwEwYHKoZIzj0CAQYIKoZIzj0DAQcD
QgAEi9kJt/XJeZAqIdihTgh2aJDIoSG/FnT5SIuKlRmJQMdxzaGA/IcXWP1LN4Ah
gwjoodZ1GnkhNZIe4e+85ok+v6OBkTCBjjAaBggqAwQFBgcIAQQODAx7ImF0dHJz
Ijp7fX0wHwYDVR0jBBgwFoAUNtuJ/FY/05bPQfBM8N02HsPtLmowDwYDVR0TAQH/
BAUwAwEB/zAdBgNVHQ4EFgQUb62Zb9aiTxc6BvxIuB5i+lp9hAUwDwYDVR0lBAgw
BgYEVR0lADAOBgNVHQ8BAf8EBAMCAaYwCQYHKoZIzj0EAQNIADBFAiANUcTD81j0
S6CALUD2Z5kDIlzijwYX36lmD80THVs+qAIhAIxkZVytkssilLU9R3LewUQRWohq
eH0vBoRKCEJ8YY5J
-----END CERTIFICATE-----
Certificate:
    Data:
        Version: 3 (0x2)
        Serial Number:
            90:c4:1d:73:65:ee:ec:73
        Signature Algorithm: ecdsa-with-SHA1
        Issuer: C=be, O=kunstmaan, OU=auth, CN=auth.kunstmaan.be
        Validity
            Not Before: Feb 27 17:00:17 2018 GMT
            Not After : Feb 25 17:00:17 2028 GMT
        Subject: C=be, O=kunstmaan, OU=auth, CN=user-5.auth.kunstmaan.be
        Subject Public Key Info:
            Public Key Algorithm: id-ecPublicKey
            EC Public Key:
                pub: 
                    04:15:4a:19:94:b5:26:e0:48:a4:33:36:5e:be:43:
                    12:9f:f8:aa:0a:f0:97:6e:49:a6:08:eb:37:89:bd:
                    f8:5d:cf:20:11:50:01:fb:38:f7:d4:de:4d:c2:c5:
                    97:28:96:4a:10:bf:e3:6a:1d:48:d1:3d:1a:5f:86:
                    47:52:a8:45:79
                ASN1 OID: prime256v1
        X509v3 extensions:
            1.2.3.4.5.6.7.8.1: 
                ..{"attrs":{"Name":"user-5"}}
            X509v3 Authority Key Identifier: 
                keyid:6F:AD:99:6F:D6:A2:4F:17:3A:06:FC:48:B8:1E:62:FA:5A:7D:84:05

            X509v3 Basic Constraints: critical
                CA:FALSE
            X509v3 Subject Key Identifier: 
                A4:0D:92:9D:5D:68:FA:95:A0:54:08:E2:20:1E:A9:F3:F6:A4:74:5B
            X509v3 Key Usage: critical
                Digital Signature
    Signature Algorithm: ecdsa-with-SHA1
        30:46:02:21:00:a3:8c:b4:58:d8:9e:36:08:ec:dd:92:50:91:
        73:2b:44:e5:e5:ad:7f:42:c0:4d:61:9a:5e:0d:a3:a6:e7:e2:
        d7:02:21:00:8c:2a:0c:5e:9c:89:ff:9f:a3:73:b8:87:fa:17:
        68:30:26:88:e0:ad:31:74:1a:af:c5:02:b6:b8:c5:64:18:53
-----BEGIN CERTIFICATE-----
MIICIjCCAcigAwIBAgIJAJDEHXNl7uxzMAkGByqGSM49BAEwTDELMAkGA1UEBhMC
YmUxEjAQBgNVBAoMCWt1bnN0bWFhbjENMAsGA1UECwwEYXV0aDEaMBgGA1UEAwwR
YXV0aC5rdW5zdG1hYW4uYmUwHhcNMTgwMjI3MTcwMDE3WhcNMjgwMjI1MTcwMDE3
WjBTMQswCQYDVQQGEwJiZTESMBAGA1UECgwJa3Vuc3RtYWFuMQ0wCwYDVQQLDARh
dXRoMSEwHwYDVQQDDBh1c2VyLTUuYXV0aC5rdW5zdG1hYW4uYmUwWTATBgcqhkjO
PQIBBggqhkjOPQMBBwNCAAQVShmUtSbgSKQzNl6+QxKf+KoK8JduSaYI6zeJvfhd
zyARUAH7OPfU3k3CxZcolkoQv+NqHUjRPRpfhkdSqEV5o4GMMIGJMCkGCCoDBAUG
BwgBBB0MG3siYXR0cnMiOnsiTmFtZSI6InVzZXItNSJ9fTAfBgNVHSMEGDAWgBRv
rZlv1qJPFzoG/Ei4HmL6Wn2EBTAMBgNVHRMBAf8EAjAAMB0GA1UdDgQWBBSkDZKd
XWj6laBUCOIgHqnz9qR0WzAOBgNVHQ8BAf8EBAMCB4AwCQYHKoZIzj0EAQNJADBG
AiEAo4y0WNieNgjs3ZJQkXMrROXlrX9CwE1hml4No6bn4tcCIQCMKgxenIn/n6Nz
uIf6F2gwJojgrTF0Gq/FAra4xWQYUw==
-----END CERTIFICATE-----
