Certificate:
    Data:
        Version: 3 (0x2)
        Serial Number:
            cc:a1:93:a1:c3:77:e6:c7
        Signature Algorithm: ecdsa-with-SHA1
        Issuer: CN=kunstmaan.be, OU=ca, C=be, O=kunstmaan
        Validity
            Not Before: Feb 27 17:00:07 2018 GMT
            Not After : Feb 22 17:00:07 2038 GMT
        Subject: CN=kunstmaan.be, OU=ca, C=be, O=kunstmaan
        Subject Public Key Info:
            Public Key Algorithm: id-ecPublicKey
            EC Public Key:
                pub: 
                    04:5e:26:d8:79:c4:28:90:f4:f5:83:7d:5b:c3:c3:
                    18:df:9f:b2:14:fd:4d:01:c4:3c:bd:1c:47:38:44:
                    fa:d8:77:4c:ff:d9:91:14:23:74:0a:d9:f4:6b:ee:
                    b6:7d:cd:d3:2d:6b:0a:18:c2:67:22:f7:d5:80:1b:
                    b6:14:35:9e:6a
                ASN1 OID: prime256v1
        X509v3 extensions:
            X509v3 Subject Key Identifier: 
                36:DB:89:FC:56:3F:D3:96:CF:41:F0:4C:F0:DD:36:1E:C3:ED:2E:6A
            X509v3 Basic Constraints: critical
                CA:TRUE
            X509v3 Key Usage: critical
                Digital Signature, Key Encipherment, Certificate Sign, CRL Sign
            X509v3 Extended Key Usage: 
                2.5.29.37.0
    Signature Algorithm: ecdsa-with-SHA1
        30:44:02:20:5e:9d:c1:0f:5a:c6:2f:ab:08:78:d1:b8:ef:e3:
        bc:d1:ce:9c:b3:11:62:94:d8:15:d5:01:77:f9:a6:d4:5b:ff:
        02:20:5e:13:4c:5f:10:93:93:6a:67:4a:a7:5c:42:d7:1c:88:
        e2:32:a6:ab:86:b9:36:f3:4d:c1:c9:96:9d:52:5a:8a
-----BEGIN CERTIFICATE-----
MIIB0TCCAXmgAwIBAgIJAMyhk6HDd+bHMAkGByqGSM49BAEwRTEVMBMGA1UEAwwM
a3Vuc3RtYWFuLmJlMQswCQYDVQQLDAJjYTELMAkGA1UEBhMCYmUxEjAQBgNVBAoM
CWt1bnN0bWFhbjAeFw0xODAyMjcxNzAwMDdaFw0zODAyMjIxNzAwMDdaMEUxFTAT
BgNVBAMMDGt1bnN0bWFhbi5iZTELMAkGA1UECwwCY2ExCzAJBgNVBAYTAmJlMRIw
EAYDVQQKDAlrdW5zdG1hYW4wWTATBgcqhkjOPQIBBggqhkjOPQMBBwNCAAReJth5
xCiQ9PWDfVvDwxjfn7IU/U0BxDy9HEc4RPrYd0z/2ZEUI3QK2fRr7rZ9zdMtawoY
wmci99WAG7YUNZ5qo1MwUTAdBgNVHQ4EFgQUNtuJ/FY/05bPQfBM8N02HsPtLmow
DwYDVR0TAQH/BAUwAwEB/zAOBgNVHQ8BAf8EBAMCAaYwDwYDVR0lBAgwBgYEVR0l
ADAJBgcqhkjOPQQBA0cAMEQCIF6dwQ9axi+rCHjRuO/jvNHOnLMRYpTYFdUBd/mm
1Fv/AiBeE0xfEJOTamdKp1xC1xyI4jKmq4a5NvNNwcmWnVJaig==
-----END CERTIFICATE-----
Certificate:
    Data:
        Version: 3 (0x2)
        Serial Number:
            ce:fa:79:d4:ce:12:2f:e2
        Signature Algorithm: ecdsa-with-SHA1
        Issuer: CN=kunstmaan.be, OU=ca, C=be, O=kunstmaan
        Validity
            Not Before: Feb 27 17:00:11 2018 GMT
            Not After : Feb 25 17:00:11 2028 GMT
        Subject: C=be, O=kunstmaan, OU=auth, CN=auth.kunstmaan.be
        Subject Public Key Info:
            Public Key Algorithm: id-ecPublicKey
            EC Public Key:
                pub: 
                    04:d1:04:66:66:74:9a:ed:b9:ef:63:fb:7b:cc:6f:
                    61:95:01:de:d2:b9:54:c5:75:62:9a:b8:8d:8f:37:
                    43:5e:42:91:be:72:c2:7e:08:df:02:80:5e:85:d3:
                    8d:71:67:7e:76:9c:94:f5:6c:80:75:0b:e4:0e:31:
                    5d:85:d8:75:cd
                ASN1 OID: prime256v1
        X509v3 extensions:
            1.2.3.4.5.6.7.8.1: 
                ..{"attrs":{}}
            X509v3 Authority Key Identifier: 
                keyid:36:DB:89:FC:56:3F:D3:96:CF:41:F0:4C:F0:DD:36:1E:C3:ED:2E:6A

            X509v3 Basic Constraints: critical
                CA:TRUE
            X509v3 Subject Key Identifier: 
                80:63:DD:37:12:8B:E5:B9:3A:BD:96:0D:EC:EE:BF:E3:2C:66:0B:12
            X509v3 Key Usage: critical
                Digital Signature, Key Encipherment, Certificate Sign, CRL Sign
            X509v3 Extended Key Usage: 
                TLS Web Server Authentication, TLS Web Client Authentication
    Signature Algorithm: ecdsa-with-SHA1
        30:45:02:21:00:99:0c:c0:0a:dd:8e:67:0f:48:e4:10:30:59:
        08:98:0e:9f:33:af:a8:bb:73:18:30:77:2e:5d:2b:e7:b4:e0:
        18:02:20:06:5c:e5:9f:20:77:43:cc:01:34:1a:af:a9:4f:c6:
        cc:6c:27:7a:50:1c:e6:fa:9f:3b:65:52:a1:8f:f4:49:10
-----BEGIN CERTIFICATE-----
MIICJjCCAc2gAwIBAgIJAM76edTOEi/iMAkGByqGSM49BAEwRTEVMBMGA1UEAwwM
a3Vuc3RtYWFuLmJlMQswCQYDVQQLDAJjYTELMAkGA1UEBhMCYmUxEjAQBgNVBAoM
CWt1bnN0bWFhbjAeFw0xODAyMjcxNzAwMTFaFw0yODAyMjUxNzAwMTFaMEwxCzAJ
BgNVBAYTAmJlMRIwEAYDVQQKDAlrdW5zdG1hYW4xDTALBgNVBAsMBGF1dGgxGjAY
BgNVBAMMEWF1dGgua3Vuc3RtYWFuLmJlMFkwEwYHKoZIzj0CAQYIKoZIzj0DAQcD
QgAE0QRmZnSa7bnvY/t7zG9hlQHe0rlUxXVimriNjzdDXkKRvnLCfgjfAoBehdON
cWd+dpyU9WyAdQvkDjFdhdh1zaOBnzCBnDAaBggqAwQFBgcIAQQODAx7ImF0dHJz
Ijp7fX0wHwYDVR0jBBgwFoAUNtuJ/FY/05bPQfBM8N02HsPtLmowDwYDVR0TAQH/
BAUwAwEB/zAdBgNVHQ4EFgQUgGPdNxKL5bk6vZYN7O6/4yxmCxIwDgYDVR0PAQH/
BAQDAgGmMB0GA1UdJQQWMBQGCCsGAQUFBwMBBggrBgEFBQcDAjAJBgcqhkjOPQQB
A0gAMEUCIQCZDMAK3Y5nD0jkEDBZCJgOnzOvqLtzGDB3Ll0r57TgGAIgBlzlnyB3
Q8wBNBqvqU/GzGwnelAc5vqfO2VSoY/0SRA=
-----END CERTIFICATE-----
Certificate:
    Data:
        Version: 3 (0x2)
        Serial Number:
            97:ce:63:b2:c1:a4:ae:1a
        Signature Algorithm: ecdsa-with-SHA1
        Issuer: C=be, O=kunstmaan, OU=auth, CN=auth.kunstmaan.be
        Validity
            Not Before: Feb 27 17:00:18 2018 GMT
            Not After : Feb 25 17:00:18 2028 GMT
        Subject: C=be, O=kunstmaan, OU=auth, CN=user-5.auth.kunstmaan.be
        Subject Public Key Info:
            Public Key Algorithm: id-ecPublicKey
            EC Public Key:
                pub: 
                    04:1d:b8:a3:c4:68:d8:20:11:db:a6:a6:bc:ef:5d:
                    e8:37:80:7a:27:f7:8a:3f:12:45:12:d5:ee:83:1a:
                    ac:8d:1b:d1:84:f6:9a:b4:a7:37:f7:d1:e9:1f:9c:
                    bf:2b:09:b8:d3:7d:cb:32:5f:66:f0:71:1c:5d:e1:
                    12:35:51:c0:33
                ASN1 OID: prime256v1
        X509v3 extensions:
            1.2.3.4.5.6.7.8.1: 
                ..{"attrs":{"Name":"user-5"}}
            X509v3 Authority Key Identifier: 
                keyid:80:63:DD:37:12:8B:E5:B9:3A:BD:96:0D:EC:EE:BF:E3:2C:66:0B:12

            X509v3 Basic Constraints: critical
                CA:FALSE
            X509v3 Subject Key Identifier: 
                22:91:5D:4C:E2:E8:95:37:D4:16:AE:34:D1:5B:01:3C:75:81:5C:48
            X509v3 Key Usage: critical
                Digital Signature, Key Encipherment
            X509v3 Extended Key Usage: 
                TLS Web Server Authentication, TLS Web Client Authentication
    Signature Algorithm: ecdsa-with-SHA1
        30:45:02:21:00:d0:90:e5:88:fa:f7:ed:cc:96:48:05:d1:3b:
        df:c8:bd:15:4a:ca:d6:af:55:ee:46:12:73:7e:43:be:7d:34:
        3a:02:20:43:e0:d6:f6:31:c8:63:15:1f:24:86:8d:73:75:20:
        05:b4:59:64:ea:39:76:53:d9:c2:b9:b7:5e:a5:b3:21:43
-----BEGIN CERTIFICATE-----
MIICQDCCAeegAwIBAgIJAJfOY7LBpK4aMAkGByqGSM49BAEwTDELMAkGA1UEBhMC
YmUxEjAQBgNVBAoMCWt1bnN0bWFhbjENMAsGA1UECwwEYXV0aDEaMBgGA1UEAwwR
YXV0aC5rdW5zdG1hYW4uYmUwHhcNMTgwMjI3MTcwMDE4WhcNMjgwMjI1MTcwMDE4
WjBTMQswCQYDVQQGEwJiZTESMBAGA1UECgwJa3Vuc3RtYWFuMQ0wCwYDVQQLDARh
dXRoMSEwHwYDVQQDDBh1c2VyLTUuYXV0aC5rdW5zdG1hYW4uYmUwWTATBgcqhkjO
PQIBBggqhkjOPQMBBwNCAAQduKPEaNggEdumprzvXeg3gHon94o/EkUS1e6DGqyN
G9GE9pq0pzf30ekfnL8rCbjTfcsyX2bwcRxd4RI1UcAzo4GrMIGoMCkGCCoDBAUG
BwgBBB0MG3siYXR0cnMiOnsiTmFtZSI6InVzZXItNSJ9fTAfBgNVHSMEGDAWgBSA
Y903EovluTq9lg3s7r/jLGYLEjAMBgNVHRMBAf8EAjAAMB0GA1UdDgQWBBQikV1M
4uiVN9QWrjTRWwE8dYFcSDAOBgNVHQ8BAf8EBAMCBaAwHQYDVR0lBBYwFAYIKwYB
BQUHAwEGCCsGAQUFBwMCMAkGByqGSM49BAEDSAAwRQIhANCQ5Yj69+3MlkgF0Tvf
yL0VSsrWr1XuRhJzfkO+fTQ6AiBD4Nb2MchjFR8kho1zdSAFtFlk6jl2U9nCubde
pbMhQw==
-----END CERTIFICATE-----
