Certificate:
    Data:
        Version: 3 (0x2)
        Serial Number:
            fe:e0:db:32:69:6b:5c:75
        Signature Algorithm: ecdsa-with-SHA1
        Issuer: CN=kunstmaan.be, OU=ca, C=be, O=kunstmaan
        Validity
            Not Before: Feb 27 17:00:07 2018 GMT
            Not After : Feb 25 17:00:07 2028 GMT
        Subject: C=be, O=kunstmaan, OU=org, CN=org.kunstmaan.be
        Subject Public Key Info:
            Public Key Algorithm: id-ecPublicKey
            EC Public Key:
                pub: 
                    04:aa:42:1e:bd:60:c6:74:dc:3a:43:13:ed:1e:73:
                    2f:4a:07:64:53:a8:d0:cd:92:2a:5b:63:fc:94:98:
                    4f:25:ba:51:75:8a:e0:0f:5c:7f:99:0a:13:9f:18:
                    8c:35:0e:97:c5:3e:46:88:89:92:e7:db:6b:34:f5:
                    e1:e4:71:c9:2c
                ASN1 OID: prime256v1
        X509v3 extensions:
            1.2.3.4.5.6.7.8.1: 
                ..{"attrs":{}}
            X509v3 Authority Key Identifier: 
                keyid:36:DB:89:FC:56:3F:D3:96:CF:41:F0:4C:F0:DD:36:1E:C3:ED:2E:6A

            X509v3 Basic Constraints: critical
                CA:TRUE
            X509v3 Subject Key Identifier: 
                89:9E:98:C2:9C:9A:BF:F0:F0:4E:93:13:CF:D9:90:22:10:CB:5F:FA
            X509v3 Key Usage: critical
                Digital Signature, Key Encipherment, Certificate Sign, CRL Sign
            X509v3 Extended Key Usage: 
                TLS Web Server Authentication, TLS Web Client Authentication
    Signature Algorithm: ecdsa-with-SHA1
        30:45:02:21:00:aa:39:62:65:b5:95:72:e2:bf:09:d1:43:8d:
        ff:53:56:0c:db:10:05:9e:4a:88:ec:e6:37:7d:83:fd:c7:22:
        31:02:20:24:61:8f:21:06:d4:1e:35:8c:18:f7:a8:af:fe:11:
        12:df:20:87:60:bf:ed:d5:36:ca:5f:89:09:02:79:25:74
-----BEGIN CERTIFICATE-----
MIICJDCCAcugAwIBAgIJAP7g2zJpa1x1MAkGByqGSM49BAEwRTEVMBMGA1UEAwwM
a3Vuc3RtYWFuLmJlMQswCQYDVQQLDAJjYTELMAkGA1UEBhMCYmUxEjAQBgNVBAoM
CWt1bnN0bWFhbjAeFw0xODAyMjcxNzAwMDdaFw0yODAyMjUxNzAwMDdaMEoxCzAJ
BgNVBAYTAmJlMRIwEAYDVQQKDAlrdW5zdG1hYW4xDDAKBgNVBAsMA29yZzEZMBcG
A1UEAwwQb3JnLmt1bnN0bWFhbi5iZTBZMBMGByqGSM49AgEGCCqGSM49AwEHA0IA
BKpCHr1gxnTcOkMT7R5zL0oHZFOo0M2SKltj/JSYTyW6UXWK4A9cf5kKE58YjDUO
l8U+RoiJkufbazT14eRxySyjgZ8wgZwwGgYIKgMEBQYHCAEEDgwMeyJhdHRycyI6
e319MB8GA1UdIwQYMBaAFDbbifxWP9OWz0HwTPDdNh7D7S5qMA8GA1UdEwEB/wQF
MAMBAf8wHQYDVR0OBBYEFImemMKcmr/w8E6TE8/ZkCIQy1/6MA4GA1UdDwEB/wQE
AwIBpjAdBgNVHSUEFjAUBggrBgEFBQcDAQYIKwYBBQUHAwIwCQYHKoZIzj0EAQNI
ADBFAiEAqjliZbWVcuK/CdFDjf9TVgzbEAWeSojs5jd9g/3HIjECICRhjyEG1B41
jBj3qK/+ERLfIIdgv+3VNspfiQkCeSV0
-----END CERTIFICATE-----
