Certificate:
    Data:
        Version: 3 (0x2)
        Serial Number:
            87:4e:0e:02:6e:68:9b:72
        Signature Algorithm: ecdsa-with-SHA1
        Issuer: C=be, O=kunstmaan, OU=auth, CN=auth.kunstmaan.be
        Validity
            Not Before: Feb 27 17:00:16 2018 GMT
            Not After : Feb 25 17:00:16 2028 GMT
        Subject: C=be, O=kunstmaan, OU=auth, CN=user-4.auth.kunstmaan.be
        Subject Public Key Info:
            Public Key Algorithm: id-ecPublicKey
            EC Public Key:
                pub: 
                    04:34:95:9d:fd:30:f9:78:45:f5:ee:12:e4:48:51:
                    4d:e3:1c:44:f4:79:cc:5c:e0:4f:56:d0:9e:5f:a5:
                    d8:9f:ab:cc:9f:71:5b:4e:fb:9f:9f:24:52:6d:e3:
                    1f:42:43:4f:5d:64:df:57:81:c0:89:60:0c:29:2b:
                    b1:b3:59:f0:e5
                ASN1 OID: prime256v1
        X509v3 extensions:
            1.2.3.4.5.6.7.8.1: 
                ..{"attrs":{"Name":"user-4"}}
            X509v3 Authority Key Identifier: 
                keyid:6F:AD:99:6F:D6:A2:4F:17:3A:06:FC:48:B8:1E:62:FA:5A:7D:84:05

            X509v3 Basic Constraints: critical
                CA:FALSE
            X509v3 Subject Key Identifier: 
                93:FC:82:9D:CD:2F:16:27:2B:60:51:FA:40:FC:D5:A8:EB:28:08:D5
            X509v3 Key Usage: critical
                Digital Signature
    Signature Algorithm: ecdsa-with-SHA1
        30:45:02:20:45:ff:54:d5:79:09:b8:83:fa:59:56:c1:c4:0c:
        d0:d1:75:83:91:66:90:7a:fe:1c:a8:cc:d3:53:56:dc:3f:b4:
        02:21:00:e0:0c:35:66:84:ec:d0:be:f2:ed:a2:da:77:0f:21:
        94:2a:8c:70:56:a6:1d:78:f0:25:c8:e0:4c:3a:91:82:8e
-----BEGIN CERTIFICATE-----
MIICITCCAcigAwIBAgIJAIdODgJuaJtyMAkGByqGSM49BAEwTDELMAkGA1UEBhMC
YmUxEjAQBgNVBAoMCWt1bnN0bWFhbjENMAsGA1UECwwEYXV0aDEaMBgGA1UEAwwR
YXV0aC5rdW5zdG1hYW4uYmUwHhcNMTgwMjI3MTcwMDE2WhcNMjgwMjI1MTcwMDE2
WjBTMQswCQYDVQQGEwJiZTESMBAGA1UECgwJa3Vuc3RtYWFuMQ0wCwYDVQQLDARh
dXRoMSEwHwYDVQQDDBh1c2VyLTQuYXV0aC5rdW5zdG1hYW4uYmUwWTATBgcqhkjO
PQIBBggqhkjOPQMBBwNCAAQ0lZ39MPl4RfXuEuRIUU3jHET0ecxc4E9W0J5fpdif
q8yfcVtO+5+fJFJt4x9CQ09dZN9XgcCJYAwpK7GzWfDlo4GMMIGJMCkGCCoDBAUG
BwgBBB0MG3siYXR0cnMiOnsiTmFtZSI6InVzZXItNCJ9fTAfBgNVHSMEGDAWgBRv
rZlv1qJPFzoG/Ei4HmL6Wn2EBTAMBgNVHRMBAf8EAjAAMB0GA1UdDgQWBBST/IKd
zS8WJytgUfpA/NWo6ygI1TAOBgNVHQ8BAf8EBAMCB4AwCQYHKoZIzj0EAQNIADBF
AiBF/1TVeQm4g/pZVsHEDNDRdYORZpB6/hyozNNTVtw/tAIhAOAMNWaE7NC+8u2i
2ncPIZQqjHBWph148CXI4Ew6kYKO
-----END CERTIFICATE-----
