Certificate:
    Data:
        Version: 3 (0x2)
        Serial Number:
            cd:5b:67:52:8c:cc:36:f3
        Signature Algorithm: ecdsa-with-SHA1
        Issuer: C=be, O=kunstmaan, OU=auth, CN=auth.kunstmaan.be
        Validity
            Not Before: Feb 14 16:06:58 2018 GMT
            Not After : Feb 12 16:06:58 2028 GMT
        Subject: C=be, O=kunstmaan, OU=auth, CN=user-4.auth.kunstmaan.be
        Subject Public Key Info:
            Public Key Algorithm: id-ecPublicKey
            EC Public Key:
                pub: 
                    04:38:d1:a6:1a:41:34:0e:7b:db:e7:58:a6:d7:bc:
                    e3:a2:86:d5:82:cd:99:fe:fb:72:81:de:f6:66:1e:
                    d9:1c:09:15:fd:9e:fc:02:b3:ce:a8:22:ff:e7:34:
                    7d:bd:8f:c1:a7:b9:b1:57:66:05:a3:8b:80:d8:84:
                    80:6e:d8:7d:94
                ASN1 OID: prime256v1
        X509v3 extensions:
            1.2.3.4.5.6.7.8.1: 
                ..{"attrs":{"Name":"user-4"}}
            X509v3 Authority Key Identifier: 
                keyid:95:7B:44:03:D8:97:C6:89:B4:E3:0F:92:5E:B4:3F:F4:96:78:5F:FA

            X509v3 Basic Constraints: critical
                CA:FALSE
            X509v3 Subject Key Identifier: 
                AB:7E:AF:AC:6C:0A:35:76:9B:4D:54:48:51:D7:F7:10:36:5C:4A:68
            X509v3 Key Usage: critical
                Digital Signature
    Signature Algorithm: ecdsa-with-SHA1
        30:45:02:21:00:ca:b0:a2:c9:19:0b:af:0b:58:b5:93:e4:fd:
        f0:4f:92:d1:6f:fd:aa:6c:f5:1b:a9:60:f8:57:42:c2:64:65:
        a8:02:20:0e:0b:5f:6c:88:7a:18:1e:11:20:f0:c9:bb:b1:1f:
        a1:81:b0:69:72:a4:03:da:b8:f7:86:7e:e3:f8:54:32:69
-----BEGIN CERTIFICATE-----
MIICITCCAcigAwIBAgIJAM1bZ1KMzDbzMAkGByqGSM49BAEwTDELMAkGA1UEBhMC
YmUxEjAQBgNVBAoMCWt1bnN0bWFhbjENMAsGA1UECwwEYXV0aDEaMBgGA1UEAwwR
YXV0aC5rdW5zdG1hYW4uYmUwHhcNMTgwMjE0MTYwNjU4WhcNMjgwMjEyMTYwNjU4
WjBTMQswCQYDVQQGEwJiZTESMBAGA1UECgwJa3Vuc3RtYWFuMQ0wCwYDVQQLDARh
dXRoMSEwHwYDVQQDDBh1c2VyLTQuYXV0aC5rdW5zdG1hYW4uYmUwWTATBgcqhkjO
PQIBBggqhkjOPQMBBwNCAAQ40aYaQTQOe9vnWKbXvOOihtWCzZn++3KB3vZmHtkc
CRX9nvwCs86oIv/nNH29j8GnubFXZgWji4DYhIBu2H2Uo4GMMIGJMCkGCCoDBAUG
BwgBBB0MG3siYXR0cnMiOnsiTmFtZSI6InVzZXItNCJ9fTAfBgNVHSMEGDAWgBSV
e0QD2JfGibTjD5JetD/0lnhf+jAMBgNVHRMBAf8EAjAAMB0GA1UdDgQWBBSrfq+s
bAo1dptNVEhR1/cQNlxKaDAOBgNVHQ8BAf8EBAMCB4AwCQYHKoZIzj0EAQNIADBF
AiEAyrCiyRkLrwtYtZPk/fBPktFv/aps9RupYPhXQsJkZagCIA4LX2yIehgeESDw
ybuxH6GBsGlypAPauPeGfuP4VDJp
-----END CERTIFICATE-----
