Certificate:
    Data:
        Version: 3 (0x2)
        Serial Number:
            92:86:09:92:c6:41:d0:d9
    Signature Algorithm: ecdsa-with-SHA256
        Issuer: C=be, O=kunstmaan, OU=org, CN=org.kunstmaan.be
        Validity
            Not Before: Feb 28 10:12:53 2018 GMT
            Not After : Feb 26 10:12:53 2028 GMT
        Subject: C=be, O=kunstmaan, OU=org, CN=admin-kuma.org.kunstmaan.be
        Subject Public Key Info:
            Public Key Algorithm: id-ecPublicKey
                Public-Key: (256 bit)
                pub: 
                    04:4e:a2:67:9d:e9:28:6c:32:63:b3:b2:b3:3f:ce:
                    da:3d:34:10:72:8a:71:53:93:18:ab:78:dc:bc:1d:
                    8c:30:87:08:79:66:b4:84:54:b0:ad:65:b8:90:ea:
                    0d:26:27:ff:1f:9c:75:e8:20:06:4f:ee:6c:9b:ff:
                    99:99:22:15:97
                ASN1 OID: prime256v1
                NIST CURVE: P-256
        X509v3 extensions:
            1.2.3.4.5.6.7.8.1: 
                ..{"attrs":{}}
            X509v3 Authority Key Identifier: 
                keyid:F2:4F:2D:2C:11:24:10:11:AF:8E:8B:F6:EA:F4:7E:58:1B:A0:B8:E2

            X509v3 Basic Constraints: critical
                CA:FALSE
            X509v3 Subject Key Identifier: 
                3E:6A:11:0A:10:55:8B:BA:89:F9:25:98:61:64:08:2E:BB:B9:D9:7F
            X509v3 Key Usage: critical
                Digital Signature
    Signature Algorithm: ecdsa-with-SHA256
         30:44:02:20:1b:25:73:a4:f1:3f:b9:2d:2e:d7:23:dd:02:ba:
         be:bb:a7:2b:d2:6a:20:23:9d:97:ad:7a:14:18:24:e9:66:74:
         02:20:7a:78:22:c9:f7:1d:91:92:98:f0:9a:db:e3:62:65:6f:
         99:de:a6:3d:1f:99:1f:de:06:3f:4e:2f:a3:43:eb:04
-----BEGIN CERTIFICATE-----
MIICETCCAbigAwIBAgIJAJKGCZLGQdDZMAoGCCqGSM49BAMCMEoxCzAJBgNVBAYT
AmJlMRIwEAYDVQQKDAlrdW5zdG1hYW4xDDAKBgNVBAsMA29yZzEZMBcGA1UEAwwQ
b3JnLmt1bnN0bWFhbi5iZTAeFw0xODAyMjgxMDEyNTNaFw0yODAyMjYxMDEyNTNa
MFUxCzAJBgNVBAYTAmJlMRIwEAYDVQQKDAlrdW5zdG1hYW4xDDAKBgNVBAsMA29y
ZzEkMCIGA1UEAwwbYWRtaW4ta3VtYS5vcmcua3Vuc3RtYWFuLmJlMFkwEwYHKoZI
zj0CAQYIKoZIzj0DAQcDQgAETqJnnekobDJjs7KzP87aPTQQcopxU5MYq3jcvB2M
MIcIeWa0hFSwrWW4kOoNJif/H5x16CAGT+5sm/+ZmSIVl6N8MHowGgYIKgMEBQYH
CAEEDgwMeyJhdHRycyI6e319MB8GA1UdIwQYMBaAFPJPLSwRJBARr46L9ur0flgb
oLjiMAwGA1UdEwEB/wQCMAAwHQYDVR0OBBYEFD5qEQoQVYu6ifklmGFkCC67udl/
MA4GA1UdDwEB/wQEAwIHgDAKBggqhkjOPQQDAgNHADBEAiAbJXOk8T+5LS7XI90C
ur67pyvSaiAjnZetehQYJOlmdAIgengiyfcdkZKY8Jrb42Jlb5nepj0fmR/eBj9O
L6ND6wQ=
-----END CERTIFICATE-----
