Certificate:
    Data:
        Version: 3 (0x2)
        Serial Number:
            bc:38:8f:5a:bc:9c:b2:dc
    Signature Algorithm: ecdsa-with-SHA256
        Issuer: CN=kunstmaan.be, OU=ca, C=be, O=kunstmaan
        Validity
            Not Before: Feb 28 10:00:19 2018 GMT
            Not After : Feb 26 10:00:19 2028 GMT
        Subject: C=be, O=kunstmaan, OU=org, CN=org.kunstmaan.be
        Subject Public Key Info:
            Public Key Algorithm: id-ecPublicKey
                Public-Key: (256 bit)
                pub: 
                    04:1e:1a:8b:77:f7:0b:e6:cb:2b:99:12:d2:d6:4b:
                    eb:99:aa:4c:9e:72:b3:51:30:37:dc:ed:da:7c:ce:
                    2e:9d:24:af:b1:5d:f7:6c:f6:ca:f8:61:d5:21:14:
                    b1:27:c7:6c:53:13:5d:46:13:47:d2:19:9e:80:69:
                    a6:3e:a4:48:38
                ASN1 OID: prime256v1
                NIST CURVE: P-256
        X509v3 extensions:
            1.2.3.4.5.6.7.8.1: 
                ..{"attrs":{}}
            X509v3 Authority Key Identifier: 
                keyid:FF:BF:2D:2F:F8:AB:7D:BE:D5:06:D2:71:53:11:5C:08:E0:74:58:1D

            X509v3 Basic Constraints: critical
                CA:TRUE
            X509v3 Subject Key Identifier: 
                6B:9C:F9:1B:41:1F:57:6B:39:F6:6F:01:3E:23:65:75:2B:4C:81:D1
            X509v3 Key Usage: critical
                Digital Signature, Key Encipherment, Certificate Sign, CRL Sign
            X509v3 Extended Key Usage: 
                TLS Web Server Authentication, TLS Web Client Authentication
    Signature Algorithm: ecdsa-with-SHA256
         30:45:02:21:00:e3:0e:85:ce:f5:34:1b:d3:3b:35:c9:e0:9f:
         d8:f7:c5:0f:e3:98:a0:a7:5d:d6:b6:fe:6b:f5:c4:3b:13:66:
         19:02:20:3f:9a:6a:18:7f:52:51:42:96:41:94:96:b1:dc:8f:
         ff:f9:28:8f:be:c8:8b:23:43:c9:99:af:95:da:f4:35:73
-----BEGIN CERTIFICATE-----
MIICJjCCAcygAwIBAgIJALw4j1q8nLLcMAoGCCqGSM49BAMCMEUxFTATBgNVBAMM
DGt1bnN0bWFhbi5iZTELMAkGA1UECwwCY2ExCzAJBgNVBAYTAmJlMRIwEAYDVQQK
DAlrdW5zdG1hYW4wHhcNMTgwMjI4MTAwMDE5WhcNMjgwMjI2MTAwMDE5WjBKMQsw
CQYDVQQGEwJiZTESMBAGA1UECgwJa3Vuc3RtYWFuMQwwCgYDVQQLDANvcmcxGTAX
BgNVBAMMEG9yZy5rdW5zdG1hYW4uYmUwWTATBgcqhkjOPQIBBggqhkjOPQMBBwNC
AAQeGot39wvmyyuZEtLWS+uZqkyecrNRMDfc7dp8zi6dJK+xXfds9sr4YdUhFLEn
x2xTE11GE0fSGZ6AaaY+pEg4o4GfMIGcMBoGCCoDBAUGBwgBBA4MDHsiYXR0cnMi
Ont9fTAfBgNVHSMEGDAWgBT/vy0v+Kt9vtUG0nFTEVwI4HRYHTAPBgNVHRMBAf8E
BTADAQH/MB0GA1UdDgQWBBRrnPkbQR9Xazn2bwE+I2V1K0yB0TAOBgNVHQ8BAf8E
BAMCAaYwHQYDVR0lBBYwFAYIKwYBBQUHAwEGCCsGAQUFBwMCMAoGCCqGSM49BAMC
A0gAMEUCIQDjDoXO9TQb0zs1yeCf2PfFD+OYoKdd1rb+a/XEOxNmGQIgP5pqGH9S
UUKWQZSWsdyP//koj77IiyNDyZmvldr0NXM=
-----END CERTIFICATE-----
