Certificate:
    Data:
        Version: 3 (0x2)
        Serial Number:
            e3:94:5f:0a:d2:26:be:7c
    Signature Algorithm: ecdsa-with-SHA256
        Issuer: CN=kunstmaan.be, OU=ca, C=be, O=kunstmaan
        Validity
            Not Before: Feb 28 10:12:52 2018 GMT
            Not After : Feb 26 10:12:52 2028 GMT
        Subject: C=be, O=kunstmaan, OU=org, CN=org.kunstmaan.be
        Subject Public Key Info:
            Public Key Algorithm: id-ecPublicKey
                Public-Key: (256 bit)
                pub: 
                    04:43:a6:2d:cd:5f:fc:f0:66:e1:7e:60:f7:32:8b:
                    81:dc:dc:86:82:6b:f2:a9:d9:a9:a2:48:fb:8f:5e:
                    68:aa:41:b9:f5:28:c4:b0:1c:6a:5e:55:84:e1:89:
                    d1:43:9c:46:5c:22:e5:49:95:d3:22:1f:07:0b:1a:
                    13:f6:5b:7e:e4
                ASN1 OID: prime256v1
                NIST CURVE: P-256
        X509v3 extensions:
            1.2.3.4.5.6.7.8.1: 
                ..{"attrs":{}}
            X509v3 Authority Key Identifier: 
                keyid:5B:94:1B:FA:3D:97:08:38:D0:52:B7:C6:20:15:62:CB:C6:D1:D3:5D

            X509v3 Basic Constraints: critical
                CA:TRUE
            X509v3 Subject Key Identifier: 
                21:26:6E:CC:58:10:2E:BE:D2:15:53:E3:22:BE:F0:04:B7:E5:84:7E
            X509v3 Key Usage: critical
                Digital Signature, Key Encipherment, Certificate Sign, CRL Sign
            X509v3 Extended Key Usage: 
                TLS Web Server Authentication, TLS Web Client Authentication
    Signature Algorithm: ecdsa-with-SHA256
         30:46:02:21:00:f6:4c:49:06:22:a7:de:10:1e:71:fc:d7:c7:
         65:06:31:e4:55:5f:e2:f5:ba:f8:f5:d9:2a:8d:c2:d7:8e:bb:
         1e:02:21:00:b4:05:9f:fe:cb:04:88:f7:93:8e:be:82:0c:c8:
         4f:45:12:5f:bd:bb:be:2e:f4:9f:22:90:97:e2:84:25:5d:f1
-----BEGIN CERTIFICATE-----
MIICJzCCAcygAwIBAgIJAOOUXwrSJr58MAoGCCqGSM49BAMCMEUxFTATBgNVBAMM
DGt1bnN0bWFhbi5iZTELMAkGA1UECwwCY2ExCzAJBgNVBAYTAmJlMRIwEAYDVQQK
DAlrdW5zdG1hYW4wHhcNMTgwMjI4MTAxMjUyWhcNMjgwMjI2MTAxMjUyWjBKMQsw
CQYDVQQGEwJiZTESMBAGA1UECgwJa3Vuc3RtYWFuMQwwCgYDVQQLDANvcmcxGTAX
BgNVBAMMEG9yZy5rdW5zdG1hYW4uYmUwWTATBgcqhkjOPQIBBggqhkjOPQMBBwNC
AARDpi3NX/zwZuF+YPcyi4Hc3IaCa/Kp2amiSPuPXmiqQbn1KMSwHGpeVYThidFD
nEZcIuVJldMiHwcLGhP2W37ko4GfMIGcMBoGCCoDBAUGBwgBBA4MDHsiYXR0cnMi
Ont9fTAfBgNVHSMEGDAWgBRblBv6PZcIONBSt8YgFWLLxtHTXTAPBgNVHRMBAf8E
BTADAQH/MB0GA1UdDgQWBBQhJm7MWBAuvtIVU+MivvAEt+WEfjAOBgNVHQ8BAf8E
BAMCAaYwHQYDVR0lBBYwFAYIKwYBBQUHAwEGCCsGAQUFBwMCMAoGCCqGSM49BAMC
A0kAMEYCIQD2TEkGIqfeEB5x/NfHZQYx5FVf4vW6+PXZKo3C1467HgIhALQFn/7L
BIj3k46+ggzIT0USX727vi70nyKQl+KEJV3x
-----END CERTIFICATE-----
