Certificate:
    Data:
        Version: 3 (0x2)
        Serial Number:
            e0:eb:6d:c9:7c:4e:1a:52
    Signature Algorithm: ecdsa-with-SHA256
        Issuer: C=be, O=kunstmaan, OU=auth, CN=auth.kunstmaan.be
        Validity
            Not Before: Feb 28 10:00:25 2018 GMT
            Not After : Feb 26 10:00:25 2028 GMT
        Subject: C=be, O=kunstmaan, OU=auth, CN=user-4.auth.kunstmaan.be
        Subject Public Key Info:
            Public Key Algorithm: id-ecPublicKey
                Public-Key: (256 bit)
                pub: 
                    04:98:c9:6f:7b:f5:56:7d:24:9c:a2:25:2e:04:5e:
                    f6:9f:32:3b:10:8f:f0:a1:bd:2e:a8:27:97:b5:60:
                    2d:c5:0b:7c:5b:ee:58:3b:df:ba:33:8f:b4:f0:f4:
                    cd:8a:46:b6:1e:fb:17:21:37:5c:65:ed:7a:57:f4:
                    ba:dd:51:20:00
                ASN1 OID: prime256v1
                NIST CURVE: P-256
        X509v3 extensions:
            1.2.3.4.5.6.7.8.1: 
                ..{"attrs":{"Name":"user-4"}}
            X509v3 Authority Key Identifier: 
                keyid:1C:18:8D:F4:04:3A:E9:E5:E6:E1:BD:36:5D:40:98:41:20:AC:6D:FD

            X509v3 Basic Constraints: critical
                CA:FALSE
            X509v3 Subject Key Identifier: 
                93:97:99:4F:E8:F2:93:A7:28:DA:2D:71:3B:54:E6:8D:87:D9:A5:0F
            X509v3 Key Usage: critical
                Digital Signature, Key Encipherment
            X509v3 Extended Key Usage: 
                TLS Web Server Authentication, TLS Web Client Authentication
    Signature Algorithm: ecdsa-with-SHA256
         30:45:02:20:54:3e:70:4e:29:06:ff:35:c1:6a:06:7f:83:b6:
         b6:2e:73:fd:36:78:2c:3a:d4:3f:2d:f6:df:89:75:12:22:50:
         02:21:00:ad:8d:f6:9a:7f:d9:ab:83:f6:c3:86:dd:4d:b9:83:
         9e:ed:b3:cd:ac:68:10:00:e3:f7:a6:00:7a:1c:15:92:49
-----BEGIN CERTIFICATE-----
MIICQjCCAeigAwIBAgIJAODrbcl8ThpSMAoGCCqGSM49BAMCMEwxCzAJBgNVBAYT
AmJlMRIwEAYDVQQKDAlrdW5zdG1hYW4xDTALBgNVBAsMBGF1dGgxGjAYBgNVBAMM
EWF1dGgua3Vuc3RtYWFuLmJlMB4XDTE4MDIyODEwMDAyNVoXDTI4MDIyNjEwMDAy
NVowUzELMAkGA1UEBhMCYmUxEjAQBgNVBAoMCWt1bnN0bWFhbjENMAsGA1UECwwE
YXV0aDEhMB8GA1UEAwwYdXNlci00LmF1dGgua3Vuc3RtYWFuLmJlMFkwEwYHKoZI
zj0CAQYIKoZIzj0DAQcDQgAEmMlve/VWfSScoiUuBF72nzI7EI/wob0uqCeXtWAt
xQt8W+5YO9+6M4+08PTNika2HvsXITdcZe16V/S63VEgAKOBqzCBqDApBggqAwQF
BgcIAQQdDBt7ImF0dHJzIjp7Ik5hbWUiOiJ1c2VyLTQifX0wHwYDVR0jBBgwFoAU
HBiN9AQ66eXm4b02XUCYQSCsbf0wDAYDVR0TAQH/BAIwADAdBgNVHQ4EFgQUk5eZ
T+jyk6co2i1xO1TmjYfZpQ8wDgYDVR0PAQH/BAQDAgWgMB0GA1UdJQQWMBQGCCsG
AQUFBwMBBggrBgEFBQcDAjAKBggqhkjOPQQDAgNIADBFAiBUPnBOKQb/NcFqBn+D
trYuc/02eCw61D8t9t+JdRIiUAIhAK2N9pp/2auD9sOG3U25g57ts82saBAA4/em
AHocFZJJ
-----END CERTIFICATE-----
