Certificate:
    Data:
        Version: 3 (0x2)
        Serial Number:
            bc:0e:63:a7:90:4f:55:b4
    Signature Algorithm: ecdsa-with-SHA256
        Issuer: C=be, O=kunstmaan, OU=auth, CN=auth.kunstmaan.be
        Validity
            Not Before: Feb 28 10:13:00 2018 GMT
            Not After : Feb 26 10:13:00 2028 GMT
        Subject: C=be, O=kunstmaan, OU=auth, CN=user-4.auth.kunstmaan.be
        Subject Public Key Info:
            Public Key Algorithm: id-ecPublicKey
                Public-Key: (256 bit)
                pub: 
                    04:d1:30:ea:58:7d:27:6c:15:25:cd:7e:da:f3:36:
                    d6:51:ed:96:f0:e1:65:21:70:98:13:c4:6b:f8:5b:
                    3b:7e:d2:0d:35:40:11:cb:ea:33:c8:ef:3f:17:59:
                    ba:3c:fb:3c:f8:cd:f8:a2:55:15:3f:0e:ca:6e:0b:
                    09:08:df:d3:6b
                ASN1 OID: prime256v1
                NIST CURVE: P-256
        X509v3 extensions:
            1.2.3.4.5.6.7.8.1: 
                ..{"attrs":{"Name":"user-4"}}
            X509v3 Authority Key Identifier: 
                keyid:26:13:21:A8:F5:D7:53:4D:99:52:9D:4C:C0:71:9C:FF:33:ED:03:87

            X509v3 Basic Constraints: critical
                CA:FALSE
            X509v3 Subject Key Identifier: 
                1E:08:48:93:C4:0C:73:BF:42:2A:F8:A9:9E:7B:D0:38:BA:34:E2:E5
            X509v3 Key Usage: critical
                Digital Signature, Key Encipherment
            X509v3 Extended Key Usage: 
                TLS Web Server Authentication, TLS Web Client Authentication
    Signature Algorithm: ecdsa-with-SHA256
         30:45:02:21:00:f0:e5:82:8f:68:e0:81:78:0e:30:66:fe:c7:
         e7:fc:fd:37:f2:7d:98:81:ec:47:c2:2c:92:4a:d3:20:6e:6a:
         15:02:20:26:48:a8:38:22:18:be:0c:ae:0c:55:8b:bd:a5:75:
         bb:25:3a:d1:8e:3d:00:26:d7:64:de:26:7e:b0:3e:f4:ea
-----BEGIN CERTIFICATE-----
MIICQjCCAeigAwIBAgIJALwOY6eQT1W0MAoGCCqGSM49BAMCMEwxCzAJBgNVBAYT
AmJlMRIwEAYDVQQKDAlrdW5zdG1hYW4xDTALBgNVBAsMBGF1dGgxGjAYBgNVBAMM
EWF1dGgua3Vuc3RtYWFuLmJlMB4XDTE4MDIyODEwMTMwMFoXDTI4MDIyNjEwMTMw
MFowUzELMAkGA1UEBhMCYmUxEjAQBgNVBAoMCWt1bnN0bWFhbjENMAsGA1UECwwE
YXV0aDEhMB8GA1UEAwwYdXNlci00LmF1dGgua3Vuc3RtYWFuLmJlMFkwEwYHKoZI
zj0CAQYIKoZIzj0DAQcDQgAE0TDqWH0nbBUlzX7a8zbWUe2W8OFlIXCYE8Rr+Fs7
ftINNUARy+ozyO8/F1m6PPs8+M34olUVPw7KbgsJCN/Ta6OBqzCBqDApBggqAwQF
BgcIAQQdDBt7ImF0dHJzIjp7Ik5hbWUiOiJ1c2VyLTQifX0wHwYDVR0jBBgwFoAU
JhMhqPXXU02ZUp1MwHGc/zPtA4cwDAYDVR0TAQH/BAIwADAdBgNVHQ4EFgQUHghI
k8QMc79CKvipnnvQOLo04uUwDgYDVR0PAQH/BAQDAgWgMB0GA1UdJQQWMBQGCCsG
AQUFBwMBBggrBgEFBQcDAjAKBggqhkjOPQQDAgNIADBFAiEA8OWCj2jggXgOMGb+
x+f8/TfyfZiB7EfCLJJK0yBuahUCICZIqDgiGL4MrgxVi72ldbslOtGOPQAm12Te
Jn6wPvTq
-----END CERTIFICATE-----
