Certificate:
    Data:
        Version: 3 (0x2)
        Serial Number:
            df:8b:8e:25:41:b3:a7:bb
        Signature Algorithm: ecdsa-with-SHA1
        Issuer: C=be, O=kunstmaan, OU=auth, CN=auth.kunstmaan.be
        Validity
            Not Before: Feb 27 17:00:17 2018 GMT
            Not After : Feb 25 17:00:17 2028 GMT
        Subject: C=be, O=kunstmaan, OU=auth, CN=user-4.auth.kunstmaan.be
        Subject Public Key Info:
            Public Key Algorithm: id-ecPublicKey
            EC Public Key:
                pub: 
                    04:db:e3:d2:96:49:f1:d9:7a:3c:70:8c:09:da:64:
                    fb:05:48:bd:12:a2:54:98:fa:00:07:50:41:c3:1b:
                    9f:48:b1:3f:19:fe:9b:c7:7b:18:84:9f:fe:95:bf:
                    38:b1:22:e5:23:7e:8e:0a:c3:55:a4:a3:99:cd:04:
                    35:f8:17:78:c0
                ASN1 OID: prime256v1
        X509v3 extensions:
            1.2.3.4.5.6.7.8.1: 
                ..{"attrs":{"Name":"user-4"}}
            X509v3 Authority Key Identifier: 
                keyid:80:63:DD:37:12:8B:E5:B9:3A:BD:96:0D:EC:EE:BF:E3:2C:66:0B:12

            X509v3 Basic Constraints: critical
                CA:FALSE
            X509v3 Subject Key Identifier: 
                44:FC:BA:F1:D2:9B:92:21:36:F3:32:91:77:E1:50:66:4E:4F:F3:79
            X509v3 Key Usage: critical
                Digital Signature, Key Encipherment
            X509v3 Extended Key Usage: 
                TLS Web Server Authentication, TLS Web Client Authentication
    Signature Algorithm: ecdsa-with-SHA1
        30:44:02:20:15:93:27:78:bb:02:c6:28:6b:a1:93:c2:77:f4:
        21:7c:ad:a7:1c:ec:7e:1b:1e:3d:12:27:ac:fa:bc:47:c2:a5:
        02:20:54:c8:8f:35:e2:5c:94:5b:16:47:9c:fe:dc:a7:d4:9f:
        c0:d9:e6:d2:2b:19:7f:73:ea:db:8f:3b:16:d7:a9:81
-----BEGIN CERTIFICATE-----
MIICPzCCAeegAwIBAgIJAN+LjiVBs6e7MAkGByqGSM49BAEwTDELMAkGA1UEBhMC
YmUxEjAQBgNVBAoMCWt1bnN0bWFhbjENMAsGA1UECwwEYXV0aDEaMBgGA1UEAwwR
YXV0aC5rdW5zdG1hYW4uYmUwHhcNMTgwMjI3MTcwMDE3WhcNMjgwMjI1MTcwMDE3
WjBTMQswCQYDVQQGEwJiZTESMBAGA1UECgwJa3Vuc3RtYWFuMQ0wCwYDVQQLDARh
dXRoMSEwHwYDVQQDDBh1c2VyLTQuYXV0aC5rdW5zdG1hYW4uYmUwWTATBgcqhkjO
PQIBBggqhkjOPQMBBwNCAATb49KWSfHZejxwjAnaZPsFSL0SolSY+gAHUEHDG59I
sT8Z/pvHexiEn/6VvzixIuUjfo4Kw1Wko5nNBDX4F3jAo4GrMIGoMCkGCCoDBAUG
BwgBBB0MG3siYXR0cnMiOnsiTmFtZSI6InVzZXItNCJ9fTAfBgNVHSMEGDAWgBSA
Y903EovluTq9lg3s7r/jLGYLEjAMBgNVHRMBAf8EAjAAMB0GA1UdDgQWBBRE/Lrx
0puSITbzMpF34VBmTk/zeTAOBgNVHQ8BAf8EBAMCBaAwHQYDVR0lBBYwFAYIKwYB
BQUHAwEGCCsGAQUFBwMCMAkGByqGSM49BAEDRwAwRAIgFZMneLsCxihroZPCd/Qh
fK2nHOx+Gx49Eies+rxHwqUCIFTIjzXiXJRbFkec/tyn1J/A2ebSKxl/c+rbjzsW
16mB
-----END CERTIFICATE-----
