Certificate:
    Data:
        Version: 3 (0x2)
        Serial Number:
            de:fb:e8:a9:e2:fd:5c:95
        Signature Algorithm: ecdsa-with-SHA1
        Issuer: C=be, O=kunstmaan, OU=auth, CN=auth.kunstmaan.be
        Validity
            Not Before: Feb 14 16:06:59 2018 GMT
            Not After : Feb 12 16:06:59 2028 GMT
        Subject: C=be, O=kunstmaan, OU=auth, CN=user-4.auth.kunstmaan.be
        Subject Public Key Info:
            Public Key Algorithm: id-ecPublicKey
            EC Public Key:
                pub: 
                    04:b0:fd:aa:45:98:0e:d6:d8:d9:48:c4:db:be:bc:
                    b6:e3:e8:01:c3:70:e5:db:7e:8a:5e:3b:f3:44:17:
                    14:b9:a5:96:dd:56:bf:b3:c0:33:60:0a:40:59:53:
                    6a:18:20:b4:72:37:e3:01:94:06:c6:c5:cc:64:67:
                    f2:b2:99:25:88
                ASN1 OID: prime256v1
        X509v3 extensions:
            1.2.3.4.5.6.7.8.1: 
                ..{"attrs":{"Name":"user-4"}}
            X509v3 Authority Key Identifier: 
                keyid:23:09:54:6B:09:73:09:3D:45:BA:47:F5:EA:FB:F9:D6:A5:F0:8D:B7

            X509v3 Basic Constraints: critical
                CA:FALSE
            X509v3 Subject Key Identifier: 
                55:1A:DE:C6:28:61:3F:19:F1:32:81:64:D5:65:4B:AA:BF:BE:08:0E
            X509v3 Key Usage: critical
                Digital Signature, Key Encipherment
            X509v3 Extended Key Usage: 
                TLS Web Server Authentication, TLS Web Client Authentication
    Signature Algorithm: ecdsa-with-SHA1
        30:45:02:20:09:48:4d:a7:87:5c:79:66:e2:54:f9:c7:24:cf:
        9a:d0:bc:98:d5:ee:96:90:1d:df:12:f1:39:89:f5:e3:86:2f:
        02:21:00:b6:d4:cc:c6:44:23:0a:97:51:4b:c0:9e:5f:3c:b6:
        ff:ea:05:80:ec:d9:1f:70:bb:81:5e:46:6c:6d:c6:2d:d6
-----BEGIN CERTIFICATE-----
MIICQDCCAeegAwIBAgIJAN776Kni/VyVMAkGByqGSM49BAEwTDELMAkGA1UEBhMC
YmUxEjAQBgNVBAoMCWt1bnN0bWFhbjENMAsGA1UECwwEYXV0aDEaMBgGA1UEAwwR
YXV0aC5rdW5zdG1hYW4uYmUwHhcNMTgwMjE0MTYwNjU5WhcNMjgwMjEyMTYwNjU5
WjBTMQswCQYDVQQGEwJiZTESMBAGA1UECgwJa3Vuc3RtYWFuMQ0wCwYDVQQLDARh
dXRoMSEwHwYDVQQDDBh1c2VyLTQuYXV0aC5rdW5zdG1hYW4uYmUwWTATBgcqhkjO
PQIBBggqhkjOPQMBBwNCAASw/apFmA7W2NlIxNu+vLbj6AHDcOXbfopeO/NEFxS5
pZbdVr+zwDNgCkBZU2oYILRyN+MBlAbGxcxkZ/KymSWIo4GrMIGoMCkGCCoDBAUG
BwgBBB0MG3siYXR0cnMiOnsiTmFtZSI6InVzZXItNCJ9fTAfBgNVHSMEGDAWgBQj
CVRrCXMJPUW6R/Xq+/nWpfCNtzAMBgNVHRMBAf8EAjAAMB0GA1UdDgQWBBRVGt7G
KGE/GfEygWTVZUuqv74IDjAOBgNVHQ8BAf8EBAMCBaAwHQYDVR0lBBYwFAYIKwYB
BQUHAwEGCCsGAQUFBwMCMAkGByqGSM49BAEDSAAwRQIgCUhNp4dceWbiVPnHJM+a
0LyY1e6WkB3fEvE5ifXjhi8CIQC21MzGRCMKl1FLwJ5fPLb/6gWA7NkfcLuBXkZs
bcYt1g==
-----END CERTIFICATE-----
