Certificate:
    Data:
        Version: 3 (0x2)
        Serial Number:
            8a:da:0b:46:73:c9:cd:a4
        Signature Algorithm: ecdsa-with-SHA1
        Issuer: C=be, O=kunstmaan, OU=auth, CN=auth.kunstmaan.be
        Validity
            Not Before: Feb 14 16:07:01 2018 GMT
            Not After : Feb 12 16:07:01 2028 GMT
        Subject: C=be, O=kunstmaan, OU=auth, CN=authpeer.auth.kunstmaan.be
        Subject Public Key Info:
            Public Key Algorithm: id-ecPublicKey
            EC Public Key:
                pub: 
                    04:8a:4f:06:67:6f:7c:05:71:79:c5:31:c5:a7:12:
                    00:72:ef:9f:ba:f2:87:c7:45:b6:11:bb:fe:cd:ca:
                    4d:8e:6c:a7:02:80:d9:1e:73:f8:a5:6b:d1:8e:a2:
                    ed:cf:18:0f:5f:ed:6c:73:b8:80:90:fa:da:7f:75:
                    f6:c1:82:7d:2e
                ASN1 OID: prime256v1
        X509v3 extensions:
            1.2.3.4.5.6.7.8.1: 
                ..{"attrs":{}}
            X509v3 Authority Key Identifier: 
                keyid:23:09:54:6B:09:73:09:3D:45:BA:47:F5:EA:FB:F9:D6:A5:F0:8D:B7

            X509v3 Basic Constraints: critical
                CA:FALSE
            X509v3 Subject Key Identifier: 
                62:76:A7:C4:6F:EE:88:EB:7A:6A:7F:6D:A2:DD:1F:43:A4:25:D0:D8
            X509v3 Key Usage: critical
                Digital Signature, Key Encipherment
            X509v3 Extended Key Usage: 
                TLS Web Server Authentication, TLS Web Client Authentication
    Signature Algorithm: ecdsa-with-SHA1
        30:45:02:21:00:e9:87:47:79:79:88:6b:d9:92:29:35:0f:90:
        a2:28:a5:c3:ae:07:57:e8:d0:a3:d7:28:bc:3b:cb:f3:58:c8:
        11:02:20:72:02:a6:89:48:d4:e3:28:9f:d0:d0:20:1e:61:40:
        29:c3:55:f7:e2:ad:f2:14:55:db:95:0d:d1:e9:19:b2:43
-----BEGIN CERTIFICATE-----
MIICMzCCAdqgAwIBAgIJAIraC0Zzyc2kMAkGByqGSM49BAEwTDELMAkGA1UEBhMC
YmUxEjAQBgNVBAoMCWt1bnN0bWFhbjENMAsGA1UECwwEYXV0aDEaMBgGA1UEAwwR
YXV0aC5rdW5zdG1hYW4uYmUwHhcNMTgwMjE0MTYwNzAxWhcNMjgwMjEyMTYwNzAx
WjBVMQswCQYDVQQGEwJiZTESMBAGA1UECgwJa3Vuc3RtYWFuMQ0wCwYDVQQLDARh
dXRoMSMwIQYDVQQDDBphdXRocGVlci5hdXRoLmt1bnN0bWFhbi5iZTBZMBMGByqG
SM49AgEGCCqGSM49AwEHA0IABIpPBmdvfAVxecUxxacSAHLvn7ryh8dFthG7/s3K
TY5spwKA2R5z+KVr0Y6i7c8YD1/tbHO4gJD62n919sGCfS6jgZwwgZkwGgYIKgME
BQYHCAEEDgwMeyJhdHRycyI6e319MB8GA1UdIwQYMBaAFCMJVGsJcwk9RbpH9er7
+dal8I23MAwGA1UdEwEB/wQCMAAwHQYDVR0OBBYEFGJ2p8Rv7ojremp/baLdH0Ok
JdDYMA4GA1UdDwEB/wQEAwIFoDAdBgNVHSUEFjAUBggrBgEFBQcDAQYIKwYBBQUH
AwIwCQYHKoZIzj0EAQNIADBFAiEA6YdHeXmIa9mSKTUPkKIopcOuB1fo0KPXKLw7
y/NYyBECIHICpolI1OMon9DQIB5hQCnDVffirfIUVduVDdHpGbJD
-----END CERTIFICATE-----
