Certificate:
    Data:
        Version: 3 (0x2)
        Serial Number:
            d3:71:8d:48:6b:49:aa:7e
    Signature Algorithm: ecdsa-with-SHA256
        Issuer: C=be, O=kunstmaan, OU=auth, CN=auth.kunstmaan.be
        Validity
            Not Before: Feb 28 10:13:01 2018 GMT
            Not After : Feb 26 10:13:01 2028 GMT
        Subject: C=be, O=kunstmaan, OU=auth, CN=authpeer.auth.kunstmaan.be
        Subject Public Key Info:
            Public Key Algorithm: id-ecPublicKey
                Public-Key: (256 bit)
                pub: 
                    04:a2:3f:d4:3d:25:cb:43:f0:9c:a5:a6:3d:59:dc:
                    fd:db:1d:a1:52:55:87:1c:d5:54:52:6c:60:a1:ab:
                    1a:8e:2a:b1:59:5c:9d:6a:6c:a0:e6:83:47:f4:5b:
                    9b:03:5d:5e:7a:b5:38:32:a2:1d:16:cb:be:ad:98:
                    b4:d5:ca:e8:30
                ASN1 OID: prime256v1
                NIST CURVE: P-256
        X509v3 extensions:
            1.2.3.4.5.6.7.8.1: 
                ..{"attrs":{}}
            X509v3 Authority Key Identifier: 
                keyid:26:13:21:A8:F5:D7:53:4D:99:52:9D:4C:C0:71:9C:FF:33:ED:03:87

            X509v3 Basic Constraints: critical
                CA:FALSE
            X509v3 Subject Key Identifier: 
                84:FA:F3:27:37:3C:C7:C7:9B:64:6F:7D:6A:F4:22:85:7F:ED:93:1E
            X509v3 Key Usage: critical
                Digital Signature, Key Encipherment
            X509v3 Extended Key Usage: 
                TLS Web Server Authentication, TLS Web Client Authentication
    Signature Algorithm: ecdsa-with-SHA256
         30:45:02:21:00:a1:b0:97:74:40:87:e4:e6:f4:39:01:2c:e3:
         32:54:0d:d6:ea:36:29:35:de:6e:8a:02:c1:18:93:8b:e0:d7:
         d3:02:20:1c:8a:83:27:c0:1e:94:19:93:d8:ba:6e:52:11:a5:
         74:f7:c3:63:09:27:fd:34:ab:f0:d3:24:ec:86:9c:6d:45
-----BEGIN CERTIFICATE-----
MIICNTCCAdugAwIBAgIJANNxjUhrSap+MAoGCCqGSM49BAMCMEwxCzAJBgNVBAYT
AmJlMRIwEAYDVQQKDAlrdW5zdG1hYW4xDTALBgNVBAsMBGF1dGgxGjAYBgNVBAMM
EWF1dGgua3Vuc3RtYWFuLmJlMB4XDTE4MDIyODEwMTMwMVoXDTI4MDIyNjEwMTMw
MVowVTELMAkGA1UEBhMCYmUxEjAQBgNVBAoMCWt1bnN0bWFhbjENMAsGA1UECwwE
YXV0aDEjMCEGA1UEAwwaYXV0aHBlZXIuYXV0aC5rdW5zdG1hYW4uYmUwWTATBgcq
hkjOPQIBBggqhkjOPQMBBwNCAASiP9Q9JctD8Jylpj1Z3P3bHaFSVYcc1VRSbGCh
qxqOKrFZXJ1qbKDmg0f0W5sDXV56tTgyoh0Wy76tmLTVyugwo4GcMIGZMBoGCCoD
BAUGBwgBBA4MDHsiYXR0cnMiOnt9fTAfBgNVHSMEGDAWgBQmEyGo9ddTTZlSnUzA
cZz/M+0DhzAMBgNVHRMBAf8EAjAAMB0GA1UdDgQWBBSE+vMnNzzHx5tkb31q9CKF
f+2THjAOBgNVHQ8BAf8EBAMCBaAwHQYDVR0lBBYwFAYIKwYBBQUHAwEGCCsGAQUF
BwMCMAoGCCqGSM49BAMCA0gAMEUCIQChsJd0QIfk5vQ5ASzjMlQN1uo2KTXebooC
wRiTi+DX0wIgHIqDJ8AelBmT2LpuUhGldPfDYwkn/TSr8NMk7IacbUU=
-----END CERTIFICATE-----
