Certificate:
    Data:
        Version: 3 (0x2)
        Serial Number:
            e6:39:a4:f6:57:f9:53:ee
        Signature Algorithm: ecdsa-with-SHA1
        Issuer: C=be, O=kunstmaan, OU=auth, CN=auth.kunstmaan.be
        Validity
            Not Before: Feb 27 17:00:19 2018 GMT
            Not After : Feb 25 17:00:19 2028 GMT
        Subject: C=be, O=kunstmaan, OU=auth, CN=authpeer.auth.kunstmaan.be
        Subject Public Key Info:
            Public Key Algorithm: id-ecPublicKey
            EC Public Key:
                pub: 
                    04:58:b7:ae:f2:b4:aa:03:e5:f9:b8:f5:36:03:8a:
                    9a:6c:c5:14:10:2e:e8:fc:94:9f:f4:dc:c3:72:5c:
                    e2:31:05:89:dd:16:22:0c:51:5c:fd:2b:a9:ea:0d:
                    54:2b:5f:42:77:b3:82:ce:56:6e:84:b3:00:86:7f:
                    1f:47:67:da:65
                ASN1 OID: prime256v1
        X509v3 extensions:
            1.2.3.4.5.6.7.8.1: 
                ..{"attrs":{}}
            X509v3 Authority Key Identifier: 
                keyid:80:63:DD:37:12:8B:E5:B9:3A:BD:96:0D:EC:EE:BF:E3:2C:66:0B:12

            X509v3 Basic Constraints: critical
                CA:FALSE
            X509v3 Subject Key Identifier: 
                EC:D6:35:A8:10:E6:7F:D5:45:06:F3:9D:E5:90:1A:A3:88:05:D3:44
            X509v3 Key Usage: critical
                Digital Signature, Key Encipherment
            X509v3 Extended Key Usage: 
                TLS Web Server Authentication, TLS Web Client Authentication
    Signature Algorithm: ecdsa-with-SHA1
        30:46:02:21:00:eb:16:8f:e8:e9:73:cf:a4:d1:13:3b:34:46:
        0a:45:ed:2e:44:ba:6f:66:11:92:f9:26:43:e0:89:cd:37:54:
        0a:02:21:00:ec:6c:81:a1:6d:ef:dd:27:04:4a:bb:e1:38:6b:
        42:e9:9f:5e:cf:bd:35:87:0d:55:43:dd:94:51:6d:41:22:c4
-----BEGIN CERTIFICATE-----
MIICNDCCAdqgAwIBAgIJAOY5pPZX+VPuMAkGByqGSM49BAEwTDELMAkGA1UEBhMC
YmUxEjAQBgNVBAoMCWt1bnN0bWFhbjENMAsGA1UECwwEYXV0aDEaMBgGA1UEAwwR
YXV0aC5rdW5zdG1hYW4uYmUwHhcNMTgwMjI3MTcwMDE5WhcNMjgwMjI1MTcwMDE5
WjBVMQswCQYDVQQGEwJiZTESMBAGA1UECgwJa3Vuc3RtYWFuMQ0wCwYDVQQLDARh
dXRoMSMwIQYDVQQDDBphdXRocGVlci5hdXRoLmt1bnN0bWFhbi5iZTBZMBMGByqG
SM49AgEGCCqGSM49AwEHA0IABFi3rvK0qgPl+bj1NgOKmmzFFBAu6PyUn/Tcw3Jc
4jEFid0WIgxRXP0rqeoNVCtfQnezgs5WboSzAIZ/H0dn2mWjgZwwgZkwGgYIKgME
BQYHCAEEDgwMeyJhdHRycyI6e319MB8GA1UdIwQYMBaAFIBj3TcSi+W5Or2WDezu
v+MsZgsSMAwGA1UdEwEB/wQCMAAwHQYDVR0OBBYEFOzWNagQ5n/VRQbzneWQGqOI
BdNEMA4GA1UdDwEB/wQEAwIFoDAdBgNVHSUEFjAUBggrBgEFBQcDAQYIKwYBBQUH
AwIwCQYHKoZIzj0EAQNJADBGAiEA6xaP6Olzz6TREzs0RgpF7S5Eum9mEZL5JkPg
ic03VAoCIQDsbIGhbe/dJwRKu+E4a0Lpn17PvTWHDVVD3ZRRbUEixA==
-----END CERTIFICATE-----
