Certificate:
    Data:
        Version: 3 (0x2)
        Serial Number:
            f2:82:03:4c:77:ac:38:32
    Signature Algorithm: ecdsa-with-SHA256
        Issuer: C=be, O=kunstmaan, OU=auth, CN=auth.kunstmaan.be
        Validity
            Not Before: Feb 28 10:00:27 2018 GMT
            Not After : Feb 26 10:00:27 2028 GMT
        Subject: C=be, O=kunstmaan, OU=auth, CN=authpeer.auth.kunstmaan.be
        Subject Public Key Info:
            Public Key Algorithm: id-ecPublicKey
                Public-Key: (256 bit)
                pub: 
                    04:e0:de:39:45:8e:6a:32:2e:e9:98:6b:00:d4:25:
                    a3:39:87:a3:39:ca:e5:9c:c2:ae:f5:22:51:62:a1:
                    4c:67:44:50:3a:6f:c0:e8:76:54:15:6e:2b:e9:95:
                    55:3a:2e:ca:dd:0b:b2:c5:82:00:78:72:db:7e:13:
                    1c:9f:ae:df:b2
                ASN1 OID: prime256v1
                NIST CURVE: P-256
        X509v3 extensions:
            1.2.3.4.5.6.7.8.1: 
                ..{"attrs":{}}
            X509v3 Authority Key Identifier: 
                keyid:1C:18:8D:F4:04:3A:E9:E5:E6:E1:BD:36:5D:40:98:41:20:AC:6D:FD

            X509v3 Basic Constraints: critical
                CA:FALSE
            X509v3 Subject Key Identifier: 
                CE:AC:F3:78:20:2C:C0:2D:5B:2B:24:ED:98:78:8A:D9:E6:C0:FE:5B
            X509v3 Key Usage: critical
                Digital Signature, Key Encipherment
            X509v3 Extended Key Usage: 
                TLS Web Server Authentication, TLS Web Client Authentication
    Signature Algorithm: ecdsa-with-SHA256
         30:44:02:20:2a:c9:8c:33:c9:e7:4f:8b:6b:54:ae:f9:03:79:
         9d:74:97:5d:99:51:6f:f2:44:b6:db:55:9f:92:97:ee:17:62:
         02:20:33:ea:b3:5d:45:ea:0f:43:48:a4:5a:7b:ac:f6:ce:f8:
         f4:c2:e5:13:a0:d1:7b:42:5a:73:43:7a:13:38:25:45
-----BEGIN CERTIFICATE-----
MIICNDCCAdugAwIBAgIJAPKCA0x3rDgyMAoGCCqGSM49BAMCMEwxCzAJBgNVBAYT
AmJlMRIwEAYDVQQKDAlrdW5zdG1hYW4xDTALBgNVBAsMBGF1dGgxGjAYBgNVBAMM
EWF1dGgua3Vuc3RtYWFuLmJlMB4XDTE4MDIyODEwMDAyN1oXDTI4MDIyNjEwMDAy
N1owVTELMAkGA1UEBhMCYmUxEjAQBgNVBAoMCWt1bnN0bWFhbjENMAsGA1UECwwE
YXV0aDEjMCEGA1UEAwwaYXV0aHBlZXIuYXV0aC5rdW5zdG1hYW4uYmUwWTATBgcq
hkjOPQIBBggqhkjOPQMBBwNCAATg3jlFjmoyLumYawDUJaM5h6M5yuWcwq71IlFi
oUxnRFA6b8DodlQVbivplVU6LsrdC7LFggB4ctt+Exyfrt+yo4GcMIGZMBoGCCoD
BAUGBwgBBA4MDHsiYXR0cnMiOnt9fTAfBgNVHSMEGDAWgBQcGI30BDrp5ebhvTZd
QJhBIKxt/TAMBgNVHRMBAf8EAjAAMB0GA1UdDgQWBBTOrPN4ICzALVsrJO2YeIrZ
5sD+WzAOBgNVHQ8BAf8EBAMCBaAwHQYDVR0lBBYwFAYIKwYBBQUHAwEGCCsGAQUF
BwMCMAoGCCqGSM49BAMCA0cAMEQCICrJjDPJ50+La1Su+QN5nXSXXZlRb/JEtttV
n5KX7hdiAiAz6rNdReoPQ0ikWnus9s749MLlE6DRe0Jac0N6EzglRQ==
-----END CERTIFICATE-----
