Certificate:
    Data:
        Version: 3 (0x2)
        Serial Number:
            bf:b2:62:26:e6:87:a3:10
    Signature Algorithm: ecdsa-with-SHA256
        Issuer: C=be, O=kunstmaan, OU=auth, CN=auth.kunstmaan.be
        Validity
            Not Before: Feb 28 10:12:57 2018 GMT
            Not After : Feb 26 10:12:57 2028 GMT
        Subject: C=be, O=kunstmaan, OU=auth, CN=user-2.auth.kunstmaan.be
        Subject Public Key Info:
            Public Key Algorithm: id-ecPublicKey
                Public-Key: (256 bit)
                pub: 
                    04:ec:c8:25:b8:b2:69:7c:81:80:83:3e:37:d6:c2:
                    f2:6d:b7:d1:9f:60:a5:20:57:ea:ee:0d:17:c1:2c:
                    c4:50:76:3e:2f:f3:5c:ea:5a:66:e9:57:a7:c0:76:
                    7a:27:41:c0:5c:7b:f4:a4:ea:b6:23:04:3f:cf:b7:
                    22:39:89:fa:cd
                ASN1 OID: prime256v1
                NIST CURVE: P-256
        X509v3 extensions:
            1.2.3.4.5.6.7.8.1: 
                ..{"attrs":{"Name":"user-2"}}
            X509v3 Authority Key Identifier: 
                keyid:4E:7E:C4:68:4C:C2:7D:5B:D1:C7:FF:CE:FE:D6:5C:43:51:95:B0:A9

            X509v3 Basic Constraints: critical
                CA:FALSE
            X509v3 Subject Key Identifier: 
                98:22:D6:9C:8A:41:02:06:0D:C0:C4:31:B3:11:56:17:D0:CB:CE:52
            X509v3 Key Usage: critical
                Digital Signature
    Signature Algorithm: ecdsa-with-SHA256
         30:44:02:20:34:de:12:1b:2a:f7:85:af:18:19:5f:7c:0a:7e:
         64:32:aa:39:35:2b:a8:1c:b4:8d:31:77:b8:92:d7:03:11:e6:
         02:20:09:86:d0:18:0e:ac:4d:09:58:50:b5:f9:4b:aa:e6:13:
         1a:4e:7d:bb:e2:6c:9c:58:49:62:13:bb:d8:89:b1:83
-----BEGIN CERTIFICATE-----
MIICIjCCAcmgAwIBAgIJAL+yYibmh6MQMAoGCCqGSM49BAMCMEwxCzAJBgNVBAYT
AmJlMRIwEAYDVQQKDAlrdW5zdG1hYW4xDTALBgNVBAsMBGF1dGgxGjAYBgNVBAMM
EWF1dGgua3Vuc3RtYWFuLmJlMB4XDTE4MDIyODEwMTI1N1oXDTI4MDIyNjEwMTI1
N1owUzELMAkGA1UEBhMCYmUxEjAQBgNVBAoMCWt1bnN0bWFhbjENMAsGA1UECwwE
YXV0aDEhMB8GA1UEAwwYdXNlci0yLmF1dGgua3Vuc3RtYWFuLmJlMFkwEwYHKoZI
zj0CAQYIKoZIzj0DAQcDQgAE7MgluLJpfIGAgz431sLybbfRn2ClIFfq7g0XwSzE
UHY+L/Nc6lpm6VenwHZ6J0HAXHv0pOq2IwQ/z7ciOYn6zaOBjDCBiTApBggqAwQF
BgcIAQQdDBt7ImF0dHJzIjp7Ik5hbWUiOiJ1c2VyLTIifX0wHwYDVR0jBBgwFoAU
Tn7EaEzCfVvRx//O/tZcQ1GVsKkwDAYDVR0TAQH/BAIwADAdBgNVHQ4EFgQUmCLW
nIpBAgYNwMQxsxFWF9DLzlIwDgYDVR0PAQH/BAQDAgeAMAoGCCqGSM49BAMCA0cA
MEQCIDTeEhsq94WvGBlffAp+ZDKqOTUrqBy0jTF3uJLXAxHmAiAJhtAYDqxNCVhQ
tflLquYTGk59u+JsnFhJYhO72Imxgw==
-----END CERTIFICATE-----
