Certificate:
    Data:
        Version: 3 (0x2)
        Serial Number:
            ab:22:e7:9a:36:bc:d5:59
    Signature Algorithm: ecdsa-with-SHA256
        Issuer: C=be, O=kunstmaan, OU=auth, CN=auth.kunstmaan.be
        Validity
            Not Before: Feb 28 10:00:23 2018 GMT
            Not After : Feb 26 10:00:23 2028 GMT
        Subject: C=be, O=kunstmaan, OU=auth, CN=user-2.auth.kunstmaan.be
        Subject Public Key Info:
            Public Key Algorithm: id-ecPublicKey
                Public-Key: (256 bit)
                pub: 
                    04:47:19:d3:79:3f:0d:b9:4f:80:bf:d7:93:81:7c:
                    44:c2:80:68:e1:90:0c:65:c4:1b:a4:a4:8c:95:1b:
                    69:d8:1e:23:ea:6e:6e:d9:ee:84:61:ef:e0:bd:03:
                    b9:e4:45:f4:c8:e0:c9:f3:76:ea:e9:cc:cc:8e:d2:
                    ef:bf:37:cd:cf
                ASN1 OID: prime256v1
                NIST CURVE: P-256
        X509v3 extensions:
            1.2.3.4.5.6.7.8.1: 
                ..{"attrs":{"Name":"user-2"}}
            X509v3 Authority Key Identifier: 
                keyid:4F:07:11:85:0F:5E:2C:C2:9E:49:87:6E:A2:7B:D6:CD:49:52:17:F9

            X509v3 Basic Constraints: critical
                CA:FALSE
            X509v3 Subject Key Identifier: 
                87:2C:45:E2:7B:44:C5:12:6B:02:A1:28:A6:9B:46:19:F4:2D:B6:B2
            X509v3 Key Usage: critical
                Digital Signature
    Signature Algorithm: ecdsa-with-SHA256
         30:45:02:21:00:f5:d0:29:27:b6:a6:4d:55:6d:aa:1c:51:f3:
         40:57:da:ab:46:cd:4f:aa:1e:60:89:31:8c:46:ce:f3:74:ba:
         59:02:20:70:fd:df:7f:d1:08:fd:08:45:8b:96:d8:45:7e:e4:
         e3:7b:bd:8e:65:f2:5c:51:ed:6d:56:13:85:21:30:b2:a3
-----BEGIN CERTIFICATE-----
MIICIzCCAcmgAwIBAgIJAKsi55o2vNVZMAoGCCqGSM49BAMCMEwxCzAJBgNVBAYT
AmJlMRIwEAYDVQQKDAlrdW5zdG1hYW4xDTALBgNVBAsMBGF1dGgxGjAYBgNVBAMM
EWF1dGgua3Vuc3RtYWFuLmJlMB4XDTE4MDIyODEwMDAyM1oXDTI4MDIyNjEwMDAy
M1owUzELMAkGA1UEBhMCYmUxEjAQBgNVBAoMCWt1bnN0bWFhbjENMAsGA1UECwwE
YXV0aDEhMB8GA1UEAwwYdXNlci0yLmF1dGgua3Vuc3RtYWFuLmJlMFkwEwYHKoZI
zj0CAQYIKoZIzj0DAQcDQgAERxnTeT8NuU+Av9eTgXxEwoBo4ZAMZcQbpKSMlRtp
2B4j6m5u2e6EYe/gvQO55EX0yODJ83bq6czMjtLvvzfNz6OBjDCBiTApBggqAwQF
BgcIAQQdDBt7ImF0dHJzIjp7Ik5hbWUiOiJ1c2VyLTIifX0wHwYDVR0jBBgwFoAU
TwcRhQ9eLMKeSYduonvWzUlSF/kwDAYDVR0TAQH/BAIwADAdBgNVHQ4EFgQUhyxF
4ntExRJrAqEopptGGfQttrIwDgYDVR0PAQH/BAQDAgeAMAoGCCqGSM49BAMCA0gA
MEUCIQD10CkntqZNVW2qHFHzQFfaq0bNT6oeYIkxjEbO83S6WQIgcP3ff9EI/QhF
i5bYRX7k43u9jmXyXFHtbVYThSEwsqM=
-----END CERTIFICATE-----
