Certificate:
    Data:
        Version: 3 (0x2)
        Serial Number:
            a9:ce:d7:de:45:c0:17:2b
        Signature Algorithm: ecdsa-with-SHA1
        Issuer: C=be, O=kunstmaan, OU=auth, CN=auth.kunstmaan.be
        Validity
            Not Before: Feb 27 17:00:14 2018 GMT
            Not After : Feb 25 17:00:14 2028 GMT
        Subject: C=be, O=kunstmaan, OU=auth, CN=user-2.auth.kunstmaan.be
        Subject Public Key Info:
            Public Key Algorithm: id-ecPublicKey
            EC Public Key:
                pub: 
                    04:1f:76:68:6d:22:4a:2d:44:fc:ed:49:7d:c2:d2:
                    49:fa:41:ed:ca:ac:4e:7c:f1:48:4b:f4:0e:46:32:
                    13:6e:2a:bd:f0:e9:85:ae:3c:bd:66:39:f9:3c:6d:
                    2d:c4:22:93:b1:cb:3d:c7:bb:4a:9c:38:35:80:fb:
                    06:f7:45:41:85
                ASN1 OID: prime256v1
        X509v3 extensions:
            1.2.3.4.5.6.7.8.1: 
                ..{"attrs":{"Name":"user-2"}}
            X509v3 Authority Key Identifier: 
                keyid:6F:AD:99:6F:D6:A2:4F:17:3A:06:FC:48:B8:1E:62:FA:5A:7D:84:05

            X509v3 Basic Constraints: critical
                CA:FALSE
            X509v3 Subject Key Identifier: 
                67:EB:0D:02:31:40:3C:7F:EB:A4:4D:E1:B9:10:D7:2B:E7:3C:8D:29
            X509v3 Key Usage: critical
                Digital Signature
    Signature Algorithm: ecdsa-with-SHA1
        30:44:02:20:08:a0:04:ab:e9:4e:dd:14:76:c9:26:09:c5:e5:
        e2:3e:e7:97:3b:88:7f:ea:85:24:eb:43:ac:a1:82:db:67:14:
        02:20:3e:b3:98:6c:74:2e:2d:8e:5a:9c:9b:23:a0:ce:d9:e2:
        c9:42:d4:1d:0e:d9:33:e2:22:9d:03:85:c8:a0:61:07
-----BEGIN CERTIFICATE-----
MIICIDCCAcigAwIBAgIJAKnO195FwBcrMAkGByqGSM49BAEwTDELMAkGA1UEBhMC
YmUxEjAQBgNVBAoMCWt1bnN0bWFhbjENMAsGA1UECwwEYXV0aDEaMBgGA1UEAwwR
YXV0aC5rdW5zdG1hYW4uYmUwHhcNMTgwMjI3MTcwMDE0WhcNMjgwMjI1MTcwMDE0
WjBTMQswCQYDVQQGEwJiZTESMBAGA1UECgwJa3Vuc3RtYWFuMQ0wCwYDVQQLDARh
dXRoMSEwHwYDVQQDDBh1c2VyLTIuYXV0aC5rdW5zdG1hYW4uYmUwWTATBgcqhkjO
PQIBBggqhkjOPQMBBwNCAAQfdmhtIkotRPztSX3C0kn6Qe3KrE588UhL9A5GMhNu
Kr3w6YWuPL1mOfk8bS3EIpOxyz3Hu0qcODWA+wb3RUGFo4GMMIGJMCkGCCoDBAUG
BwgBBB0MG3siYXR0cnMiOnsiTmFtZSI6InVzZXItMiJ9fTAfBgNVHSMEGDAWgBRv
rZlv1qJPFzoG/Ei4HmL6Wn2EBTAMBgNVHRMBAf8EAjAAMB0GA1UdDgQWBBRn6w0C
MUA8f+ukTeG5ENcr5zyNKTAOBgNVHQ8BAf8EBAMCB4AwCQYHKoZIzj0EAQNHADBE
AiAIoASr6U7dFHbJJgnF5eI+55c7iH/qhSTrQ6yhgttnFAIgPrOYbHQuLY5anJsj
oM7Z4slC1B0O2TPiIp0DhcigYQc=
-----END CERTIFICATE-----
