Certificate:
    Data:
        Version: 3 (0x2)
        Serial Number:
            b8:c5:d6:89:cd:cd:99:51
        Signature Algorithm: ecdsa-with-SHA1
        Issuer: C=be, O=kunstmaan, OU=auth, CN=auth.kunstmaan.be
        Validity
            Not Before: Feb 14 16:06:56 2018 GMT
            Not After : Feb 12 16:06:56 2028 GMT
        Subject: C=be, O=kunstmaan, OU=auth, CN=user-2.auth.kunstmaan.be
        Subject Public Key Info:
            Public Key Algorithm: id-ecPublicKey
            EC Public Key:
                pub: 
                    04:b4:fd:f4:84:f4:f2:cd:22:18:1c:46:c9:80:aa:
                    cd:d5:92:d0:35:a5:6c:bd:cc:ea:98:aa:0b:9c:db:
                    78:fd:9a:05:42:6c:76:c6:16:6d:e7:47:81:ef:54:
                    eb:11:62:6b:b1:f5:59:14:ca:8c:35:e5:10:34:17:
                    cc:83:2d:1c:7c
                ASN1 OID: prime256v1
        X509v3 extensions:
            1.2.3.4.5.6.7.8.1: 
                ..{"attrs":{"Name":"user-2"}}
            X509v3 Authority Key Identifier: 
                keyid:95:7B:44:03:D8:97:C6:89:B4:E3:0F:92:5E:B4:3F:F4:96:78:5F:FA

            X509v3 Basic Constraints: critical
                CA:FALSE
            X509v3 Subject Key Identifier: 
                56:72:21:49:43:3C:5A:A2:3E:A7:47:0C:2B:78:B2:EB:22:66:9C:6C
            X509v3 Key Usage: critical
                Digital Signature
    Signature Algorithm: ecdsa-with-SHA1
        30:45:02:21:00:af:0b:87:ad:57:dc:67:2a:92:bc:81:40:1a:
        55:2a:4b:d7:9d:3e:31:00:e1:d9:98:86:49:67:ff:e4:8f:94:
        74:02:20:00:89:8c:99:0d:4c:92:6c:79:6a:94:0e:92:b4:e0:
        81:4a:f4:94:6e:33:1c:8e:d4:91:a8:55:8a:f9:d5:ba:62
-----BEGIN CERTIFICATE-----
MIICITCCAcigAwIBAgIJALjF1onNzZlRMAkGByqGSM49BAEwTDELMAkGA1UEBhMC
YmUxEjAQBgNVBAoMCWt1bnN0bWFhbjENMAsGA1UECwwEYXV0aDEaMBgGA1UEAwwR
YXV0aC5rdW5zdG1hYW4uYmUwHhcNMTgwMjE0MTYwNjU2WhcNMjgwMjEyMTYwNjU2
WjBTMQswCQYDVQQGEwJiZTESMBAGA1UECgwJa3Vuc3RtYWFuMQ0wCwYDVQQLDARh
dXRoMSEwHwYDVQQDDBh1c2VyLTIuYXV0aC5rdW5zdG1hYW4uYmUwWTATBgcqhkjO
PQIBBggqhkjOPQMBBwNCAAS0/fSE9PLNIhgcRsmAqs3VktA1pWy9zOqYqguc23j9
mgVCbHbGFm3nR4HvVOsRYmux9VkUyow15RA0F8yDLRx8o4GMMIGJMCkGCCoDBAUG
BwgBBB0MG3siYXR0cnMiOnsiTmFtZSI6InVzZXItMiJ9fTAfBgNVHSMEGDAWgBSV
e0QD2JfGibTjD5JetD/0lnhf+jAMBgNVHRMBAf8EAjAAMB0GA1UdDgQWBBRWciFJ
Qzxaoj6nRwwreLLrImacbDAOBgNVHQ8BAf8EBAMCB4AwCQYHKoZIzj0EAQNIADBF
AiEArwuHrVfcZyqSvIFAGlUqS9edPjEA4dmYhkln/+SPlHQCIACJjJkNTJJseWqU
DpK04IFK9JRuMxyO1JGoVYr51bpi
-----END CERTIFICATE-----
