Certificate:
    Data:
        Version: 3 (0x2)
        Serial Number:
            95:13:c6:e3:9c:f5:b0:be
        Signature Algorithm: ecdsa-with-SHA1
        Issuer: CN=kunstmaan.be, OU=ca, C=be, O=kunstmaan
        Validity
            Not Before: Feb 14 16:06:50 2018 GMT
            Not After : Feb  9 16:06:50 2038 GMT
        Subject: CN=kunstmaan.be, OU=ca, C=be, O=kunstmaan
        Subject Public Key Info:
            Public Key Algorithm: id-ecPublicKey
            EC Public Key:
                pub: 
                    04:21:bf:17:51:61:e7:51:2c:39:72:5f:f6:f6:1d:
                    04:8c:85:b4:61:2a:8a:8d:06:1e:4d:77:06:89:0e:
                    a4:d9:59:d0:97:14:97:10:e8:b9:70:23:38:1e:19:
                    c0:1e:ec:09:b5:ea:7a:bf:07:6b:17:25:cc:02:6d:
                    29:dc:bf:87:18
                ASN1 OID: prime256v1
        X509v3 extensions:
            X509v3 Subject Key Identifier: 
                B3:71:D9:27:14:0A:24:03:AC:50:A4:6F:0E:C0:BC:80:C9:B4:37:2F
            X509v3 Basic Constraints: critical
                CA:TRUE
            X509v3 Key Usage: critical
                Digital Signature, Key Encipherment, Certificate Sign, CRL Sign
            X509v3 Extended Key Usage: 
                2.5.29.37.0
    Signature Algorithm: ecdsa-with-SHA1
        30:44:02:20:78:14:b5:bb:de:4f:16:ea:56:93:f2:45:93:45:
        65:b5:42:53:6c:b7:d6:1c:82:70:0a:2a:b2:a4:c7:56:34:c3:
        02:20:59:6d:49:5f:ee:6f:7f:26:28:90:f8:65:f2:41:ad:f0:
        26:40:b7:cd:e2:7d:38:02:8a:26:b7:2d:8e:ce:c0:b3
-----BEGIN CERTIFICATE-----
MIIB0TCCAXmgAwIBAgIJAJUTxuOc9bC+MAkGByqGSM49BAEwRTEVMBMGA1UEAwwM
a3Vuc3RtYWFuLmJlMQswCQYDVQQLDAJjYTELMAkGA1UEBhMCYmUxEjAQBgNVBAoM
CWt1bnN0bWFhbjAeFw0xODAyMTQxNjA2NTBaFw0zODAyMDkxNjA2NTBaMEUxFTAT
BgNVBAMMDGt1bnN0bWFhbi5iZTELMAkGA1UECwwCY2ExCzAJBgNVBAYTAmJlMRIw
EAYDVQQKDAlrdW5zdG1hYW4wWTATBgcqhkjOPQIBBggqhkjOPQMBBwNCAAQhvxdR
YedRLDlyX/b2HQSMhbRhKoqNBh5NdwaJDqTZWdCXFJcQ6LlwIzgeGcAe7Am16nq/
B2sXJcwCbSncv4cYo1MwUTAdBgNVHQ4EFgQUs3HZJxQKJAOsUKRvDsC8gMm0Ny8w
DwYDVR0TAQH/BAUwAwEB/zAOBgNVHQ8BAf8EBAMCAaYwDwYDVR0lBAgwBgYEVR0l
ADAJBgcqhkjOPQQBA0cAMEQCIHgUtbveTxbqVpPyRZNFZbVCU2y31hyCcAoqsqTH
VjTDAiBZbUlf7m9/JiiQ+GXyQa3wJkC3zeJ9OAKKJrctjs7Asw==
-----END CERTIFICATE-----
