Certificate:
    Data:
        Version: 3 (0x2)
        Serial Number:
            90:52:43:9f:ba:25:5a:9b
    Signature Algorithm: ecdsa-with-SHA256
        Issuer: C=be, O=kunstmaan, OU=org, CN=org.kunstmaan.be
        Validity
            Not Before: Feb 28 10:00:20 2018 GMT
            Not After : Feb 26 10:00:20 2028 GMT
        Subject: C=be, O=kunstmaan, OU=org, CN=admin-kuma.org.kunstmaan.be
        Subject Public Key Info:
            Public Key Algorithm: id-ecPublicKey
                Public-Key: (256 bit)
                pub: 
                    04:6d:17:56:9d:e3:df:df:b1:40:00:ab:99:26:89:
                    9e:67:68:c7:49:a7:a4:bd:40:6e:5f:c8:78:12:47:
                    b8:6b:2b:28:76:e6:f7:90:65:75:75:06:c8:c3:ce:
                    c4:d7:42:db:52:a7:2d:fa:ce:55:8b:d3:3c:7e:60:
                    fd:22:67:a5:c0
                ASN1 OID: prime256v1
                NIST CURVE: P-256
        X509v3 extensions:
            1.2.3.4.5.6.7.8.1: 
                ..{"attrs":{}}
            X509v3 Authority Key Identifier: 
                keyid:6B:9C:F9:1B:41:1F:57:6B:39:F6:6F:01:3E:23:65:75:2B:4C:81:D1

            X509v3 Basic Constraints: critical
                CA:FALSE
            X509v3 Subject Key Identifier: 
                E0:B6:0E:9C:49:CF:47:F7:12:E4:B4:07:5E:5B:66:2B:26:7D:29:DB
            X509v3 Key Usage: critical
                Digital Signature, Key Encipherment
            X509v3 Extended Key Usage: 
                TLS Web Server Authentication, TLS Web Client Authentication
    Signature Algorithm: ecdsa-with-SHA256
         30:45:02:20:6c:b6:9b:16:f4:85:05:c3:93:13:69:b6:70:da:
         83:f9:cf:53:3d:84:be:e0:cb:07:9e:66:90:79:4c:63:61:54:
         02:21:00:c4:1b:69:c2:34:88:dd:74:fb:13:f7:f2:f3:2d:41:
         95:23:c4:0a:82:76:32:20:4d:5a:38:98:82:e4:cc:17:d3
-----BEGIN CERTIFICATE-----
MIICMzCCAdmgAwIBAgIJAJBSQ5+6JVqbMAoGCCqGSM49BAMCMEoxCzAJBgNVBAYT
AmJlMRIwEAYDVQQKDAlrdW5zdG1hYW4xDDAKBgNVBAsMA29yZzEZMBcGA1UEAwwQ
b3JnLmt1bnN0bWFhbi5iZTAeFw0xODAyMjgxMDAwMjBaFw0yODAyMjYxMDAwMjBa
MFUxCzAJBgNVBAYTAmJlMRIwEAYDVQQKDAlrdW5zdG1hYW4xDDAKBgNVBAsMA29y
ZzEkMCIGA1UEAwwbYWRtaW4ta3VtYS5vcmcua3Vuc3RtYWFuLmJlMFkwEwYHKoZI
zj0CAQYIKoZIzj0DAQcDQgAEbRdWnePf37FAAKuZJomeZ2jHSaekvUBuX8h4Eke4
aysodub3kGV1dQbIw87E10LbUqct+s5Vi9M8fmD9ImelwKOBnDCBmTAaBggqAwQF
BgcIAQQODAx7ImF0dHJzIjp7fX0wHwYDVR0jBBgwFoAUa5z5G0EfV2s59m8BPiNl
dStMgdEwDAYDVR0TAQH/BAIwADAdBgNVHQ4EFgQU4LYOnEnPR/cS5LQHXltmKyZ9
KdswDgYDVR0PAQH/BAQDAgWgMB0GA1UdJQQWMBQGCCsGAQUFBwMBBggrBgEFBQcD
AjAKBggqhkjOPQQDAgNIADBFAiBstpsW9IUFw5MTabZw2oP5z1M9hL7gyweeZpB5
TGNhVAIhAMQbacI0iN10+xP38vMtQZUjxAqCdjIgTVo4mILkzBfT
-----END CERTIFICATE-----
