Certificate:
    Data:
        Version: 3 (0x2)
        Serial Number:
            90:e4:83:c7:e9:4f:6c:a5
        Signature Algorithm: ecdsa-with-SHA1
        Issuer: C=be, O=kunstmaan, OU=org, CN=org.kunstmaan.be
        Validity
            Not Before: Feb 27 17:00:08 2018 GMT
            Not After : Feb 25 17:00:08 2028 GMT
        Subject: C=be, O=kunstmaan, OU=org, CN=admin-kuma.org.kunstmaan.be
        Subject Public Key Info:
            Public Key Algorithm: id-ecPublicKey
            EC Public Key:
                pub: 
                    04:93:2a:18:22:32:a7:ba:4e:a0:12:b2:49:42:4a:
                    a7:48:06:9d:8c:8d:37:3b:b7:cf:d8:83:31:c6:15:
                    75:1c:4a:8f:32:70:92:4e:3b:cf:31:75:d9:9d:65:
                    17:e3:f7:ed:96:b2:89:2d:18:6b:48:46:96:24:83:
                    24:3b:7f:f8:5b
                ASN1 OID: prime256v1
        X509v3 extensions:
            1.2.3.4.5.6.7.8.1: 
                ..{"attrs":{}}
            X509v3 Authority Key Identifier: 
                keyid:89:9E:98:C2:9C:9A:BF:F0:F0:4E:93:13:CF:D9:90:22:10:CB:5F:FA

            X509v3 Basic Constraints: critical
                CA:FALSE
            X509v3 Subject Key Identifier: 
                8F:37:3C:56:8F:17:54:02:15:BE:F5:69:18:D0:72:54:BD:A4:0A:B1
            X509v3 Key Usage: critical
                Digital Signature, Key Encipherment
            X509v3 Extended Key Usage: 
                TLS Web Server Authentication, TLS Web Client Authentication
    Signature Algorithm: ecdsa-with-SHA1
        30:44:02:20:49:b6:35:e7:72:d2:5a:a5:6b:d9:6d:7f:55:d4:
        36:8a:09:3b:94:0e:83:9b:d3:78:3a:aa:60:0f:84:2e:88:75:
        02:20:44:27:da:9c:d7:5d:57:ee:44:bf:36:e4:2d:62:40:64:
        c8:38:13:5e:38:e1:5b:d5:ad:09:e6:69:bd:04:2a:95
-----BEGIN CERTIFICATE-----
MIICMDCCAdigAwIBAgIJAJDkg8fpT2ylMAkGByqGSM49BAEwSjELMAkGA1UEBhMC
YmUxEjAQBgNVBAoMCWt1bnN0bWFhbjEMMAoGA1UECwwDb3JnMRkwFwYDVQQDDBBv
cmcua3Vuc3RtYWFuLmJlMB4XDTE4MDIyNzE3MDAwOFoXDTI4MDIyNTE3MDAwOFow
VTELMAkGA1UEBhMCYmUxEjAQBgNVBAoMCWt1bnN0bWFhbjEMMAoGA1UECwwDb3Jn
MSQwIgYDVQQDDBthZG1pbi1rdW1hLm9yZy5rdW5zdG1hYW4uYmUwWTATBgcqhkjO
PQIBBggqhkjOPQMBBwNCAASTKhgiMqe6TqASsklCSqdIBp2MjTc7t8/YgzHGFXUc
So8ycJJOO88xddmdZRfj9+2WsoktGGtIRpYkgyQ7f/hbo4GcMIGZMBoGCCoDBAUG
BwgBBA4MDHsiYXR0cnMiOnt9fTAfBgNVHSMEGDAWgBSJnpjCnJq/8PBOkxPP2ZAi
EMtf+jAMBgNVHRMBAf8EAjAAMB0GA1UdDgQWBBSPNzxWjxdUAhW+9WkY0HJUvaQK
sTAOBgNVHQ8BAf8EBAMCBaAwHQYDVR0lBBYwFAYIKwYBBQUHAwEGCCsGAQUFBwMC
MAkGByqGSM49BAEDRwAwRAIgSbY153LSWqVr2W1/VdQ2igk7lA6Dm9N4OqpgD4Qu
iHUCIEQn2pzXXVfuRL825C1iQGTIOBNeOOFb1a0J5mm9BCqV
-----END CERTIFICATE-----
