Certificate:
    Data:
        Version: 3 (0x2)
        Serial Number:
            a9:db:09:2c:7c:38:0d:0b
    Signature Algorithm: ecdsa-with-SHA256
        Issuer: C=be, O=kunstmaan, OU=org, CN=org.kunstmaan.be
        Validity
            Not Before: Feb 28 10:12:53 2018 GMT
            Not After : Feb 26 10:12:53 2028 GMT
        Subject: C=be, O=kunstmaan, OU=org, CN=admin-kuma.org.kunstmaan.be
        Subject Public Key Info:
            Public Key Algorithm: id-ecPublicKey
                Public-Key: (256 bit)
                pub: 
                    04:da:17:b5:34:1a:a5:f4:ab:29:5e:5a:c9:b3:fe:
                    c9:e2:fd:18:ff:a3:78:2d:94:d4:67:d1:f5:17:f0:
                    f3:a8:ed:f5:95:9d:7b:d7:cb:13:f1:c3:f2:10:b4:
                    99:71:37:55:ab:f4:90:8c:59:61:c1:87:e1:9d:db:
                    44:0c:fb:aa:68
                ASN1 OID: prime256v1
                NIST CURVE: P-256
        X509v3 extensions:
            1.2.3.4.5.6.7.8.1: 
                ..{"attrs":{}}
            X509v3 Authority Key Identifier: 
                keyid:21:26:6E:CC:58:10:2E:BE:D2:15:53:E3:22:BE:F0:04:B7:E5:84:7E

            X509v3 Basic Constraints: critical
                CA:FALSE
            X509v3 Subject Key Identifier: 
                16:B9:CE:6D:6F:EE:B6:1F:EC:02:4C:CA:11:EC:80:BB:38:F9:EE:AF
            X509v3 Key Usage: critical
                Digital Signature, Key Encipherment
            X509v3 Extended Key Usage: 
                TLS Web Server Authentication, TLS Web Client Authentication
    Signature Algorithm: ecdsa-with-SHA256
         30:44:02:20:19:ad:c1:c4:62:f8:ea:f4:e4:5b:fc:96:c1:3d:
         b8:ab:52:f3:f3:25:54:c5:a3:e7:2a:a8:c0:cd:83:63:85:6f:
         02:20:4b:db:b6:43:82:01:96:98:01:1a:8b:c8:d3:4c:6e:b7:
         7c:ce:3d:b3:f9:cd:dc:cf:ae:1d:98:5d:b8:ff:3f:47
-----BEGIN CERTIFICATE-----
MIICMjCCAdmgAwIBAgIJAKnbCSx8OA0LMAoGCCqGSM49BAMCMEoxCzAJBgNVBAYT
AmJlMRIwEAYDVQQKDAlrdW5zdG1hYW4xDDAKBgNVBAsMA29yZzEZMBcGA1UEAwwQ
b3JnLmt1bnN0bWFhbi5iZTAeFw0xODAyMjgxMDEyNTNaFw0yODAyMjYxMDEyNTNa
MFUxCzAJBgNVBAYTAmJlMRIwEAYDVQQKDAlrdW5zdG1hYW4xDDAKBgNVBAsMA29y
ZzEkMCIGA1UEAwwbYWRtaW4ta3VtYS5vcmcua3Vuc3RtYWFuLmJlMFkwEwYHKoZI
zj0CAQYIKoZIzj0DAQcDQgAE2he1NBql9KspXlrJs/7J4v0Y/6N4LZTUZ9H1F/Dz
qO31lZ1718sT8cPyELSZcTdVq/SQjFlhwYfhndtEDPuqaKOBnDCBmTAaBggqAwQF
BgcIAQQODAx7ImF0dHJzIjp7fX0wHwYDVR0jBBgwFoAUISZuzFgQLr7SFVPjIr7w
BLflhH4wDAYDVR0TAQH/BAIwADAdBgNVHQ4EFgQUFrnObW/uth/sAkzKEeyAuzj5
7q8wDgYDVR0PAQH/BAQDAgWgMB0GA1UdJQQWMBQGCCsGAQUFBwMBBggrBgEFBQcD
AjAKBggqhkjOPQQDAgNHADBEAiAZrcHEYvjq9ORb/JbBPbirUvPzJVTFo+cqqMDN
g2OFbwIgS9u2Q4IBlpgBGovI00xut3zOPbP5zdzPrh2YXbj/P0c=
-----END CERTIFICATE-----
